******************************************************************************
             TMS470 COFF Linker PC v4.1.4                      
******************************************************************************
>> Linked Wed Apr 09 18:45:08 2014

OUTPUT FILE NAME:   <../../../OUT/UhvNar.out>
ENTRY POINT SYMBOL: "_c_int00"  address: 0008bc14


MEMORY CONFIGURATION

                  name            origin    length      used    attr    fill
         ----------------------  --------  ---------  --------  ----  --------
         VECTORS1                00000000   00000020  00000020     X
         ADLATUS                 00000020   00007fd0  00000000  R IX
         VECTORS2                00008000   00000024  00000020     X
         ROM                     00008024   00097cda  0008d37e  R  X
         KOMBI_TEXT_ROM          0009fcfe   000200ff  0002004c  R  X
         CHKS2                   000bfffc   00000004  00000004  R     12345678
         FLASH_REQ               00400000   00000004  00000004  RW  
         RAM                     00400004   0000bffc  0000bbfe  RW  
         HETPROG                 00800000   00000600  00000000  RW  
         MPU                     ffe84000   00000024  00000000  RW  
         PROGRAM_FLASH           ffe88000   00004000  00000000  RW  
         HECC3                   fff7d000   00000200  00000000  RW  
         HECCRAM3                fff7d200   00000200  00000000  RW  
         SPI2                    fff7d400   00000100  00000000  RW  
         SPI3                    fff7d500   00000100  00000000  RW  
         SPI4                    fff7d600   00000100  00000000  RW  
         SPI5                    fff7d700   00000100  00000000  RW  
         HECCRAM1                fff7e400   00000200  00000000  RW  
         HECCRAM2                fff7e600   00000200  00000000  RW  
         HECC1                   fff7e800   00000200  00000000  RW  
         HECC2                   fff7ea00   00000200  00000000  RW  
         GIO                     fff7ec00   00000100  00000000  RW  
         ECP                     fff7ef00   00000100  00000000  RW  
         ADC1                    fff7f000   00000100  00000000  RW  
         SCI1                    fff7f400   00000100  00000000  RW  
         SCI2                    fff7f500   00000100  00000000  RW  
         SPI1                    fff7f800   00000100  00000000  RW  
         HET                     fff7fc00   00000100  00000000  RW  
         DMACP                   fffff800   00000200  00000000  RW  
         IEM                     fffffc00   00000100  00000000  RW  
         MMC                     fffffd00   00000080  00000000  RW  
         DEC                     fffffe00   00000080  00000000  RW  
         DMA                     fffffe80   00000080  00000000  RW  
         RTI                     ffffff00   00000020  00000000  RW  
         CIM                     ffffff20   00000020  00000000  RW  
         PSA                     ffffff40   00000020  00000000  RW  
         SYS                     ffffffd0   00000030  00000000  RW  


SECTION ALLOCATION MAP

 output                                  attributes/
section   page    origin      length       input sections
--------  ----  ----------  ----------   ----------------
.HECC3     0    fff7d000    00000000     UNINITIALIZED

.HECCRAM3 
*          0    fff7d200    00000000     UNINITIALIZED

.SPI2      0    fff7d400    00000000     UNINITIALIZED

.SPI3      0    fff7d500    00000000     UNINITIALIZED

.SPI4      0    fff7d600    00000000     UNINITIALIZED

.SPI5      0    fff7d700    00000000     UNINITIALIZED

.HECCRAM1 
*          0    fff7e400    00000000     UNINITIALIZED

.HECCRAM2 
*          0    fff7e600    00000000     UNINITIALIZED

.HECC1     0    fff7e800    00000000     UNINITIALIZED

.HECC2     0    fff7ea00    00000000     UNINITIALIZED

.GIO       0    fff7ec00    00000000     UNINITIALIZED

.ADC1      0    fff7f000    00000000     UNINITIALIZED

.SCI1      0    fff7f400    00000000     UNINITIALIZED

.SCI2      0    fff7f500    00000000     UNINITIALIZED

.SPI1      0    fff7f800    00000000     UNINITIALIZED

.HET       0    fff7fc00    00000000     UNINITIALIZED

.DMACP     0    fffff800    00000000     UNINITIALIZED

.MMC       0    fffffd00    00000000     UNINITIALIZED

.DEC       0    fffffe00    00000000     UNINITIALIZED

.DMA       0    fffffe80    00000000     UNINITIALIZED

.RTI       0    ffffff00    00000000     UNINITIALIZED

.CIM       0    ffffff20    00000000     UNINITIALIZED

.SYS       0    ffffffd0    00000000     UNINITIALIZED

.data      0    00000000    00000000     UNINITIALIZED

.vectors   0    00000000    00000020     
                  00000000    00000020     vectors.obj (.vectors)

.intvecs   0    00008000    00000000     UNINITIALIZED

.reset     0    00008000    00000004     
                  00008000    00000004     Startup.obj (.reset)

.osarmvect 
*          0    00008004    0000001c     
                  00008004    0000001c     intvect.obj (.osarmvect)

.startup   0    00008030    00000000     UNINITIALIZED

.osvtable 
*          0    00008080    000000a4     
                  00008080    000000a4     intvect.obj (.osvtable)

.text      0    00008124    000859dc     
                  00008124    00019d78     MOD_APP_SD.lib : APP_SD_C1.obj (.text)
                  00021e9c    00009918                    : APP_SD_FrameBuilder_C1.obj (.text)
                  0002b7b4    00004754     MOD_ERM.lib : ERM.obj (.text)
                  0002ff08    000043b0     MOD_AT_Parser.lib : ATParser_Utils.obj (.text)
                  000342b8    00003630     MOD_ERM.lib : ERM_DeviceHandler.obj (.text)
                  000378e8    0000362c     MOD_AT_Parser.lib : ATParser.obj (.text)
                  0003af14    000033d0     MOD_VCR.lib : VCR_Utils.obj (.text)
                  0003e2e4    000026b4                 : VCR_MessageHandler.obj (.text)
                  00040998    00002548     MOD_KPB.lib : KPB_C1.obj (.text)
                  00042ee0    00002454     MOD_ERM.lib : ERM_MessageHandler.obj (.text)
                  00045334    000023ec     MOD_APP_DEVICE.lib : APP_DEVICE_Profiles_C1.obj (.text)
                  00047720    00002388     STD_DEH.lib : deh.obj (.text)
                  00049aa8    00002260     MOD_VCR.lib : VCR_StateHandler_PHONE.obj (.text)
                  0004bd08    00002178                 : VCR_StateHandler_PHONEBOOK.obj (.text)
                  0004de80    00001fcc     MOD_APP_DTC.lib : APP_DTC_C1.obj (.text)
                  0004fe4c    00001ad0     MOD_CONTEXT_MAN.lib : CONTEXT_MAN_C1.obj (.text)
                  0005191c    00001acc     MOD_APP_PHONEBOOK_BAP.lib : APP_PHONEBOOK_BAP_REQUEST_C1.obj (.text)
                  000533e8    00001ab8     MOD_APP_DEVICE.lib : APP_DEVICE_Connection_C1.obj (.text)
                  00054ea0    00001a78     MOD_APP_DIAG.lib : APP_DIAG_C1.obj (.text)
                  00056918    00001a58     MOD_AT_Cmd_Handler.lib : ATCmdHandler.obj (.text)
                  00058370    00001a4c     MOD_APP_PHONE.lib : APP_PHONE_C1.obj (.text)
                  00059dbc    000016e4     MOD_APP_PHONEBOOK.lib : APP_PHONEBOOK_C1.obj (.text)
                  0005b4a0    0000163c     rts32tiabi.lib : _printfi.obj (.text)
                  0005cadc    00001608     MOD_VCR.lib : VCR.obj (.text)
                  0005e0e4    000015c8     MOD_CSHDL.lib : CSHDL_c1.obj (.text)
                  0005f6ac    000015c0     MOD_APP_PHONE_BAP.lib : APP_PHONE_BAP_REQUEST_C1.obj (.text)
                  00060c6c    00001558     MOD_APP_CAN.lib : APP_CAN_C1.obj (.text)
                  000621c4    00001478     MOD_VCR.lib : VCR_StateHandler.obj (.text)
                  0006363c    0000138c     MOD_APP_PHONE_BAP.lib : APP_PHONE_BAP_INDICATION_C1.obj (.text)
                  000649c8    000011b8     MOD_APP_MDI_BAP.lib : APP_MDI_BAP_C1.obj (.text)
                  00065b80    000010f0     MOD_BAP.lib : bap_bclcan.obj (.text)
                  00066c70    000010bc     MOD_APP_MDI.lib : APP_MDI_C1.obj (.text)
                  00067d2c    00000ec4     MOD_CAN_ST.lib : can_drv.obj (.text)
                  00068bf0    00000e4c     MOD_SDS_UDS.lib : SDS_UDS_Service2E_C1.obj (.text)
                  00069a3c    00000e34     STD_NM.lib : n_vnm.obj (.text)
                  0006a870    00000e30     MOD_APP_PHONEBOOK.lib : APP_PHONEBOOK_AT_C1.obj (.text)
                  0006b6a0    00000d00     MOD_APP_PHONE.lib : APP_PHONE_AT_PNCC_C1.obj (.text)
                  0006c3a0    00000cb8     MOD_SDS_UDS.lib : sds_ext.obj (.text)
                  0006d058    00000ca0     MOD_KPB.lib : KPB_BAP_C1.obj (.text)
                  0006dcf8    00000c7c     MOD_SDS_UDS.lib : SDS_UDS_Service22_C1.obj (.text)
                  0006e974    00000bf8     MOD_APP_PHONEBOOK_BAP.lib : APP_PHONEBOOK_BAP_C1.obj (.text)
                  0006f56c    00000bb8     MOD_ASR.lib : ASR_C1.obj (.text)
                  00070124    00000b88     MOD_ERM.lib : ERM_AudioSets.obj (.text)
                  00070cac    00000b54     MOD_APP_SMS.lib : APP_SMS_C1.obj (.text)
                  00071800    00000a9c     MOD_AT_Cmd_Handler.lib : ATCmdHandler_VCR.obj (.text)
                  0007229c    00000a84     MOD_APP_MDI.lib : APP_MDI_AT_C1.obj (.text)
                  00072d20    00000a6c     MOD_UART.lib : UART_C1.obj (.text)
                  0007378c    00000a24     MOD_VCR.lib : VCR_StateHandler_SETTINGS.obj (.text)
                  000741b0    00000a14     MOD_BAP_Dispatcher.lib : BAP_Dispatcher_C1.obj (.text)
                  00074bc4    000009f8     MOD_APP_PHONE.lib : APP_PHONE_ERM_C1.obj (.text)
                  000755bc    00000920     MOD_APP_DEVICE.lib : APP_DEVICE_C1.obj (.text)
                  00075edc    000008d4     MOD_BAP.lib : bap_bal.obj (.text)
                  000767b0    000008ac     MOD_TRACE.lib : TRACE_c1.obj (.text)
                  0007705c    00000858     MOD_APP_SD.lib : APP_SD_ListCtrl_C1.obj (.text)
                  000778b4    00000800     STD_ISOTP.lib : tp.obj (.text)
                  000780b4    000007e4     MOD_OSEK_ST.lib : osek.obj (.text)
                  00078898    000007d8     MOD_SDS_UDS.lib : SDS_UDS_Service2F_C1.obj (.text)
                  00079070    000007b8                     : SDS_UDS_Service_DataDownload_C1.obj (.text)
                  00079828    00000790     MOD_EEPROM_LAYOUT.lib : EEPROM_Layout_C1.obj (.text)
                  00079fb8    00000790     MOD_APP_PHONEBOOK_BAP.lib : APP_PHONEBOOK_BAP_AT_C1.obj (.text)
                  0007a748    00000780     MOD_APP_DEVICE.lib : APP_DEVICE_AudioManager_C1.obj (.text)
                  0007aec8    000006f0     MOD_LOGI_BUT_MAN.lib : LOGI_BUT_MAN_C1.obj (.text)
                  0007b5b8    000006d4     MOD_BAP_Dispatcher.lib : BAP_Dispatcher_InitSendBuffer.obj (.text)
                  0007bc8c    000006ac     MOD_APP_PHONE_BAP.lib : APP_PHONE_BAP_C1.obj (.text)
                  0007c338    000006a8     MOD_APP_DEVICE.lib : APP_DEVICE_E2P_Backup_R2FS_C1.obj (.text)
                  0007c9e0    0000069c     MOD_OSEK_ST.lib : osektask.obj (.text)
                  0007d07c    00000688     MOD_PHY_BUT_DRV.lib : PHY_BUT_DRV_PL_CRADLE.obj (.text)
                  0007d704    0000063c     MOD_APP_SD.lib : APP_SD_SpellerCtrl_C1.obj (.text)
                  0007dd40    00000624     MOD_NM.lib : NM_CB.obj (.text)
                  0007e364    0000061c     MOD_APP_COMMON.lib : APP_COMMON_Utils_C1.obj (.text)
                  0007e980    00000618     MOD_MONITOR_ADC.lib : MONITOR_ADC_C1.obj (.text)
                  0007ef98    000005e0     MOD_BAP.lib : bap_bcl.obj (.text)
                  0007f578    00000560     MOD_CRC.lib : Crcmgr_C1.obj (.text)
                  0007fad8    00000554     MOD_APP_DEVICE.lib : APP_DEVICE_ERM_C1.obj (.text)
                  0008002c    00000544     MOD_OSEK_ST.lib : osekcom.obj (.text)
                  00080570    00000544     MOD_AT_Cmd_Handler.lib : ATCmdHandler_MDI.obj (.text)
                  00080ab4    00000544     MOD_POOL.lib : POOL_C1.obj (.text)
                  00080ff8    00000544     MOD_SDS_UDS.lib : SDS_UDS_Service31_C1.obj (.text)
                  0008153c    00000510     MOD_BAP.lib : bap_balutil.obj (.text)
                  00081a4c    0000050c     STD_UDS.lib : uds.obj (.text)
                  00081f58    00000508     MOD_AT_Cmd_Handler.lib : ATCmdHandler_PhoneBook.obj (.text)
                  00082460    000004fc     MOD_OSEK_ST.lib : osekevnt.obj (.text)
                  0008295c    000004f4     MOD_AT_Cmd_Handler.lib : ATCmdHandler_Phone.obj (.text)
                  00082e50    00000474     MOD_APP_MDI.lib : APP_MDI_StateHandler.obj (.text)
                  000832c4    00000470                     : APP_MDI_ERM_C1.obj (.text)
                  00083734    00000464     MOD_APP_PHONE.lib : APP_PHONE_AT_Request_Builder_C1.obj (.text)
                  00083b98    00000454     MOD_BAP.lib : bap_bpl.obj (.text)
                  00083fec    00000438     MOD_OSEK_ST.lib : osekalrm.obj (.text)
                  00084424    00000434     MOD_EEPROM.lib : EEPROM_C1.obj (.text)
                  00084858    00000434     MOD_EEPROM_LAYOUT_CFG.lib : EEPROM_Layout_Cfg_C1.obj (.text)
                  00084c8c    00000420     MOD_OSEK_ST.lib : osektime.obj (.text)
                  000850ac    00000418     MOD_DEH.lib : deh_cfg.obj (.text)
                  000854c4    000003d0     MOD_MFL_MGR.lib : MFL_MGR_C1.obj (.text)
                  00085894    00000394     MOD_AT_Cmd_Handler.lib : ATCmdHandler_Sms.obj (.text)
                  00085c28    00000378     MOD_BAP_Dispatcher.lib : BAP_Dispatcher_Ack.obj (.text)
                  00085fa0    00000374     MOD_APP_PHONE.lib : APP_PHONE_AT_C1.obj (.text)
                  00086314    00000370     MOD_SDS_UDS.lib : SDS_UDS_Service_SecurityCheck_C1.obj (.text)
                  00086684    00000358     MOD_APP_COMMON.lib : APP_COMMON_BAP_ARRAY_C1.obj (.text)
                  000869dc    0000034c     MOD_OSEK_ST.lib : osekrsrc.obj (.text)
                  00086d28    00000318     MOD_VCR.lib : VCR_StateHandler_VOICEMEMO.obj (.text)
                  00087040    00000314     MOD_OSEK_ST.lib : osekasm.obj (.text)
                  00087354    00000310     MOD_POWERMANAGER.lib : Pwrmgr_C1.obj (.text)
                  00087664    000002ec     MOD_APP_CSHDL.lib : APP_CSHDL_C1.obj (.text)
                  00087950    000002e8     MOD_UART.lib : UART_PL_C1.obj (.text)
                  00087c38    000002a8     MOD_EEPROM_LAYOUT.lib : EEPROM_LAYOUT_RamMirror_C1.obj (.text)
                  00087ee0    0000029c     MOD_PORT.lib : PORT_C1.obj (.text)
                  0008817c    0000029c     MOD_SPI.lib : SPI_C1.obj (.text)
                  00088418    00000298     MOD_APP_PHONE.lib : APP_PHONE_CAN_DATA_C1.obj (.text)
                  000886b0    0000028c     rts32tiabi.lib : ull_div32.obj (.text)
                  0008893c    00000274     SYS_OSEK_INTERFACE.lib : OSEK_AppTask_C1.obj (.text)
                  00088bb0    00000238     MOD_SDS_UDS.lib : SDS_UDS_StartUp_C1.obj (.text)
                  00088de8    00000238     MOD_BAP.lib : bap_bclutil.obj (.text)
                  00089020    00000224     MOD_APP_SMS.lib : APP_SMS_Requests_C1.obj (.text)
                  00089244    00000220     MOD_SDS_UDS.lib : SDS_UDS_Service_DTC_C1.obj (.text)
                  00089464    00000214     rts32tiabi.lib : fd_add32.obj (.text)
                  00089678    00000210     MOD_AT_Cmd_Handler.lib : ATCmdHandler_DEVICE.obj (.text)
                  00089888    000001fc     MOD_GIO.lib : GIO_PL_C1.obj (.text)
                  00089a84    000001f0     MOD_APP_DEVICE.lib : APP_DEVICE_AT_C1.obj (.text)
                  00089c74    000001e0     MOD_APP_PHONEBOOK.lib : APP_PHONEBOOK_ERM_C1.obj (.text)
                  00089e54    000001dc     SYS_OSEK_INTERFACE.lib : OSEK_HostTask_C1.obj (.text)
                  0008a030    000001dc     MOD_SDS_UDS.lib : SDS_UDS_CB_C1.obj (.text)
                  0008a20c    000001d4     MOD_ERM.lib : ERM_Utils.obj (.text)
                  0008a3e0    000001b4     rts32tiabi.lib : strtoul.obj (.text)
                  0008a594    000001a8     MOD_SDS_UDS.lib : SDS_UDS_ReadWriteEEProm_C1.obj (.text)
                  0008a73c    00000194     MOD_ADC.lib : ADC_PL_C1.obj (.text)
                  0008a8d0    00000190     rts32tiabi.lib : fd_div32.obj (.text)
                  0008aa60    00000184     intvect.obj (.text)
                  0008abe4    00000180     rts32tiabi.lib : memcpy32.obj (.text)
                  0008ad64    00000178     MOD_VCR.lib : VCR_StateHandler_MDI.obj (.text)
                  0008aedc    00000178     MOD_SYS_INIT.lib : SYS_INIT_C.obj (.text)
                  0008b054    00000170     MOD_FBL_DATA.lib : FBL_Data_C1.obj (.text)
                  0008b1c4    00000168     MOD_SPI.lib : SPI_PL_C1.obj (.text)
                  0008b32c    00000154     SYS_OSEK_INTERFACE.lib : OSEK_HookFunctions_C1.obj (.text)
                  0008b480    00000154     SYS_CALLBACK.lib : CAN_CB.obj (.text)
                  0008b5d4    00000148     STD_SDS_UDS.lib : sds.obj (.text)
                  0008b71c    00000144     MOD_BAP.lib : bap_debug.obj (.text)
                  0008b860    00000144     MOD_UDS.lib : uds_appl.obj (.text)
                  0008b9a4    00000138     MOD_OSEK_DYN.lib : OSEK_TaskHandler_C1.obj (.text)
                  0008badc    00000138     MOD_BAP.lib : bap_bplutil.obj (.text)
                  0008bc14    00000130     Startup.obj (.text)
                  0008bd44    00000130     MOD_PHY_BUT_DRV.lib : PHY_BUT_DRV_PL_3BM.obj (.text)
                  0008be74    00000128     SYS_OSEK_INTERFACE.lib : OSEK_AppTask_Alarm.obj (.text)
                  0008bf9c    00000128     rts32tiabi.lib : fd_mul32.obj (.text)
                  0008c0c4    00000128     MOD_PHY_BUT_DRV.lib : PHY_BUT_DRV_PL_C1.obj (.text)
                  0008c1ec    00000118     MOD_ADC.lib : ADC_C1.obj (.text)
                  0008c304    00000104     SYS_OSEK_INTERFACE.lib : OSEK_MonitorTask_C1.obj (.text)
                  0008c408    00000100     MOD_APP_SMS.lib : APP_SMS_ERM_C1.obj (.text)
                  0008c508    00000100     rts32tiabi.lib : i_div32.obj (.text)
                  0008c608    000000fc     MOD_OSEK_DYN.lib : tcb.obj (.text)
                  0008c704    000000fc     rts32tiabi.lib : snprintf.obj (.text)
                  0008c800    000000f8     MOD_BAP.lib : bap_bclcan_vector_TMS470struct.obj (.text)
                  0008c8f8    000000f4     MOD_APP_COMMON.lib : APP_COMMON_AT_Dispatcher_C1.obj (.text)
                  0008c9ec    000000f4     MOD_EEPROM.lib : EEPROM_PL_SPI_C1.obj (.text)
                  0008cae0    000000e0     rts32tiabi.lib : u_div32.obj (.text)
                  0008cbc0    000000e0     MOD_BAP.lib : bap_util.obj (.text)
                  0008cca0    000000d8     MOD_APP_CAN.lib : APP_CAN_Speed_C1.obj (.text)
                  0008cd78    000000cc     MOD_OSEK_ST.lib : osekerr.obj (.text)
                  0008ce44    000000c8                     : osekint.obj (.text)
                  0008cf0c    000000c0     rts32tiabi.lib : fd_cmp32.obj (.text)
                  0008cfcc    000000b4     MOD_TEMPERATURE.lib : TEMPERATURE_C1.obj (.text)
                  0008d080    000000a4     rts32tiabi.lib : memset32.obj (.text)
                  0008d124    000000a0     SYS_OSEK_INTERFACE.lib : OSEK_DatabaseTask_C1.obj (.text)
                  0008d1c4    0000009c     rts32tiabi.lib : sprintf.obj (.text)
                  0008d260    0000008c     SYS_OSEK_INTERFACE.lib : OSEK_Utils.obj (.text)
                  0008d2ec    00000088     MOD_AT_Cmd_Handler.lib : ATCmdHandler_Utils.obj (.text)
                  0008d374    00000084     rts32tiabi.lib : atoi.obj (.text)
                  0008d3f8    00000084                    : ltoa.obj (.text)
                  0008d47c    00000084     MOD_KPB.lib : KPB_Alarm_C1.obj (.text)
                  0008d500    00000084     MOD_OSEK_DYN.lib : msg.obj (.text)
                  0008d584    00000078     SYS_OSEK_INTERFACE.lib : OSEK_DriverTaskCyclic_C1.obj (.text)
                  0008d5fc    00000070     MOD_PHY_BUT_DRV.lib : PHY_BUT_DRV_C1.obj (.text)
                  0008d66c    00000064     MOD_LOGI_BUT_MAN.lib : LOGI_BUT_MAN_CRADLE.obj (.text)
                  0008d6d0    0000005c                          : LOGI_BUT_MAN_3BM.obj (.text)
                  0008d72c    0000005c     rts32tiabi.lib : fd_toi32.obj (.text)
                  0008d788    00000050     SYS_OSEK_INTERFACE.lib : OSEK_SystemTask_C1.obj (.text)
                  0008d7d8    00000050     MOD_WD.lib : WD_c1.obj (.text)
                  0008d828    0000004c     MOD_CRC.lib : Crc_C1.obj (.text)
                  0008d874    0000004c     SYS_CALLBACK.lib : ISRMask_CB.obj (.text)
                  0008d8c0    00000048     rts32tiabi.lib : strncpy.obj (.text)
                  0008d908    0000003c                    : i_tofd32.obj (.text)
                  0008d944    00000038                    : strncmp.obj (.text)
                  0008d97c    00000034                    : memcmp.obj (.text)
                  0008d9b0    00000030     MOD_BAP.lib : bap_controller.obj (.text)
                  0008d9e0    0000002c     rts32tiabi.lib : strrchr.obj (.text)
                  0008da0c    0000002c                    : strcmp.obj (.text)
                  0008da38    00000028                    : strchr.obj (.text)
                  0008da60    00000028                    : memccpy.obj (.text)
                  0008da88    00000020                    : icall32.obj (.text)
                  0008daa8    0000001c     STD_NM.lib : onmxvag.obj (.text)
                  0008dac4    0000001c     rts32tiabi.lib : strlen.obj (.text)
                  0008dae0    00000014     MOD_OSEK_DYN.lib : OSEK_MsgHandler_C1.obj (.text)
                  0008daf4    00000008     MOD_CAN_ST.lib : can_32.obj (.text)
                  0008dafc    00000004     SYS_Main.obj (.text)

.const     0    0008db00    0000672a     
                  0008db00    00002658     MOD_BAP.lib : BAP-SW_UHVhigh_NAR_Phone_PB_MDI.obj (.const)
                  00090158    00000a64     MOD_APP_SD.lib : APP_SD_C1.obj (.const)
                  00090bbc    000004f0     MOD_OSEK_DYN.lib : tcb.obj (.const)
                  000910ac    0000048c     MOD_APP_DEVICE.lib : APP_DEVICE_E2P_Backup_R2FS_C1.obj (.const)
                  00091538    00000400     MOD_CRC.lib : Crc_C1.obj (.const)
                  00091938    000003fc     MOD_SDS_UDS.lib : SDS_UDS_Service22_C1.obj (.const)
                  00091d34    00000370     MOD_OSEK_DYN.lib : msg.obj (.const)
                  000920a4    000002cc     MOD_ERM.lib : ERM_AudioSets.obj (.const)
                  00092370    000002ac     MOD_TEMPERATURE.lib : TEMPERATURE_C1.obj (.const)
                  0009261c    000002ac     MOD_CAN_DYN.lib : UHV_NAR.obj (.const)
                  000928c8    00000296     MOD_APP_SD.lib : APP_SD_FrameBuilder_C1.obj (.const)
                  00092b5e    00000002     --HOLE-- [fill = 0]
                  00092b60    000001ec     MOD_DEH.lib : deh_cfg.obj (.const)
                  00092d4c    000001c2     MOD_AT_Cmd_Handler.lib : ATCmdHandler_Phone.obj (.const)
                  00092f0e    00000002     --HOLE-- [fill = 0]
                  00092f10    000001c2                            : ATCmdHandler.obj (.const)
                  000930d2    00000002     --HOLE-- [fill = 0]
                  000930d4    00000190                            : ATCmdHandler_DEVICE.obj (.const)
                  00093264    00000190                            : ATCmdHandler_MDI.obj (.const)
                  000933f4    00000190                            : ATCmdHandler_VCR.obj (.const)
                  00093584    00000190                            : ATCmdHandler_Sms.obj (.const)
                  00093714    00000190                            : ATCmdHandler_PhoneBook.obj (.const)
                  000938a4    0000017c     MOD_EEPROM_LAYOUT.lib : EEPROM_Layout_C1.obj (.const)
                  00093a20    0000015c     STD_UDS.lib : uds.obj (.const)
                  00093b7c    00000101     rts32tiabi.lib : ctype.obj (.const:__ctypes_)
                  00093c7d    00000003     --HOLE-- [fill = 0]
                  00093c80    000000f8     MOD_SDS_UDS.lib : SDS_UDS_Service2E_C1.obj (.const)
                  00093d78    000000c0     MOD_APP_SD.lib : APP_SD_SpellerCtrl_C1.obj (.const)
                  00093e38    000000c0     MOD_SDS_UDS.lib : SDS_UDS_Service_DTC_C1.obj (.const)
                  00093ef8    000000a8     MOD_APP_SD.lib : APP_SD_Icons.obj (.const)
                  00093fa0    00000084     MOD_CAN_ST.lib : can_drv.obj (.const)
                  00094024    00000064     MOD_BAP.lib : bap_balutil.obj (.const)
                  00094088    0000003c     MOD_SDS_UDS.lib : SDS_UDS_Service2F_C1.obj (.const)
                  000940c4    00000034     MOD_BAP_Dispatcher.lib : BAP_Dispatcher_InitSendBuffer.obj (.const)
                  000940f8    00000034     SYS_VERSION.lib : Version.obj (.const)
                  0009412c    00000030     MOD_SDS_UDS.lib : sds_ext.obj (.const)
                  0009415c    0000001e     MOD_EEPROM_LAYOUT_CFG.lib : EEPROM_Layout_Cfg_C1.obj (.const)
                  0009417a    00000002     --HOLE-- [fill = 0]
                  0009417c    0000001c     MOD_OSEK_ST.lib : osek.obj (.const)
                  00094198    00000015     MOD_BAP.lib : bap_bclcan.obj (.const)
                  000941ad    00000003     --HOLE-- [fill = 0]
                  000941b0    00000014                 : bap_bcl.obj (.const)
                  000941c4    00000011     MOD_FBL_DATA.lib : FBL_Data_C1.obj (.const)
                  000941d5    00000003     --HOLE-- [fill = 0]
                  000941d8    00000010     MOD_KPB.lib : KPB_C1.obj (.const)
                  000941e8    00000010     MOD_CRC.lib : Crcmgr_C1.obj (.const)
                  000941f8    0000000e     MOD_APP_PHONE.lib : APP_PHONE_C1.obj (.const)
                  00094206    00000002     --HOLE-- [fill = 0]
                  00094208    0000000e     MOD_APP_PHONE_BAP.lib : APP_PHONE_BAP_REQUEST_C1.obj (.const)
                  00094216    00000002     --HOLE-- [fill = 0]
                  00094218    00000004     MOD_BAP.lib : bap_bpl.obj (.const)
                  0009421c    00000004     MOD_APP_MDI_BAP.lib : APP_MDI_BAP_C1.obj (.const)
                  00094220    00000003     STD_NM.lib : onmxvag.obj (.const)
                  00094223    00000001     --HOLE-- [fill = 0]
                  00094224    00000003                : n_vnm.obj (.const)
                  00094227    00000001     --HOLE-- [fill = 0]
                  00094228    00000002     MOD_APP_DIAG.lib : APP_DIAG_C1.obj (.const)

.cinit     0    0009422c    000011d4     
                  0009422c    000002e8     MOD_BAP.lib : BAP-SW_UHVhigh_NAR_Phone_PB_MDI.obj (.cinit)
                  00094514    000001e9     MOD_ERM.lib : ERM.obj (.cinit)
                  000946fd    00000003     --HOLE-- [fill = 0]
                  00094700    000000bc     MOD_BAP_Dispatcher.lib : BAP_Dispatcher_Ack.obj (.cinit)
                  000947bc    000000a5     MOD_MONITOR_ADC.lib : MONITOR_ADC_C1.obj (.cinit)
                  00094861    00000003     --HOLE-- [fill = 0]
                  00094864    000000a5     MOD_CSHDL.lib : CSHDL_c1.obj (.cinit)
                  00094909    00000003     --HOLE-- [fill = 0]
                  0009490c    000000a4     MOD_POOL.lib : POOL_ARRAY.obj (.cinit)
                  000949b0    00000099     MOD_APP_CAN.lib : APP_CAN_C1.obj (.cinit)
                  00094a49    00000003     --HOLE-- [fill = 0]
                  00094a4c    00000075     MOD_APP_DIAG.lib : APP_DIAG_C1.obj (.cinit)
                  00094ac1    00000003     --HOLE-- [fill = 0]
                  00094ac4    00000075     MOD_SDS_UDS.lib : SDS_UDS_Service_DataDownload_C1.obj (.cinit)
                  00094b39    00000003     --HOLE-- [fill = 0]
                  00094b3c    0000006a     MOD_NM.lib : NM_CB.obj (.cinit)
                  00094ba6    00000002     --HOLE-- [fill = 0]
                  00094ba8    00000069     MOD_CRC.lib : Crcmgr_C1.obj (.cinit)
                  00094c11    00000003     --HOLE-- [fill = 0]
                  00094c14    00000069     MOD_SDS_UDS.lib : sds_ext.obj (.cinit)
                  00094c7d    00000003     --HOLE-- [fill = 0]
                  00094c80    00000061                     : SDS_UDS_Service2E_C1.obj (.cinit)
                  00094ce1    00000003     --HOLE-- [fill = 0]
                  00094ce4    00000061     MOD_ERM.lib : ERM_DeviceHandler.obj (.cinit)
                  00094d45    00000003     --HOLE-- [fill = 0]
                  00094d48    0000005d     MOD_CONTEXT_MAN.lib : CONTEXT_MAN_C1.obj (.cinit)
                  00094da5    00000003     --HOLE-- [fill = 0]
                  00094da8    00000054     MOD_POOL.lib : POOL_C1.obj (.cinit)
                  00094dfc    0000004c     MOD_EEPROM.lib : EEPROM_C1.obj (.cinit)
                  00094e48    00000046     MOD_SDS_UDS.lib : SDS_UDS_Service2F_C1.obj (.cinit)
                  00094e8e    00000002     --HOLE-- [fill = 0]
                  00094e90    00000045     MOD_APP_SD.lib : APP_SD_C1.obj (.cinit)
                  00094ed5    00000003     --HOLE-- [fill = 0]
                  00094ed8    00000045     MOD_PHY_BUT_DRV.lib : PHY_BUT_DRV_PL_CRADLE.obj (.cinit)
                  00094f1d    00000003     --HOLE-- [fill = 0]
                  00094f20    00000045     MOD_OSEK_DYN.lib : OSEK_TaskHandler_C1.obj (.cinit)
                  00094f65    00000003     --HOLE-- [fill = 0]
                  00094f68    00000045     MOD_VCR.lib : VCR_StateHandler_PHONE.obj (.cinit)
                  00094fad    00000003     --HOLE-- [fill = 0]
                  00094fb0    0000003a     MOD_POWERMANAGER.lib : Pwrmgr_C1.obj (.cinit)
                  00094fea    00000002     --HOLE-- [fill = 0]
                  00094fec    0000003a     MOD_APP_DTC.lib : APP_DTC_C1.obj (.cinit)
                  00095026    00000002     --HOLE-- [fill = 0]
                  00095028    00000039     MOD_ASR.lib : ASR_C1.obj (.cinit)
                  00095061    00000003     --HOLE-- [fill = 0]
                  00095064    00000039     MOD_VCR.lib : VCR.obj (.cinit)
                  0009509d    00000003     --HOLE-- [fill = 0]
                  000950a0    00000034     MOD_ERM.lib : ERM_AudioSets.obj (.cinit)
                  000950d4    00000030     MOD_UART.lib : UART_C1.obj (.cinit)
                  00095104    0000002e     MOD_SDS_UDS.lib : SDS_UDS_Service22_C1.obj (.cinit)
                  00095132    00000002     --HOLE-- [fill = 0]
                  00095134    0000002d     MOD_DEH.lib : deh_cfg.obj (.cinit)
                  00095161    00000003     --HOLE-- [fill = 0]
                  00095164    00000024     MOD_TRACE.lib : TRACE_c1.obj (.cinit)
                  00095188    00000021     MOD_KPB.lib : KPB_C1.obj (.cinit)
                  000951a9    00000003     --HOLE-- [fill = 0]
                  000951ac    00000021     MOD_SDS_UDS.lib : SDS_UDS_Service_SecurityCheck_C1.obj (.cinit)
                  000951cd    00000003     --HOLE-- [fill = 0]
                  000951d0    00000021     MOD_AT_Parser.lib : ATParser.obj (.cinit)
                  000951f1    00000003     --HOLE-- [fill = 0]
                  000951f4    00000019     MOD_SDS_UDS.lib : SDS_UDS_Service_DTC_C1.obj (.cinit)
                  0009520d    00000003     --HOLE-- [fill = 0]
                  00095210    00000016                     : SDS_UDS_ReadWriteEEProm_C1.obj (.cinit)
                  00095226    00000002     --HOLE-- [fill = 0]
                  00095228    00000016     MOD_VCR.lib : VCR_StateHandler.obj (.cinit)
                  0009523e    00000002     --HOLE-- [fill = 0]
                  00095240    00000016     MOD_APP_CAN.lib : APP_CAN_Speed_C1.obj (.cinit)
                  00095256    00000002     --HOLE-- [fill = 0]
                  00095258    00000015     MOD_LOGI_BUT_MAN.lib : LOGI_BUT_MAN_C1.obj (.cinit)
                  0009526d    00000003     --HOLE-- [fill = 0]
                  00095270    00000015     MOD_MFL_MGR.lib : MFL_MGR_C1.obj (.cinit)
                  00095285    00000003     --HOLE-- [fill = 0]
                  00095288    00000015     MOD_VCR.lib : VCR_StateHandler_PHONEBOOK.obj (.cinit)
                  0009529d    00000003     --HOLE-- [fill = 0]
                  000952a0    00000015     MOD_SDS_UDS.lib : SDS_UDS_Service31_C1.obj (.cinit)
                  000952b5    00000003     --HOLE-- [fill = 0]
                  000952b8    00000015     SYS_OSEK_INTERFACE.lib : OSEK_HostTask_C1.obj (.cinit)
                  000952cd    00000003     --HOLE-- [fill = 0]
                  000952d0    00000015     MOD_ADC.lib : ADC_PL_C1.obj (.cinit)
                  000952e5    00000003     --HOLE-- [fill = 0]
                  000952e8    00000015     MOD_EEPROM_LAYOUT.lib : EEPROM_Layout_C1.obj (.cinit)
                  000952fd    00000003     --HOLE-- [fill = 0]
                  00095300    0000000c     rts32tiabi.lib : errno.obj (.cinit)
                  0009530c    0000000c     SYS_OSEK_INTERFACE.lib : OSEK_MonitorTask_C1.obj (.cinit)
                  00095318    0000000c     MOD_GIO.lib : GIO_PL_C1.obj (.cinit)
                  00095324    0000000a     MOD_UDS.lib : uds_appl.obj (.cinit)
                  0009532e    00000002     --HOLE-- [fill = 0]
                  00095330    0000000a     MOD_BAP.lib : bap_bclcan.obj (.cinit)
                  0009533a    00000002     --HOLE-- [fill = 0]
                  0009533c    00000009     MOD_SYS_INIT.lib : SYS_INIT_C.obj (.cinit)
                  00095345    00000003     --HOLE-- [fill = 0]
                  00095348    00000009     MOD_SDS_UDS.lib : SDS_UDS_StartUp_C1.obj (.cinit)
                  00095351    00000003     --HOLE-- [fill = 0]
                  00095354    00000009     MOD_VCR.lib : VCR_Utils.obj (.cinit)
                  0009535d    00000003     --HOLE-- [fill = 0]
                  00095360    00000009                 : VCR_MessageHandler.obj (.cinit)
                  00095369    00000003     --HOLE-- [fill = 0]
                  0009536c    00000009     SYS_OSEK_INTERFACE.lib : OSEK_HookFunctions_C1.obj (.cinit)
                  00095375    00000003     --HOLE-- [fill = 0]
                  00095378    00000009     MOD_APP_PHONE.lib : APP_PHONE_ERM_C1.obj (.cinit)
                  00095381    00000003     --HOLE-- [fill = 0]
                  00095384    00000009     MOD_LOGI_BUT_MAN.lib : LOGI_BUT_MAN_CRADLE.obj (.cinit)
                  0009538d    00000003     --HOLE-- [fill = 0]
                  00095390    00000009     MOD_BAP.lib : bap_debug.obj (.cinit)
                  00095399    00000003     --HOLE-- [fill = 0]
                  0009539c    00000009     MOD_SDS_UDS.lib : SDS_UDS_CB_C1.obj (.cinit)
                  000953a5    00000003     --HOLE-- [fill = 0]
                  000953a8    00000009     MOD_ERM.lib : ERM_Utils.obj (.cinit)
                  000953b1    00000003     --HOLE-- [fill = 0]
                  000953b4    00000009     MOD_LOGI_BUT_MAN.lib : LOGI_BUT_MAN_3BM.obj (.cinit)
                  000953bd    00000003     --HOLE-- [fill = 0]
                  000953c0    00000009     MOD_APP_PHONE_BAP.lib : APP_PHONE_BAP_REQUEST_C1.obj (.cinit)
                  000953c9    00000003     --HOLE-- [fill = 0]
                  000953cc    00000009                           : APP_PHONE_BAP_INDICATION_C1.obj (.cinit)
                  000953d5    00000003     --HOLE-- [fill = 0]
                  000953d8    00000009     MOD_PHY_BUT_DRV.lib : PHY_BUT_DRV_PL_3BM.obj (.cinit)
                  000953e1    00000003     --HOLE-- [fill = 0]
                  000953e4    00000009     MOD_AT_Cmd_Handler.lib : ATCmdHandler.obj (.cinit)
                  000953ed    00000003     --HOLE-- [fill = 0]
                  000953f0    00000009     MOD_PHY_BUT_DRV.lib : PHY_BUT_DRV_C1.obj (.cinit)
                  000953f9    00000007     --HOLE-- [fill = 0]

.const_sd_text 
*          0    0009fd00    0001fd94     
                  0009fd00    0001fd94     APP_SD_FrameDataBase.obj (.const)

.const_sd_mailbox 
*          0    000bfa94    000002b8     
                  000bfa94    000002b8     APP_SD_Mailbox.obj (.const)

$fill000   0    000bfffc    00000004     
                  000bfffc    00000004     --HOLE-- [fill = 12345678]

.REQUEST   0    00400000    00000004     UNINITIALIZED
                  00400000    00000004     MOD_SDS_UDS.lib : sds_ext.obj (.REQUEST)

.sysmem    0    00400004    00000000     UNINITIALIZED

.bss       0    00400004    0000bbfe     UNINITIALIZED
                  00400004    00002b3c     MOD_BAP.lib : BAP-SW_UHVhigh_NAR_Phone_PB_MDI.obj (.bss)
                  00402b40    000029c8     MOD_POOL.lib : POOL_ARRAY.obj (.bss)
                  00405508    00001200     MOD_OSEK_DYN.lib : tcb.obj (.bss)
                  00406708    000009cf     MOD_KPB.lib : KPB_C1.obj (.bss)
                  004070d7    00000001     MOD_AT_Cmd_Handler.lib : ATCmdHandler.obj (.bss)
                  004070d8    000008b4     MOD_UART.lib : UART_C1.obj (.bss)
                  0040798c    00000838     MOD_OSEK_DYN.lib : msg.obj (.bss)
                  004081c4    0000073e     MOD_APP_SD.lib : APP_SD_C1.obj (.bss)
                  00408902    00000002     STD_SDS_UDS.lib : sds.obj (.bss)
                  00408904    000006b4     MOD_ERM.lib : ERM_DeviceHandler.obj (.bss)
                  00408fb8    0000068c     MOD_APP_PHONEBOOK.lib : APP_PHONEBOOK_C1.obj (.bss)
                  00409644    000005d6     MOD_VCR.lib : VCR.obj (.bss)
                  00409c1a    00000002     MOD_BAP.lib : bap_bcl.obj (.bss)
                  00409c1c    000003d9     MOD_ERM.lib : ERM.obj (.bss)
                  00409ff5    00000001     MOD_LOGI_BUT_MAN.lib : LOGI_BUT_MAN_3BM.obj (.bss)
                  00409ff6    00000002     MOD_BAP.lib : bap_bclcan.obj (.bss)
                  00409ff8    00000240     MOD_EEPROM_LAYOUT.lib : EEPROM_LAYOUT_RamMirror_C1.obj (.bss)
                  0040a238    00000228     MOD_SDS_UDS.lib : sds_ext.obj (.bss)
                  0040a460    000001e0     MOD_APP_SD.lib : APP_SD_ListCtrl_C1.obj (.bss)
                  0040a640    000001b4     MOD_APP_MDI.lib : APP_MDI_C1.obj (.bss)
                  0040a7f4    00000197     MOD_AT_Parser.lib : ATParser.obj (.bss)
                  0040a98b    00000001     MOD_ERM.lib : ERM_Utils.obj (.bss)
                  0040a98c    00000189     MOD_APP_DIAG.lib : APP_DIAG_C1.obj (.bss)
                  0040ab15    00000003     MOD_VCR.lib : VCR_Utils.obj (.bss)
                  0040ab18    00000180     MOD_APP_SMS.lib : APP_SMS_C1.obj (.bss)
                  0040ac98    00000180     MOD_POOL.lib : POOL_C1.obj (.bss)
                  0040ae18    00000143     STD_DEH.lib : deh.obj (.bss)
                  0040af5b    00000001     MOD_VCR.lib : VCR_MessageHandler.obj (.bss)
                  0040af5c    00000106     MOD_UDS.lib : uds_appl.obj (.bss)
                  0040b062    00000002     MOD_SDS_UDS.lib : SDS_UDS_Service31_C1.obj (.bss)
                  0040b064    000000cd     MOD_CONTEXT_MAN.lib : CONTEXT_MAN_C1.obj (.bss)
                  0040b131    00000002     MOD_VCR.lib : VCR_StateHandler_PHONEBOOK.obj (.bss)
                  0040b133    00000001     MOD_LOGI_BUT_MAN.lib : LOGI_BUT_MAN_CRADLE.obj (.bss)
                  0040b134    000000c9     MOD_CRC.lib : Crcmgr_C1.obj (.bss)
                  0040b1fd    00000002     MOD_SDS_UDS.lib : SDS_UDS_CB_C1.obj (.bss)
                  0040b1ff    00000001     MOD_PHY_BUT_DRV.lib : PHY_BUT_DRV_C1.obj (.bss)
                  0040b200    000000c9     MOD_SDS_UDS.lib : SDS_UDS_Service_DTC_C1.obj (.bss)
                  0040b2c9    00000002     MOD_ADC.lib : ADC_PL_C1.obj (.bss)
                  0040b2cb    00000001     MOD_BAP.lib : bap_bclutil.obj (.bss)
                  0040b2cc    000000c4     MOD_APP_PHONE.lib : APP_PHONE_C1.obj (.bss)
                  0040b390    000000b8     SYS_OSEK_INTERFACE.lib : OSEK_AppTask_Alarm.obj (.bss)
                  0040b448    000000b4     MOD_BAP_Dispatcher.lib : BAP_Dispatcher_Ack.obj (.bss)
                  0040b4fc    000000a4     MOD_DEH.lib : deh_cfg.obj (.bss)
                  0040b5a0    00000090     MOD_CAN_ST.lib : can_drv.obj (.bss)
                  0040b630    00000064     MOD_APP_PHONEBOOK_BAP.lib : APP_PHONEBOOK_BAP_C1.obj (.bss)
                  0040b694    00000058     MOD_APP_DEVICE.lib : APP_DEVICE_C1.obj (.bss)
                  0040b6ec    0000004c     MOD_APP_PHONE_BAP.lib : APP_PHONE_BAP_C1.obj (.bss)
                  0040b738    00000041     MOD_SDS_UDS.lib : SDS_UDS_Service_DataDownload_C1.obj (.bss)
                  0040b779    00000001     MOD_TEMPERATURE.lib : TEMPERATURE_C1.obj (.bss)
                  0040b77a    00000001     MOD_SYS_INIT.lib : SYS_INIT_C.obj (.bss)
                  0040b77b    00000001     MOD_APP_PHONE.lib : APP_PHONE_ERM_C1.obj (.bss)
                  0040b77c    0000003d     MOD_APP_CAN.lib : APP_CAN_C1.obj (.bss)
                  0040b7b9    00000001     MOD_APP_PHONE_BAP.lib : APP_PHONE_BAP_INDICATION_C1.obj (.bss)
                  0040b7ba    00000001                           : APP_PHONE_BAP_REQUEST_C1.obj (.bss)
                  0040b7bb    00000001     MOD_SDS_UDS.lib : SDS_UDS_StartUp_C1.obj (.bss)
                  0040b7bc    0000003a     MOD_CSHDL.lib : CSHDL_c1.obj (.bss)
                  0040b7f8    00000038     MOD_APP_DEVICE.lib : APP_DEVICE_AudioManager_C1.obj (.bss)
                  0040b830    00000034     MOD_EEPROM.lib : EEPROM_C1.obj (.bss)
                  0040b864    00000030     MOD_EEPROM_LAYOUT.lib : EEPROM_Layout_C1.obj (.bss)
                  0040b894    00000029     MOD_ASR.lib : ASR_C1.obj (.bss)
                  0040b8c0    00000025     MOD_VCR.lib : VCR_StateHandler_PHONE.obj (.bss)
                  0040b8e8    00000024     MOD_TRACE.lib : TRACE_c1.obj (.bss)
                  0040b90c    00000024     STD_ISOTP.lib : tp.obj (.bss)
                  0040b930    00000020     MOD_OSEK_ST.lib : osek.obj (.bss)
                  0040b950    00000020     MOD_ADC.lib : ADC_C1.obj (.bss)
                  0040b970    0000001f     MOD_LOGI_BUT_MAN.lib : LOGI_BUT_MAN_C1.obj (.bss)
                  0040b990    0000001c     SYS_OSEK_INTERFACE.lib : OSEK_MonitorTask_C1.obj (.bss)
                  0040b9ac    0000001b     MOD_MONITOR_ADC.lib : MONITOR_ADC_C1.obj (.bss)
                  0040b9c8    0000001a     SYS_OSEK_INTERFACE.lib : OSEK_HostTask_C1.obj (.bss)
                  0040b9e4    00000018                            : OSEK_DatabaseTask_C1.obj (.bss)
                  0040b9fc    00000018                            : OSEK_AppTask_C1.obj (.bss)
                  0040ba14    00000018     STD_UDS.lib : uds.obj (.bss)
                  0040ba2c    00000017     MOD_SDS_UDS.lib : SDS_UDS_Service2E_C1.obj (.bss)
                  0040ba44    00000014     MOD_APP_PHONE.lib : APP_PHONE_AT_PNCC_C1.obj (.bss)
                  0040ba58    00000014     MOD_ERM.lib : ERM_AudioSets.obj (.bss)
                  0040ba6c    00000012     MOD_SDS_UDS.lib : SDS_UDS_Service22_C1.obj (.bss)
                  0040ba80    00000011     STD_NM.lib : n_vnm.obj (.bss)
                  0040ba92    00000010     MOD_APP_DTC.lib : APP_DTC_C1.obj (.bss)
                  0040baa4    00000010     MOD_SDS_UDS.lib : SDS_UDS_Service_SecurityCheck_C1.obj (.bss)
                  0040bab4    0000000e     MOD_NM.lib : NM_CB.obj (.bss)
                  0040bac4    0000000d     MOD_APP_CSHDL.lib : APP_CSHDL_C1.obj (.bss)
                  0040bad4    0000000c     MOD_BAP.lib : bap_debug.obj (.bss)
                  0040bae0    0000000c     MOD_GIO.lib : GIO_PL_C1.obj (.bss)
                  0040baec    0000000a     MOD_SDS_UDS.lib : SDS_UDS_Service2F_C1.obj (.bss)
                  0040baf8    00000009     SYS_OSEK_INTERFACE.lib : OSEK_HookFunctions_C1.obj (.bss)
                  0040bb02    00000009     MOD_APP_MDI_BAP.lib : APP_MDI_BAP_C1.obj (.bss)
                  0040bb0c    00000008     MOD_POWERMANAGER.lib : Pwrmgr_C1.obj (.bss)
                  0040bb14    00000004     MOD_VCR.lib : VCR_StateHandler.obj (.bss)
                  0040bb18    00000004     MOD_APP_CAN.lib : APP_CAN_Speed_C1.obj (.bss)
                  0040bb1c    00000004     rts32tiabi.lib : errno.obj (.bss)
                  0040bb20    00000004     MOD_SDS_UDS.lib : SDS_UDS_ReadWriteEEProm_C1.obj (.bss)
                  0040bb24    000000bb     MOD_CAN_DYN.lib : UHV_NAR.obj (.bss)
                  0040bbdf    0000000c     MOD_PHY_BUT_DRV.lib : PHY_BUT_DRV_PL_CRADLE.obj (.bss)
                  0040bbeb    00000007     MOD_MFL_MGR.lib : MFL_MGR_C1.obj (.bss)
                  0040bbf2    00000006     MOD_PHY_BUT_DRV.lib : PHY_BUT_DRV_PL_3BM.obj (.bss)
                  0040bbf8    00000006     MOD_OSEK_DYN.lib : OSEK_TaskHandler_C1.obj (.bss)
                  0040bbfe    00000004     MOD_PHY_BUT_DRV.lib : PHY_BUT_DRV_PL_C1.obj (.bss)

.HETCODE   0    00800000    00000000     UNINITIALIZED


GLOBAL SYMBOLS: SORTED ALPHABETICALLY BY Name 

address    name
--------   ----
0008d080   $memset
00400004   .bss
00000000   .data
00008124   .text
0008abe4   C_MEMCPY
00089470   FD_ADD
0008cf0c   FD_CMP
0008a8d0   FD_DIV
0008bf9c   FD_MUL
00089464   FD_SUB
0008d72c   FD_TOI
0008c508   I$DIV
0008c508   I$MOD
0008da88   IND_CALL
0008c50c   I_DIV
0008c50c   I_MOD
0008d908   I_TOFD
0008cae0   U$DIV
0008cae0   U$MOD
000886b0   ULL_DIV
000886b0   ULL_MOD
0008cae4   U_DIV
0008cae4   U_MOD
0008a73c   _ADC_SWResetEnter_V
0008a768   _ADC_SWResetExit_V
0008a778   _ADC_sfConfigureInitRegister
0008c290   _ADC_sfConvStart
0008a794   _ADC_sfConvStart_PL
0008c1ec   _ADC_sfInit
0008c254   _ADC_u16GetAdcValue
0008a864   _ADC_u16ReadChannel
0008a878   _ADC_vConfigureInterrupt
0008511c   _APL_DEH_EEPReadEventData
00085140   _APL_DEH_EEPWriteEventData
000851ec   _APL_DEH_EEPWriteHandleRetries
0008529c   _APL_DEH_IsDEHData_SuccessfulRegisterToEEprom
00085428   _APL_DEH_ReadStatusOfDTC
000852a8   _APL_DEH_ReadStdFF
000853a8   _APL_DEH_ReadUnlearnCounter
00085430   _APL_DEH_WriteStatusOfDTC
00061ca4   _APP_CAN_ResetSleepDelayTimer
00061c88   _APP_CAN_SleepDelayTimer
0008cd40   _APP_CAN_Speed_un16CurrentVehicleSpeed
0008cca0   _APP_CAN_Speed_vSpeedHandler
00061fe0   _APP_CAN_cbNachlaufzeitTimeout
00061c38   _APP_CAN_enGetDerivat
00061c2c   _APP_CAN_enGetMarke
000610c0   _APP_CAN_enGetMuteStatus
000610d8   _APP_CAN_sf10msCyclicCheckReceivedCANMessages
00061f10   _APP_CAN_sfCheckBusOff
00062104   _APP_CAN_sfDiagnose_1_MessageReceived
00060c6c   _APP_CAN_sfInit
00060d9c   _APP_CAN_sfReInitTOVariables
00061fe8   _APP_CAN_sfSendCyclicCanMessage
00062078   _APP_CAN_u8DTCStore
000620b4   _APP_CAN_u8EigenDiagDTCStore
00061c48   _APP_CAN_u8GetActiveLSM1Device
000620f8   _APP_CAN_u8GetMflVariante
000620ec   _APP_CAN_u8GetNWDF
00062064   _APP_CAN_u8Klemme15Status
00062114   _APP_CAN_vDiagnose_1_Data
00060df8   _APP_CAN_vHandleEvents
00060d8c   _APP_CAN_vResetLanguageDatasetdownload
0008685c   _APP_COMMON_BAP_ARRAY_sfConvSWArrayHeader
000866ec   _APP_COMMON_BAP_ARRAY_sfGetChangedArray
00086684   _APP_COMMON_BAP_ARRAY_sfGetDefaultStatusArray
000869c0   _APP_COMMON_BAP_ARRAY_sfGetPos
00086830   _APP_COMMON_BAP_ARRAY_sfIsHeaderSizeValid
0008677c   _APP_COMMON_BAP_ARRAY_sfReadHeader
00086988   _APP_COMMON_BAP_ARRAY_sfSetPos
00086768   _APP_COMMON_BAP_ARRAY_u16GetHeaderLength
000867d8   _APP_COMMON_BAP_ARRAY_u8WriteHeader
0007e50c   _APP_COMMON_UTILS_bIsAlarmActive
0007e83c   _APP_COMMON_UTILS_sfConvertAtSmsDate
0007e5f4   _APP_COMMON_UTILS_sfFreeAtResponse
0007e554   _APP_COMMON_UTILS_sfFreeBapIndication
0007e5a4   _APP_COMMON_UTILS_sfFreeBapRequest
0007e6d8   _APP_COMMON_UTILS_sfSendBapResultRequestNoData
0007e744   _APP_COMMON_UTILS_sfSendEmptyBapArray
0007e52c   _APP_COMMON_UTILS_stCancelOsekRelAlarm
0007e550   _APP_COMMON_UTILS_stGetTimeoutLeft
0007e64c   _APP_COMMON_UTILS_stSendBapRequest
0007e4d4   _APP_COMMON_UTILS_stSetOsekRelAlarm
0007e364   _APP_COMMON_UTILS_u16GetBapString
0007e3ec   _APP_COMMON_UTILS_u16GetUint16Type
0007e3b0   _APP_COMMON_UTILS_u16WriteBapString
0007e3a0   _APP_COMMON_UTILS_u8CalcBapStringNumLenBytes
0007e448   _APP_COMMON_UTILS_vSendBapError
0007e430   _APP_COMMON_UTILS_vSetLowerNibble
0007e40c   _APP_COMMON_UTILS_vSetUint16Type
0007e41c   _APP_COMMON_UTILS_vSetUpperNibble
0007e8d4   _APP_COMMON_enGetUtf8Type
0007e928   _APP_COMMON_u32GetSDBM_Hash
0008c8f8   _APP_COMMON_vHandleEvents
00087924   _APP_CSHDL_eGetCradleRestrictionState
00087918   _APP_CSHDL_eGetCshdlState
00087664   _APP_CSHDL_sfInitApp
000877a0   _APP_CSHDL_vCk5050ShutDownHandled
00087694   _APP_CSHDL_vHandleEvents
0007ae1c   _APP_DEVICE_AMGetActiveSource
0007ac88   _APP_DEVICE_AM_cbReleaseCanMute
0007ac58   _APP_DEVICE_AM_cbWaitForCANAck
0007a788   _APP_DEVICE_AM_sfGetMute
0007aac8   _APP_DEVICE_AM_vHandlePASA
0007ab68   _APP_DEVICE_AM_vOnAppCshdlNotification
0007acc4   _APP_DEVICE_AM_vRadioInfoReceived
0007a958   _APP_DEVICE_AM_vReleaseMute
0007ada8   _APP_DEVICE_AM_vSetAudioMuteByWireDiag
0007aba8   _APP_DEVICE_AM_vSetCooperativeMuteDiag
0007ab94   _APP_DEVICE_AM_vSetMuteDelayDiag
0007a748   _APP_DEVICE_AudioManager_sfInitApp
00075b48   _APP_DEVICE_GetActiveServiceDeviceId
00089aec   _APP_DEVICE_GetPASAEvent
00089af8   _APP_DEVICE_InitPASAEvent
00075bd4   _APP_DEVICE_bIsDeviceType
00075cb8   _APP_DEVICE_bIsFactorySettingActive
00075cec   _APP_DEVICE_bIsMajorDevClass
00075d04   _APP_DEVICE_bIsMinorDevClass
00075cd0   _APP_DEVICE_bIsServiceClass
0005360c   _APP_DEVICE_rcActivateMdiDevice
00045354   _APP_DEVICE_rcAddHeadsetProfile
00045334   _APP_DEVICE_rcAddPlayerProfile
00045374   _APP_DEVICE_rcAddUserProfile
0007c338   _APP_DEVICE_rcBackupEeprom
0005369c   _APP_DEVICE_rcDeactivateMdiDevice
000455d8   _APP_DEVICE_rcDeleteAllProfiles
0004552c   _APP_DEVICE_rcDeleteHeadsetProfile
000454e4   _APP_DEVICE_rcDeletePlayerProfile
000454ac   _APP_DEVICE_rcDeleteUserProfile
00053560   _APP_DEVICE_rcDisconnectDevice
0007c424   _APP_DEVICE_rcResetToFactorySetting
0004542c   _APP_DEVICE_rcSaveBtName
000456f4   _APP_DEVICE_rcSetHeadsetAuthMode
00045698   _APP_DEVICE_rcSetPbCompletelyLoaded
0004575c   _APP_DEVICE_rcSetPlayerAuthMode
000457c4   _APP_DEVICE_rcSetPlayerHsName
00045920   _APP_DEVICE_rcSetRingtone
00045638   _APP_DEVICE_rcSetRingtoneAlternate
00045828   _APP_DEVICE_rcSetUserName
00045980   _APP_DEVICE_rcSetVoiceMailboxNumber
000535a0   _APP_DEVICE_rcStartRingtoneNonBlock
00053510   _APP_DEVICE_rcStopRingtoneNonBlock
000533e8   _APP_DEVICE_sfActivatePhoneDevice
00053488   _APP_DEVICE_sfDeactivatePhoneService
000755bc   _APP_DEVICE_sfInitApp
000534c8   _APP_DEVICE_sfSetAutoConnectionMode
00047328   _APP_DEVICE_u8GetAddedProfileId
00047234   _APP_DEVICE_vAddMissingPlayerProfileImplicitlyBySD
000471f8   _APP_DEVICE_vAddMissingUserProfileImplicitlyBySD
00075e68   _APP_DEVICE_vEmergencyReleaseContextFromAppSd
00089a84   _APP_DEVICE_vHandleATResponse
0007fad8   _APP_DEVICE_vHandleErmATResultEvent
0007c8fc   _APP_DEVICE_vHandleErmStateChange
00075850   _APP_DEVICE_vHandleEvents
00075d1c   _APP_DEVICE_vOnAppCshdlNotification
00075dd0   _APP_DEVICE_vOnAppPhoneBookNotification
00075d7c   _APP_DEVICE_vOnAppPhoneNotification
0007fe30   _APP_DEVICE_vOnErmNotification
00075e80   _APP_DEVICE_vSetActivatePlayerPendingFlag
00075e74   _APP_DEVICE_vSetDeactivatePlayerPendingFlag
00056768   _APP_DIAG_GetDiag_PhonebookSortOrder
00054ea0   _APP_DIAG_sfInit
00055074   _APP_DIAG_vHandleEvents
00056644   _APP_DIAG_vHandlePendingResponseFromApplication
0004fd14   _APP_DTC_bGetAudioAllowed
0004de80   _APP_DTC_sfInit
0004fca8   _APP_DTC_u8GetStatus3ButtonModule
0004fcd0   _APP_DTC_u8GetStatusAntenna
0004fc90   _APP_DTC_u8GetStatusAudioLeft
0004fc9c   _APP_DTC_u8GetStatusAudioRight
0004fcc0   _APP_DTC_u8GetStatusBaseplate
0004fcec   _APP_DTC_u8GetStatusCoding
0004fc84   _APP_DTC_u8GetStatusMikroTelefon
0004fcb4   _APP_DTC_u8GetStatusRadioMute
0004fce0   _APP_DTC_u8GetStatusTemperature
0004fcf8   _APP_DTC_u8GetStatusUBatt
0004fd04   _APP_DTC_u8GetVariantType
0004df18   _APP_DTC_vFastRampUpPinsDiagnostics
0004df00   _APP_DTC_vSlowRampUpPinsDiagnostics
0004ded8   _APP_DTC_vSoftwareDiagnostics
0004fb28   _APP_DTC_vStartupSequence
000649c8   _APP_MDI_BAP_sfInitApp
000657d8   _APP_MDI_BAP_vHandleErmNotification
000649ec   _APP_MDI_BAP_vHandleEvents
00065870   _APP_MDI_BAP_vOnAppMdiNotification
00083378   _APP_MDI_ERM_vHandleErmNotification
00083374   _APP_MDI_ERM_vHandleErmStateChange
00066ee8   _APP_MDI_GetActiveServiceDeviceId
00066ee0   _APP_MDI_GetAlbum
00066ed0   _APP_MDI_GetArtist
00066ec8   _APP_MDI_GetFileName
00066eb0   _APP_MDI_GetMetadataType
00066e8c   _APP_MDI_GetPlayStatus
00066ea4   _APP_MDI_GetRandomMode
00066ebc   _APP_MDI_GetRepeatMode
00066e98   _APP_MDI_GetSavePauseState
00066ed8   _APP_MDI_GetTitle
00066e74   _APP_MDI_GetTrackTime
00066e80   _APP_MDI_GetTrackTimePosition
00067b18   _APP_MDI_HandleDefer
00066df0   _APP_MDI_bIsInitialized
00067b98   _APP_MDI_bIsSeekingInProgress
000674cc   _APP_MDI_bMutePlayer
00066df4   _APP_MDI_bPlayerActive
00066e30   _APP_MDI_bPlayerAvailable
00066e4c   _APP_MDI_bRemoteControlAvailable
00067744   _APP_MDI_bUnlockPlayer
00067600   _APP_MDI_bUnmutePlayer
00067a60   _APP_MDI_cbDPLYResponseTimeOut
00067904   _APP_MDI_cbGetDgps
0006788c   _APP_MDI_cbGetPgmtDelayed
000831e4   _APP_MDI_cbMuteGetAck
00067778   _APP_MDI_cbPlayStateTimeout
000678c8   _APP_MDI_cbSendDPLYDelayed
00067868   _APP_MDI_cbStartupUnlockAudio
00067338   _APP_MDI_sfGetDged
0006735c   _APP_MDI_sfGetDgps
00067318   _APP_MDI_sfGetPgmt
00066c70   _APP_MDI_sfInitApp
00066cd8   _APP_MDI_sfReInitApp
00066fd4   _APP_MDI_sfSetALCKMode
00067448   _APP_MDI_sfSetAutomaticNotificationMode
000670b4   _APP_MDI_sfSetPlayMode
00067498   _APP_MDI_sfSetPlayerVisible
0006737c   _APP_MDI_sfSetRandomMode
000673d8   _APP_MDI_sfSetRepeatMode
00067294   _APP_MDI_sfSetSkip
00067058   _APP_MDI_sfVcrSetPlayMode
00067940   _APP_MDI_vDeferPlayMode
0007229c   _APP_MDI_vHandleATResponse
000832c4   _APP_MDI_vHandleErmATResultEvent
00066d40   _APP_MDI_vHandleEvents
00066fd0   _APP_MDI_vOnAppDeviceNotification
0006a870   _APP_PHONEBOOK_AT_ePhonebookStatusGet
0006e974   _APP_PHONEBOOK_BAP_sfInitApp
0006f1f8   _APP_PHONEBOOK_BAP_vDeleteSms
0006f180   _APP_PHONEBOOK_BAP_vDiagSmsSupportChanged
0006e990   _APP_PHONEBOOK_BAP_vHandleEvents
0007a16c   _APP_PHONEBOOK_BAP_vOnAppCshdlNotification
0007a234   _APP_PHONEBOOK_BAP_vOnAppDeviceNotification
0007a068   _APP_PHONEBOOK_BAP_vOnAppPBNotification
00079fb8   _APP_PHONEBOOK_BAP_vOnAppSmsNotification
0006f484   _APP_PHONEBOOK_BAP_vOnBAPDispatcherNotification
0007a158   _APP_PHONEBOOK_BAP_vOnErmNotification
00089e34   _APP_PHONEBOOK_ERM_vHandleErmStateChange
0005b270   _APP_PHONEBOOK_GetVoiceTagNumberResponse
0005b1ec   _APP_PHONEBOOK_bIsPbValid
0005b36c   _APP_PHONEBOOK_bPbUpdateInProgress
0005b35c   _APP_PHONEBOOK_bWasManualSync
0005b398   _APP_PHONEBOOK_cbPbSortingTimeout
0005b1cc   _APP_PHONEBOOK_enGetPBDwldState
0005b2dc   _APP_PHONEBOOK_pGetPbSearchResult
0005b240   _APP_PHONEBOOK_pGetPpbrContext
0005ada8   _APP_PHONEBOOK_rcRequestAddPbEntry
0005ae88   _APP_PHONEBOOK_rcRequestCallStackReset
0005aed0   _APP_PHONEBOOK_rcRequestCompletePbEntries
0005b074   _APP_PHONEBOOK_rcRequestCurrentPbSortOrder
0005ae3c   _APP_PHONEBOOK_rcRequestManualSync
0005b114   _APP_PHONEBOOK_rcRequestNumVoiceTagsForContact
0005b010   _APP_PHONEBOOK_rcRequestPbSearch
0005b0c0   _APP_PHONEBOOK_rcSetPbSortOrder
00059dbc   _APP_PHONEBOOK_sfInitApp
0005b2bc   _APP_PHONEBOOK_u16GetAddedPbIndex
0005b184   _APP_PHONEBOOK_u16GetCurrentPBSize
0005b350   _APP_PHONEBOOK_u16GetPbDlStatus
0005b2a4   _APP_PHONEBOOK_u8GetSortOrder
0006a8ac   _APP_PHONEBOOK_vHandleATResponse
00089db0   _APP_PHONEBOOK_vHandleErmATError
00089d90   _APP_PHONEBOOK_vHandleErmATOk
00059f80   _APP_PHONEBOOK_vHandleEvents
0005ad64   _APP_PHONEBOOK_vOnAppDeviceNotification
00089dd0   _APP_PHONEBOOK_vOnErmNotification
00059f6c   _APP_PHONEBOOK_vResetMissedCallsByHMI
0006c06c   _APP_PHONE_AT_PNCC_GetOutgoingCallIndex
0006c0b4   _APP_PHONE_AT_PNCC_bAllCallStatesIdle
0006bfec   _APP_PHONE_AT_PNCC_bArrayHasChanged
0006c010   _APP_PHONE_AT_PNCC_bCallInfoHasChanged
0006bf70   _APP_PHONE_AT_PNCC_pGetPlccContext
0006bf68   _APP_PHONE_AT_PNCC_pGetPnccContext
0006c14c   _APP_PHONE_AT_PNCC_u16GetNumberOfActiveCalls
0006c2d4   _APP_PHONE_AT_PNCC_u16GetNumberOfCallType
0006c184   _APP_PHONE_AT_PNCC_u16GetNumberOfCalls
0006c1e8   _APP_PHONE_AT_PNCC_u16GetNumberOfHeldCalls
0006c220   _APP_PHONE_AT_PNCC_u16GetNumberOfIncomingCalls
0006c290   _APP_PHONE_AT_PNCC_u16GetNumberOfOutgoingCalls
0006c1b0   _APP_PHONE_AT_PNCC_u16GetNumberOfTerminatedCalls
0006c258   _APP_PHONE_AT_PNCC_u16GetNumberOfWaitingCalls
0007bd90   _APP_PHONE_BAP_ERM_vHandleErmStateChange
0007c280   _APP_PHONE_BAP_bIsUserActivated
0007bc8c   _APP_PHONE_BAP_sfInitApp
0007bca8   _APP_PHONE_BAP_vHandleEvents
0007bf54   _APP_PHONE_BAP_vOnAppCshdlNotification
0007bfb4   _APP_PHONE_BAP_vOnAppDeviceNotification
0005f6ac   _APP_PHONE_BAP_vOnAppPhoneNotification
0005f7c8   _APP_PHONE_BAP_vOnBAPDispatcherNotification
0007bda4   _APP_PHONE_BAP_vOnErmNotification
000640a0   _APP_PHONE_BAP_vProcessAcceptCall
00064408   _APP_PHONE_BAP_vProcessCCJoin
00064368   _APP_PHONE_BAP_vProcessCallHold
00063f9c   _APP_PHONE_BAP_vProcessDialNumber
00064140   _APP_PHONE_BAP_vProcessHangUpCall
00064228   _APP_PHONE_BAP_vProcessMPCallHoldAcceptWaitingCall
000644a8   _APP_PHONE_BAP_vProcessMPReleaseActiveCallAcceptWaitingCall
000642c8   _APP_PHONE_BAP_vProcessMPSwap
00063efc   _APP_PHONE_BAP_vProcessResumeCall
00088418   _APP_PHONE_CAN_DATA_vOnAppPhoneNotification
00059ab8   _APP_PHONE_GetBatteryLevel
00059ad4   _APP_PHONE_GetNetworkAvailable
00059aa4   _APP_PHONE_GetNetworkProvider
00059ac4   _APP_PHONE_GetRoaming
00059aac   _APP_PHONE_GetSignalStrength
00058550   _APP_PHONE_HangUp_CallStatusChange
00059b38   _APP_PHONE_bIsCDMAPhone
00059b1c   _APP_PHONE_bIsHandsFreeOff
00059b10   _APP_PHONE_bIsHeadsetOn
00059b00   _APP_PHONE_bIsMicMuted
00059bbc   _APP_PHONE_bIsUnknownCallerId
00059a24   _APP_PHONE_bIsValidPhoneNumber
00059ae0   _APP_PHONE_bNetworkAvailable
00059af8   _APP_PHONE_bRedialNumberAvailable
00059c70   _APP_PHONE_cbOnPatrTimeout
00059c54   _APP_PHONE_cbOutgoingCallIndicationTimeout
00059b28   _APP_PHONE_enGetHfpVersion
00059464   _APP_PHONE_rcAcceptCall
00059704   _APP_PHONE_rcCallHold
000595d4   _APP_PHONE_rcCallInfo
00059748   _APP_PHONE_rcCallReplace
00059588   _APP_PHONE_rcCallState
000592a4   _APP_PHONE_rcDialNumber
00059318   _APP_PHONE_rcDialPbIndex
000593a8   _APP_PHONE_rcDialPnIndex
0005981c   _APP_PHONE_rcHandsFreeOnOff
000594a8   _APP_PHONE_rcHangUp
000594f0   _APP_PHONE_rcHangUpAll
000597d4   _APP_PHONE_rcHeadsetOnOff
00059928   _APP_PHONE_rcJoinToConference
00059890   _APP_PHONE_rcMicroMuteOnOff
00059540   _APP_PHONE_rcPhoneStatus
000596c0   _APP_PHONE_rcPlpdRequest
00059970   _APP_PHONE_rcPutCallsThrough
000593fc   _APP_PHONE_rcRedial
00059790   _APP_PHONE_rcResumeCall
00059624   _APP_PHONE_rcSendDTMF
00059370   _APP_PHONE_rcSilentRinging
000599b8   _APP_PHONE_rcSplitCallFromConference
000598e0   _APP_PHONE_rcSwitchCalls
00059a00   _APP_PHONE_rcToggleMicMute
000583a4   _APP_PHONE_sfInitApp
00058370   _APP_PHONE_u16MissedCalls
0005837c   _APP_PHONE_u16MissedNumbers
000585bc   _APP_PHONE_vCbMicMute
00085fa0   _APP_PHONE_vHandleATResponse
00074d3c   _APP_PHONE_vHandleErmATErrorEvent
00074d1c   _APP_PHONE_vHandleErmATOkEvent
00074d5c   _APP_PHONE_vHandleErmStateChange
00058600   _APP_PHONE_vHandleEvents
00059b48   _APP_PHONE_vOnAppCshdlNotification
00059b9c   _APP_PHONE_vOnAppDeviceNotification
00074d6c   _APP_PHONE_vOnErmNotification
00075010   _APP_PHONE_vResetHangUpAllCallsRetries
00058388   _APP_PHONE_vResetMissedCalls
000771b0   _APP_SD_LC_bDataNeed
00077380   _APP_SD_LC_sfSendListFrame
000775ac   _APP_SD_LC_sfSetSelectedIndex
0007708c   _APP_SD_LC_u16GetElemsLeft
000770ec   _APP_SD_LC_u16GetNextListIndex
0007757c   _APP_SD_LC_u16GetSelectedIndex
0007705c   _APP_SD_LC_u16GetStartIndex
00077258   _APP_SD_LC_vButtonUpDown
00077114   _APP_SD_LC_vRequestData
00077228   _APP_SD_LC_vScrollUpDown
0007db70   _APP_SD_SC_bGetLastSpelledChar
0007d894   _APP_SD_SC_vButtonOk
0007d7c4   _APP_SD_SC_vButtonUpDown
0007d704   _APP_SD_SC_vInitSpeller
0007d9b8   _APP_SD_SC_vReadSelectionText
0007db54   _APP_SD_SC_vReadSpelledText
0007d75c   _APP_SD_SC_vSetDefaultCtrlSelection
0007d74c   _APP_SD_SC_vSetSpellLimit
0007d778   _APP_SD_SC_vSetSpelledText
000bae94   _APP_SD_a2stStaticTextLens
000b1694   _APP_SD_a2stStaticTexts
00090158   _APP_SD_aStaticMailboxKeywords
000aa1b0   _APP_SD_au8CanadianFrench_call_head_register
000aa26c   _APP_SD_au8CanadianFrench_head_audio_mode
000aa3e4   _APP_SD_au8CanadianFrench_head_bluetooth
000aa5bc   _APP_SD_au8CanadianFrench_head_device_list
000aa610   _APP_SD_au8CanadianFrench_head_headset
000aa9f0   _APP_SD_au8CanadianFrench_head_messages
000aa488   _APP_SD_au8CanadianFrench_head_settings
000aa2b8   _APP_SD_au8CanadianFrench_head_user
000aaa78   _APP_SD_au8CanadianFrench_new_sms
000aa564   _APP_SD_au8CanadianFrench_paired_head_devices
000aa628   _APP_SD_au8CanadianFrench_ta_always
000aa260   _APP_SD_au8CanadianFrench_ta_audio_mode
000aacc4   _APP_SD_au8CanadianFrench_ta_backspace
000aaf84   _APP_SD_au8CanadianFrench_ta_bt_accessory
000aa03c   _APP_SD_au8CanadianFrench_ta_bt_active_device
000aaeb4   _APP_SD_au8CanadianFrench_ta_bt_disconnect
000aa604   _APP_SD_au8CanadianFrench_ta_bt_headset
000aa3f0   _APP_SD_au8CanadianFrench_ta_bt_no_conn_headset
000aae7c   _APP_SD_au8CanadianFrench_ta_bt_own_name
000aa554   _APP_SD_au8CanadianFrench_ta_bt_paired_devices
000aaec0   _APP_SD_au8CanadianFrench_ta_bt_rename
000aac48   _APP_SD_au8CanadianFrench_ta_bt_visibility
000aa0e8   _APP_SD_au8CanadianFrench_ta_call_accept
000aa134   _APP_SD_au8CanadianFrench_ta_call_call1
000aa144   _APP_SD_au8CanadianFrench_ta_call_call2
000a9f9c   _APP_SD_au8CanadianFrench_ta_call_diverted
000aa46c   _APP_SD_au8CanadianFrench_ta_call_dtmf
000aa278   _APP_SD_au8CanadianFrench_ta_call_end
000aa5dc   _APP_SD_au8CanadianFrench_ta_call_end_active
000aa0b4   _APP_SD_au8CanadianFrench_ta_call_end_all
000aa4a4   _APP_SD_au8CanadianFrench_ta_call_handsfree
000aa5f8   _APP_SD_au8CanadianFrench_ta_call_hold
000aa630   _APP_SD_au8CanadianFrench_ta_call_info
000aa958   _APP_SD_au8CanadianFrench_ta_call_micro_off
000aa968   _APP_SD_au8CanadianFrench_ta_call_micro_on
000a9fc4   _APP_SD_au8CanadianFrench_ta_call_reject
000aa04c   _APP_SD_au8CanadianFrench_ta_call_resume
000aab30   _APP_SD_au8CanadianFrench_ta_call_service
000aa878   _APP_SD_au8CanadianFrench_ta_call_silent
000aab40   _APP_SD_au8CanadianFrench_ta_call_sos
000aa92c   _APP_SD_au8CanadianFrench_ta_call_swap
000aa7ec   _APP_SD_au8CanadianFrench_ta_call_waiting
000aab1c   _APP_SD_au8CanadianFrench_ta_calls_only
000aa838   _APP_SD_au8CanadianFrench_ta_conference
000ab124   _APP_SD_au8CanadianFrench_ta_confirm_pw_in_device
000ab108   _APP_SD_au8CanadianFrench_ta_confirm_pw_with_OK
000aaed0   _APP_SD_au8CanadianFrench_ta_connect
000aa460   _APP_SD_au8CanadianFrench_ta_date_value
000aa5ec   _APP_SD_au8CanadianFrench_ta_disconnected
000aa154   _APP_SD_au8CanadianFrench_ta_end_call
000aa858   _APP_SD_au8CanadianFrench_ta_err_load_phonebook
000bfbf4   _APP_SD_au8CanadianFrench_ta_find_mailbox_1
000bfc08   _APP_SD_au8CanadianFrench_ta_find_mailbox_2
000aa4b0   _APP_SD_au8CanadianFrench_ta_function_restriction
000aa028   _APP_SD_au8CanadianFrench_ta_head_active_tone
000aa124   _APP_SD_au8CanadianFrench_ta_head_call
000aa13c   _APP_SD_au8CanadianFrench_ta_head_call1
000aa14c   _APP_SD_au8CanadianFrench_ta_head_call2
000aa01c   _APP_SD_au8CanadianFrench_ta_head_call_active
000aa160   _APP_SD_au8CanadianFrench_ta_head_call_hold
000aabc0   _APP_SD_au8CanadianFrench_ta_head_call_setup
000aa180   _APP_SD_au8CanadianFrench_ta_head_call_waiting
000aa190   _APP_SD_au8CanadianFrench_ta_head_calls
000aa7fc   _APP_SD_au8CanadianFrench_ta_head_conference
000aa808   _APP_SD_au8CanadianFrench_ta_head_conference_hold
000aa450   _APP_SD_au8CanadianFrench_ta_head_datacall
000aa2c4   _APP_SD_au8CanadianFrench_ta_head_delete_user
000aab04   _APP_SD_au8CanadianFrench_ta_head_dial_nbr
000aa470   _APP_SD_au8CanadianFrench_ta_head_dtmf
000aa494   _APP_SD_au8CanadianFrench_ta_head_faxcall
000aa12c   _APP_SD_au8CanadianFrench_ta_head_incoming_call
000aad10   _APP_SD_au8CanadianFrench_ta_head_mailbox
000aa944   _APP_SD_au8CanadianFrench_ta_head_media_player
000aa1dc   _APP_SD_au8CanadianFrench_ta_head_nametag
000aabf0   _APP_SD_au8CanadianFrench_ta_head_number
000aa29c   _APP_SD_au8CanadianFrench_ta_head_options
000aab54   _APP_SD_au8CanadianFrench_ta_head_passkey
000aad4c   _APP_SD_au8CanadianFrench_ta_head_phone
000aadd0   _APP_SD_au8CanadianFrench_ta_head_phone_book
000aae8c   _APP_SD_au8CanadianFrench_ta_head_phone_name
000aabac   _APP_SD_au8CanadianFrench_ta_head_private_call
000aa224   _APP_SD_au8CanadianFrench_ta_head_reset_voice_tag
000aac78   _APP_SD_au8CanadianFrench_ta_head_setting_signals
000aa978   _APP_SD_au8CanadianFrench_ta_head_sms
000aa9c8   _APP_SD_au8CanadianFrench_ta_head_sms_from
000aac88   _APP_SD_au8CanadianFrench_ta_head_sorting_order
000aa884   _APP_SD_au8CanadianFrench_ta_head_stack_dialled
000aa104   _APP_SD_au8CanadianFrench_ta_head_stack_missed
000aa0f4   _APP_SD_au8CanadianFrench_ta_head_stack_received
000aa2f8   _APP_SD_au8CanadianFrench_ta_head_user
000aafa8   _APP_SD_au8CanadianFrench_ta_help_text
000ab0e0   _APP_SD_au8CanadianFrench_ta_list_back
000aa3d8   _APP_SD_au8CanadianFrench_ta_main_bluetooth
000aa1a0   _APP_SD_au8CanadianFrench_ta_main_callstacks
000aab10   _APP_SD_au8CanadianFrench_ta_main_dial
000aad00   _APP_SD_au8CanadianFrench_ta_main_mailbox
000aa954   _APP_SD_au8CanadianFrench_ta_main_menu
000aa9e8   _APP_SD_au8CanadianFrench_ta_main_messages
000aa47c   _APP_SD_au8CanadianFrench_ta_main_settings
000aa934   _APP_SD_au8CanadianFrench_ta_media_player
000aa624   _APP_SD_au8CanadianFrench_ta_menu_bt_help
000aa198   _APP_SD_au8CanadianFrench_ta_menu_call
000a9fbc   _APP_SD_au8CanadianFrench_ta_menu_cancel
000aa8b4   _APP_SD_au8CanadianFrench_ta_menu_delete
000aa2a4   _APP_SD_au8CanadianFrench_ta_menu_end
000aaaa4   _APP_SD_au8CanadianFrench_ta_menu_new_user
000aa78c   _APP_SD_au8CanadianFrench_ta_menu_no_nbr
000aab2c   _APP_SD_au8CanadianFrench_ta_menu_ok
000aacb8   _APP_SD_au8CanadianFrench_ta_menu_save
000aa248   _APP_SD_au8CanadianFrench_ta_menu_show
000aa2ac   _APP_SD_au8CanadianFrench_ta_menu_user
000aaf7c   _APP_SD_au8CanadianFrench_ta_menu_view
000aa09c   _APP_SD_au8CanadianFrench_ta_music_paused
000aa7c8   _APP_SD_au8CanadianFrench_ta_no_media_player_found
000aaf34   _APP_SD_au8CanadianFrench_ta_note_bt_acc_conn
000aa41c   _APP_SD_au8CanadianFrench_ta_note_bt_conn_impos
000aaf10   _APP_SD_au8CanadianFrench_ta_note_bt_conn_setup
000aaefc   _APP_SD_au8CanadianFrench_ta_note_bt_no_conn
000aa0d0   _APP_SD_au8CanadianFrench_ta_note_bt_passkey_err
000aadf8   _APP_SD_au8CanadianFrench_ta_note_call_estab_failed
000aa820   _APP_SD_au8CanadianFrench_ta_note_conf_not_poss
000aaa84   _APP_SD_au8CanadianFrench_ta_note_conn_err
000aaef0   _APP_SD_au8CanadianFrench_ta_note_conn_terminated
000aaf24   _APP_SD_au8CanadianFrench_ta_note_connected
000aab88   _APP_SD_au8CanadianFrench_ta_note_connecting_player
000aa844   _APP_SD_au8CanadianFrench_ta_note_copy_sms_failed
000aa8e0   _APP_SD_au8CanadianFrench_ta_note_delete_impos_phone_active
000aa5a4   _APP_SD_au8CanadianFrench_ta_note_deleted
000aad58   _APP_SD_au8CanadianFrench_ta_note_enter_cradle
000aa3b0   _APP_SD_au8CanadianFrench_ta_note_enter_number
000a9fcc   _APP_SD_au8CanadianFrench_ta_note_ignition
000aa4f0   _APP_SD_au8CanadianFrench_ta_note_info_call
000aabd0   _APP_SD_au8CanadianFrench_ta_note_invalid_number
000aa7a4   _APP_SD_au8CanadianFrench_ta_note_mailbox_no
000aa348   _APP_SD_au8CanadianFrench_ta_note_max_users
000aa170   _APP_SD_au8CanadianFrench_ta_note_missed_call
000aaa44   _APP_SD_au8CanadianFrench_ta_note_name_exists
000aaa58   _APP_SD_au8CanadianFrench_ta_note_name_stored
000aaa68   _APP_SD_au8CanadianFrench_ta_note_network_busy
000aaad4   _APP_SD_au8CanadianFrench_ta_note_new_pb_available
000aaab8   _APP_SD_au8CanadianFrench_ta_note_new_phone_found
000aaa94   _APP_SD_au8CanadianFrench_ta_note_new_sms
000aa324   _APP_SD_au8CanadianFrench_ta_note_new_user
000aa6d4   _APP_SD_au8CanadianFrench_ta_note_no_accessory
000aa694   _APP_SD_au8CanadianFrench_ta_note_no_act_device
000aa6e8   _APP_SD_au8CanadianFrench_ta_note_no_bt_conn_acc
000aa708   _APP_SD_au8CanadianFrench_ta_note_no_bt_conn_rsap
000aa674   _APP_SD_au8CanadianFrench_ta_note_no_bt_phone
000aa734   _APP_SD_au8CanadianFrench_ta_note_no_entries
000aa794   _APP_SD_au8CanadianFrench_ta_note_no_nbr
000aa77c   _APP_SD_au8CanadianFrench_ta_note_no_network
000aa74c   _APP_SD_au8CanadianFrench_ta_note_no_paired_dev
000aa6ac   _APP_SD_au8CanadianFrench_ta_note_no_phone
000aa9f8   _APP_SD_au8CanadianFrench_ta_note_no_rsap
000aa764   _APP_SD_au8CanadianFrench_ta_note_no_sms
000aa640   _APP_SD_au8CanadianFrench_ta_note_no_user
000aa378   _APP_SD_au8CanadianFrench_ta_note_number_busy
000aadd8   _APP_SD_au8CanadianFrench_ta_note_pb_load_error
000aae64   _APP_SD_au8CanadianFrench_ta_note_pb_loading_all
000aae1c   _APP_SD_au8CanadianFrench_ta_note_pb_not_complete
000aad2c   _APP_SD_au8CanadianFrench_ta_note_pb_refresh_impos
000aae3c   _APP_SD_au8CanadianFrench_ta_note_pbook_loading
000aad94   _APP_SD_au8CanadianFrench_ta_note_phone_initiated
000aa1f4   _APP_SD_au8CanadianFrench_ta_note_read_voice_tag
000aa9d4   _APP_SD_au8CanadianFrench_ta_note_reading_sms
000aaa1c   _APP_SD_au8CanadianFrench_ta_note_search_phones
000aa2dc   _APP_SD_au8CanadianFrench_ta_note_search_user
000aab64   _APP_SD_au8CanadianFrench_ta_note_searching_players
000aa520   _APP_SD_au8CanadianFrench_ta_note_service_call
000aac2c   _APP_SD_au8CanadianFrench_ta_note_service_not_supp
000aa980   _APP_SD_au8CanadianFrench_ta_note_sms_deleted
000aa990   _APP_SD_au8CanadianFrench_ta_note_sms_no_read
000aa8c0   _APP_SD_au8CanadianFrench_ta_note_sms_not_deleted
000aa574   _APP_SD_au8CanadianFrench_ta_note_sos_call
000aa1c0   _APP_SD_au8CanadianFrench_ta_note_stacks_cleared
000aac90   _APP_SD_au8CanadianFrench_ta_note_tag_no_memory
000aa364   _APP_SD_au8CanadianFrench_ta_note_user_connected
000aa5b0   _APP_SD_au8CanadianFrench_ta_note_user_deleted
000aa380   _APP_SD_au8CanadianFrench_ta_note_user_not_created
000aa4d8   _APP_SD_au8CanadianFrench_ta_note_visible
000aace8   _APP_SD_au8CanadianFrench_ta_note_voice_active
000aacd0   _APP_SD_au8CanadianFrench_ta_note_voice_not_ready
000aa208   _APP_SD_au8CanadianFrench_ta_note_voice_tag_reset
000aaf60   _APP_SD_au8CanadianFrench_ta_note_wait_reply
000aaafc   _APP_SD_au8CanadianFrench_ta_number
000aa290   _APP_SD_au8CanadianFrench_ta_off
000aa474   _APP_SD_au8CanadianFrench_ta_on
000aa054   _APP_SD_au8CanadianFrench_ta_pb_download
000aa1e8   _APP_SD_au8CanadianFrench_ta_pb_nametag
000aaf58   _APP_SD_au8CanadianFrench_ta_pb_sort_firstname
000aaa40   _APP_SD_au8CanadianFrench_ta_pb_sort_lastname
000aadc8   _APP_SD_au8CanadianFrench_ta_phone_book
000ab0e8   _APP_SD_au8CanadianFrench_ta_phone_no_answer
000aaea0   _APP_SD_au8CanadianFrench_ta_phone_search
000aaba0   _APP_SD_au8CanadianFrench_ta_private_call
000aaedc   _APP_SD_au8CanadianFrench_ta_query_connect
000a9ffc   _APP_SD_au8CanadianFrench_ta_query_del_act_device
000aa00c   _APP_SD_au8CanadianFrench_ta_query_del_act_user
000aa914   _APP_SD_au8CanadianFrench_ta_query_del_device
000aa080   _APP_SD_au8CanadianFrench_ta_query_delete_log
000aa9b4   _APP_SD_au8CanadianFrench_ta_query_delete_sms
000aa920   _APP_SD_au8CanadianFrench_ta_query_delete_user
000aa308   _APP_SD_au8CanadianFrench_ta_query_new_user
000aa064   _APP_SD_au8CanadianFrench_ta_query_terminate_conn
000aac54   _APP_SD_au8CanadianFrench_ta_query_visibility
000aaf50   _APP_SD_au8CanadianFrench_ta_read_out_sms
000aa5d0   _APP_SD_au8CanadianFrench_ta_replace
000aad20   _APP_SD_au8CanadianFrench_ta_search
000aac68   _APP_SD_au8CanadianFrench_ta_setting_signals
000aabfc   _APP_SD_au8CanadianFrench_ta_setting_tone
000aabb8   _APP_SD_au8CanadianFrench_ta_sms_call
000aac04   _APP_SD_au8CanadianFrench_ta_sms_concatenated
000aac1c   _APP_SD_au8CanadianFrench_ta_sms_time
000aac8c   _APP_SD_au8CanadianFrench_ta_sorting_order
000aa8a4   _APP_SD_au8CanadianFrench_ta_stack_clear
000aa894   _APP_SD_au8CanadianFrench_ta_stack_dialled
000aa114   _APP_SD_au8CanadianFrench_ta_stack_missed
000aa0c0   _APP_SD_au8CanadianFrench_ta_stack_received
000aaaf0   _APP_SD_au8CanadianFrench_ta_supp_not_possible
000aa240   _APP_SD_au8CanadianFrench_ta_sw_info
000aaec8   _APP_SD_au8CanadianFrench_ta_switch
000aaf74   _APP_SD_au8CanadianFrench_ta_tag_play
000aa284   _APP_SD_au8CanadianFrench_ta_tag_record
000a9f7c   _APP_SD_au8CanadianFrench_ta_time_am
000aa448   _APP_SD_au8CanadianFrench_ta_time_format
000a9f8c   _APP_SD_au8CanadianFrench_ta_time_pm
000a9fac   _APP_SD_au8CanadianFrench_ta_time_standard
000aa61c   _APP_SD_au8CanadianFrench_ta_time_value
000aa250   _APP_SD_au8CanadianFrench_ta_voice_tag_reset
000aaf8c   _APP_SD_au8CanadianFrench_ta_wait_bt_acc_search
000aa39c   _APP_SD_au8CanadianFrench_ta_wait_general
0009fd00   _APP_SD_au8Common_Error
000a1f3c   _APP_SD_au8Czech_call_head_register
000a1ff8   _APP_SD_au8Czech_head_audio_mode
000a2164   _APP_SD_au8Czech_head_bluetooth
000a2368   _APP_SD_au8Czech_head_device_list
000a23b0   _APP_SD_au8Czech_head_headset
000a27f4   _APP_SD_au8Czech_head_messages
000a2210   _APP_SD_au8Czech_head_settings
000a2044   _APP_SD_au8Czech_head_user
000a28a4   _APP_SD_au8Czech_new_sms
000a2300   _APP_SD_au8Czech_paired_head_devices
000a23cc   _APP_SD_au8Czech_ta_always
000a1fec   _APP_SD_au8Czech_ta_audio_mode
000a2b24   _APP_SD_au8Czech_ta_backspace
000a2dcc   _APP_SD_au8Czech_ta_bt_accessory
000a1dac   _APP_SD_au8Czech_ta_bt_active_device
000a2d00   _APP_SD_au8Czech_ta_bt_disconnect
000a23a8   _APP_SD_au8Czech_ta_bt_headset
000a2170   _APP_SD_au8Czech_ta_bt_no_conn_headset
000a2cd0   _APP_SD_au8Czech_ta_bt_own_name
000a22ec   _APP_SD_au8Czech_ta_bt_paired_devices
000a2d08   _APP_SD_au8Czech_ta_bt_rename
000a2aa4   _APP_SD_au8Czech_ta_bt_visibility
000a1e68   _APP_SD_au8Czech_ta_call_accept
000a1eb4   _APP_SD_au8Czech_ta_call_call1
000a1ec4   _APP_SD_au8Czech_ta_call_call2
000a1cfc   _APP_SD_au8Czech_ta_call_diverted
000a21f4   _APP_SD_au8Czech_ta_call_dtmf
000a2008   _APP_SD_au8Czech_ta_call_end
000a2384   _APP_SD_au8Czech_ta_call_end_active
000a1e2c   _APP_SD_au8Czech_ta_call_end_all
000a222c   _APP_SD_au8Czech_ta_call_handsfree
000a239c   _APP_SD_au8Czech_ta_call_hold
000a23d4   _APP_SD_au8Czech_ta_call_info
000a275c   _APP_SD_au8Czech_ta_call_micro_off
000a276c   _APP_SD_au8Czech_ta_call_micro_on
000a1d28   _APP_SD_au8Czech_ta_call_reject
000a1dc0   _APP_SD_au8Czech_ta_call_resume
000a2968   _APP_SD_au8Czech_ta_call_service
000a267c   _APP_SD_au8Czech_ta_call_silent
000a297c   _APP_SD_au8Czech_ta_call_sos
000a2720   _APP_SD_au8Czech_ta_call_swap
000a25d8   _APP_SD_au8Czech_ta_call_waiting
000a2954   _APP_SD_au8Czech_ta_calls_only
000a262c   _APP_SD_au8Czech_ta_conference
000a2f2c   _APP_SD_au8Czech_ta_confirm_pw_in_device
000a2f18   _APP_SD_au8Czech_ta_confirm_pw_with_OK
000a2d20   _APP_SD_au8Czech_ta_connect
000a21e8   _APP_SD_au8Czech_ta_date_value
000a2394   _APP_SD_au8Czech_ta_disconnected
000a1ed4   _APP_SD_au8Czech_ta_end_call
000a265c   _APP_SD_au8Czech_ta_err_load_phonebook
000bfb00   _APP_SD_au8Czech_ta_find_mailbox_1
000bfb14   _APP_SD_au8Czech_ta_find_mailbox_2
000bfb24   _APP_SD_au8Czech_ta_find_mailbox_3
000bfb30   _APP_SD_au8Czech_ta_find_mailbox_4
000bfb38   _APP_SD_au8Czech_ta_find_mailbox_5
000a2238   _APP_SD_au8Czech_ta_function_restriction
000a1d9c   _APP_SD_au8Czech_ta_head_active_tone
000a1ea4   _APP_SD_au8Czech_ta_head_call
000a1ebc   _APP_SD_au8Czech_ta_head_call1
000a1ecc   _APP_SD_au8Czech_ta_head_call2
000a1d8c   _APP_SD_au8Czech_ta_head_call_active
000a1ee4   _APP_SD_au8Czech_ta_head_call_hold
000a2a14   _APP_SD_au8Czech_ta_head_call_setup
000a1f08   _APP_SD_au8Czech_ta_head_call_waiting
000a1f1c   _APP_SD_au8Czech_ta_head_calls
000a25e0   _APP_SD_au8Czech_ta_head_conference
000a25ec   _APP_SD_au8Czech_ta_head_conference_hold
000a21d8   _APP_SD_au8Czech_ta_head_datacall
000a2050   _APP_SD_au8Czech_ta_head_delete_user
000a2934   _APP_SD_au8Czech_ta_head_dial_nbr
000a21f8   _APP_SD_au8Czech_ta_head_dtmf
000a221c   _APP_SD_au8Czech_ta_head_faxcall
000a1eac   _APP_SD_au8Czech_ta_head_incoming_call
000a2b88   _APP_SD_au8Czech_ta_head_mailbox
000a2740   _APP_SD_au8Czech_ta_head_media_player
000a1f64   _APP_SD_au8Czech_ta_head_nametag
000a2a44   _APP_SD_au8Czech_ta_head_number
000a2028   _APP_SD_au8Czech_ta_head_options
000a298c   _APP_SD_au8Czech_ta_head_passkey
000a2bcc   _APP_SD_au8Czech_ta_head_phone
000a2c24   _APP_SD_au8Czech_ta_head_phone_book
000a2ce0   _APP_SD_au8Czech_ta_head_phone_name
000a29f0   _APP_SD_au8Czech_ta_head_private_call
000a1fbc   _APP_SD_au8Czech_ta_head_reset_voice_tag
000a2ad8   _APP_SD_au8Czech_ta_head_setting_signals
000a277c   _APP_SD_au8Czech_ta_head_sms
000a27bc   _APP_SD_au8Czech_ta_head_sms_from
000a2aec   _APP_SD_au8Czech_ta_head_sorting_order
000a268c   _APP_SD_au8Czech_ta_head_stack_dialled
000a1e84   _APP_SD_au8Czech_ta_head_stack_missed
000a1e74   _APP_SD_au8Czech_ta_head_stack_received
000a207c   _APP_SD_au8Czech_ta_head_user
000a2dfc   _APP_SD_au8Czech_ta_help_text
000a2ef4   _APP_SD_au8Czech_ta_list_back
000a2158   _APP_SD_au8Czech_ta_main_bluetooth
000a1f2c   _APP_SD_au8Czech_ta_main_callstacks
000a2944   _APP_SD_au8Czech_ta_main_dial
000a2b78   _APP_SD_au8Czech_ta_main_mailbox
000a2754   _APP_SD_au8Czech_ta_main_menu
000a27e4   _APP_SD_au8Czech_ta_main_messages
000a2204   _APP_SD_au8Czech_ta_main_settings
000a2730   _APP_SD_au8Czech_ta_media_player
000a23c0   _APP_SD_au8Czech_ta_menu_bt_help
000a1f24   _APP_SD_au8Czech_ta_menu_call
000a1d20   _APP_SD_au8Czech_ta_menu_cancel
000a26b8   _APP_SD_au8Czech_ta_menu_delete
000a2030   _APP_SD_au8Czech_ta_menu_end
000a28d4   _APP_SD_au8Czech_ta_menu_new_user
000a2558   _APP_SD_au8Czech_ta_menu_no_nbr
000a2964   _APP_SD_au8Czech_ta_menu_ok
000a2b1c   _APP_SD_au8Czech_ta_menu_save
000a1fdc   _APP_SD_au8Czech_ta_menu_show
000a2038   _APP_SD_au8Czech_ta_menu_user
000a2dc4   _APP_SD_au8Czech_ta_menu_view
000a1e0c   _APP_SD_au8Czech_ta_music_paused
000a25a4   _APP_SD_au8Czech_ta_no_media_player_found
000a2d70   _APP_SD_au8Czech_ta_note_bt_acc_conn
000a21a0   _APP_SD_au8Czech_ta_note_bt_conn_impos
000a2d54   _APP_SD_au8Czech_ta_note_bt_conn_setup
000a2d3c   _APP_SD_au8Czech_ta_note_bt_no_conn
000a1e4c   _APP_SD_au8Czech_ta_note_bt_passkey_err
000a2c50   _APP_SD_au8Czech_ta_note_call_estab_failed
000a260c   _APP_SD_au8Czech_ta_note_conf_not_poss
000a28b0   _APP_SD_au8Czech_ta_note_conn_err
000a2d34   _APP_SD_au8Czech_ta_note_conn_terminated
000a2d64   _APP_SD_au8Czech_ta_note_connected
000a29c4   _APP_SD_au8Czech_ta_note_connecting_player
000a2638   _APP_SD_au8Czech_ta_note_copy_sms_failed
000a26d4   _APP_SD_au8Czech_ta_note_delete_impos_phone_active
000a2354   _APP_SD_au8Czech_ta_note_deleted
000a2bd4   _APP_SD_au8Czech_ta_note_enter_cradle
000a2140   _APP_SD_au8Czech_ta_note_enter_number
000a1d34   _APP_SD_au8Czech_ta_note_ignition
000a2284   _APP_SD_au8Czech_ta_note_info_call
000a2a28   _APP_SD_au8Czech_ta_note_invalid_number
000a2574   _APP_SD_au8Czech_ta_note_mailbox_no
000a20c0   _APP_SD_au8Czech_ta_note_max_users
000a1ef8   _APP_SD_au8Czech_ta_note_missed_call
000a2868   _APP_SD_au8Czech_ta_note_name_exists
000a287c   _APP_SD_au8Czech_ta_note_name_stored
000a2890   _APP_SD_au8Czech_ta_note_network_busy
000a28f8   _APP_SD_au8Czech_ta_note_new_pb_available
000a28e4   _APP_SD_au8Czech_ta_note_new_phone_found
000a28bc   _APP_SD_au8Czech_ta_note_new_sms
000a20a0   _APP_SD_au8Czech_ta_note_new_user
000a2480   _APP_SD_au8Czech_ta_note_no_accessory
000a2434   _APP_SD_au8Czech_ta_note_no_act_device
000a249c   _APP_SD_au8Czech_ta_note_no_bt_conn_acc
000a24bc   _APP_SD_au8Czech_ta_note_no_bt_conn_rsap
000a2418   _APP_SD_au8Czech_ta_note_no_bt_phone
000a24e4   _APP_SD_au8Czech_ta_note_no_entries
000a2564   _APP_SD_au8Czech_ta_note_no_nbr
000a2548   _APP_SD_au8Czech_ta_note_no_network
000a2508   _APP_SD_au8Czech_ta_note_no_paired_dev
000a2450   _APP_SD_au8Czech_ta_note_no_phone
000a2804   _APP_SD_au8Czech_ta_note_no_rsap
000a2528   _APP_SD_au8Czech_ta_note_no_sms
000a23e4   _APP_SD_au8Czech_ta_note_no_user
000a2100   _APP_SD_au8Czech_ta_note_number_busy
000a2c30   _APP_SD_au8Czech_ta_note_pb_load_error
000a2cb4   _APP_SD_au8Czech_ta_note_pb_loading_all
000a2c68   _APP_SD_au8Czech_ta_note_pb_not_complete
000a2ba0   _APP_SD_au8Czech_ta_note_pb_refresh_impos
000a2c90   _APP_SD_au8Czech_ta_note_pbook_loading
000a2bf0   _APP_SD_au8Czech_ta_note_phone_initiated
000a1f84   _APP_SD_au8Czech_ta_note_read_voice_tag
000a27c8   _APP_SD_au8Czech_ta_note_reading_sms
000a2828   _APP_SD_au8Czech_ta_note_search_phones
000a2064   _APP_SD_au8Czech_ta_note_search_user
000a2994   _APP_SD_au8Czech_ta_note_searching_players
000a22b8   _APP_SD_au8Czech_ta_note_service_call
000a2a88   _APP_SD_au8Czech_ta_note_service_not_supp
000a2784   _APP_SD_au8Czech_ta_note_sms_deleted
000a2794   _APP_SD_au8Czech_ta_note_sms_no_read
000a26c0   _APP_SD_au8Czech_ta_note_sms_not_deleted
000a2314   _APP_SD_au8Czech_ta_note_sos_call
000a1f4c   _APP_SD_au8Czech_ta_note_stacks_cleared
000a2afc   _APP_SD_au8Czech_ta_note_tag_no_memory
000a20e4   _APP_SD_au8Czech_ta_note_user_connected
000a235c   _APP_SD_au8Czech_ta_note_user_deleted
000a2108   _APP_SD_au8Czech_ta_note_user_not_created
000a2264   _APP_SD_au8Czech_ta_note_visible
000a2b5c   _APP_SD_au8Czech_ta_note_voice_active
000a2b30   _APP_SD_au8Czech_ta_note_voice_not_ready
000a1fa4   _APP_SD_au8Czech_ta_note_voice_tag_reset
000a2da0   _APP_SD_au8Czech_ta_note_wait_reply
000a292c   _APP_SD_au8Czech_ta_number
000a2020   _APP_SD_au8Czech_ta_off
000a21fc   _APP_SD_au8Czech_ta_on
000a1dcc   _APP_SD_au8Czech_ta_pb_download
000a1f74   _APP_SD_au8Czech_ta_pb_nametag
000a2d98   _APP_SD_au8Czech_ta_pb_sort_firstname
000a285c   _APP_SD_au8Czech_ta_pb_sort_lastname
000a2c18   _APP_SD_au8Czech_ta_phone_book
000a2efc   _APP_SD_au8Czech_ta_phone_no_answer
000a2cf0   _APP_SD_au8Czech_ta_phone_search
000a29e0   _APP_SD_au8Czech_ta_private_call
000a2d28   _APP_SD_au8Czech_ta_query_connect
000a1d64   _APP_SD_au8Czech_ta_query_del_act_device
000a1d78   _APP_SD_au8Czech_ta_query_del_act_user
000a270c   _APP_SD_au8Czech_ta_query_del_device
000a1df4   _APP_SD_au8Czech_ta_query_delete_log
000a27ac   _APP_SD_au8Czech_ta_query_delete_sms
000a2714   _APP_SD_au8Czech_ta_query_delete_user
000a2088   _APP_SD_au8Czech_ta_query_new_user
000a1dd8   _APP_SD_au8Czech_ta_query_terminate_conn
000a2ab0   _APP_SD_au8Czech_ta_query_visibility
000a2d8c   _APP_SD_au8Czech_ta_read_out_sms
000a237c   _APP_SD_au8Czech_ta_replace
000a2b98   _APP_SD_au8Czech_ta_search
000a2ac4   _APP_SD_au8Czech_ta_setting_signals
000a2a4c   _APP_SD_au8Czech_ta_setting_tone
000a2a00   _APP_SD_au8Czech_ta_sms_call
000a2a60   _APP_SD_au8Czech_ta_sms_concatenated
000a2a78   _APP_SD_au8Czech_ta_sms_time
000a2af4   _APP_SD_au8Czech_ta_sorting_order
000a26ac   _APP_SD_au8Czech_ta_stack_clear
000a269c   _APP_SD_au8Czech_ta_stack_dialled
000a1e94   _APP_SD_au8Czech_ta_stack_missed
000a1e3c   _APP_SD_au8Czech_ta_stack_received
000a291c   _APP_SD_au8Czech_ta_supp_not_possible
000a1fd4   _APP_SD_au8Czech_ta_sw_info
000a2d14   _APP_SD_au8Czech_ta_switch
000a2db8   _APP_SD_au8Czech_ta_tag_play
000a2018   _APP_SD_au8Czech_ta_tag_record
000a1cdc   _APP_SD_au8Czech_ta_time_am
000a21d0   _APP_SD_au8Czech_ta_time_format
000a1cec   _APP_SD_au8Czech_ta_time_pm
000a1d10   _APP_SD_au8Czech_ta_time_standard
000a23b8   _APP_SD_au8Czech_ta_time_value
000a1fe4   _APP_SD_au8Czech_ta_voice_tag_reset
000a2dd4   _APP_SD_au8Czech_ta_wait_bt_acc_search
000a212c   _APP_SD_au8Czech_ta_wait_general
000ab380   _APP_SD_au8Dutch_call_head_register
000ab414   _APP_SD_au8Dutch_head_audio_mode
000ab568   _APP_SD_au8Dutch_head_bluetooth
000ab71c   _APP_SD_au8Dutch_head_device_list
000ab76c   _APP_SD_au8Dutch_head_headset
000abb1c   _APP_SD_au8Dutch_head_messages
000ab60c   _APP_SD_au8Dutch_head_settings
000ab458   _APP_SD_au8Dutch_head_user
000abbb4   _APP_SD_au8Dutch_new_sms
000ab6d8   _APP_SD_au8Dutch_paired_head_devices
000ab780   _APP_SD_au8Dutch_ta_always
000ab408   _APP_SD_au8Dutch_ta_audio_mode
000abdf8   _APP_SD_au8Dutch_ta_backspace
000ac0bc   _APP_SD_au8Dutch_ta_bt_accessory
000ab204   _APP_SD_au8Dutch_ta_bt_active_device
000abfc0   _APP_SD_au8Dutch_ta_bt_disconnect
000ab764   _APP_SD_au8Dutch_ta_bt_headset
000ab574   _APP_SD_au8Dutch_ta_bt_no_conn_headset
000abf94   _APP_SD_au8Dutch_ta_bt_own_name
000ab6c8   _APP_SD_au8Dutch_ta_bt_paired_devices
000abfcc   _APP_SD_au8Dutch_ta_bt_rename
000abd74   _APP_SD_au8Dutch_ta_bt_visibility
000ab2b4   _APP_SD_au8Dutch_ta_call_accept
000ab2ec   _APP_SD_au8Dutch_ta_call_call1
000ab304   _APP_SD_au8Dutch_ta_call_call2
000ab164   _APP_SD_au8Dutch_ta_call_diverted
000ab5f4   _APP_SD_au8Dutch_ta_call_dtmf
000ab420   _APP_SD_au8Dutch_ta_call_end
000ab738   _APP_SD_au8Dutch_ta_call_end_active
000ab280   _APP_SD_au8Dutch_ta_call_end_all
000ab624   _APP_SD_au8Dutch_ta_call_handsfree
000ab754   _APP_SD_au8Dutch_ta_call_hold
000ab788   _APP_SD_au8Dutch_ta_call_info
000aba80   _APP_SD_au8Dutch_ta_call_micro_off
000aba90   _APP_SD_au8Dutch_ta_call_micro_on
000ab190   _APP_SD_au8Dutch_ta_call_reject
000ab214   _APP_SD_au8Dutch_ta_call_resume
000abc7c   _APP_SD_au8Dutch_ta_call_service
000ab9c4   _APP_SD_au8Dutch_ta_call_silent
000abc88   _APP_SD_au8Dutch_ta_call_sos
000aba54   _APP_SD_au8Dutch_ta_call_swap
000ab940   _APP_SD_au8Dutch_ta_call_waiting
000abc64   _APP_SD_au8Dutch_ta_calls_only
000ab980   _APP_SD_au8Dutch_ta_conference
000ac220   _APP_SD_au8Dutch_ta_confirm_pw_in_device
000ac204   _APP_SD_au8Dutch_ta_confirm_pw_with_OK
000abfe8   _APP_SD_au8Dutch_ta_connect
000ab5e8   _APP_SD_au8Dutch_ta_date_value
000ab748   _APP_SD_au8Dutch_ta_disconnected
000ab31c   _APP_SD_au8Dutch_ta_end_call
000ab9a8   _APP_SD_au8Dutch_ta_err_load_phonebook
000bfc18   _APP_SD_au8Dutch_ta_find_mailbox_1
000bfc24   _APP_SD_au8Dutch_ta_find_mailbox_2
000bfc2c   _APP_SD_au8Dutch_ta_find_mailbox_3
000bfc3c   _APP_SD_au8Dutch_ta_find_mailbox_4
000ab630   _APP_SD_au8Dutch_ta_function_restriction
000ab1f4   _APP_SD_au8Dutch_ta_head_active_tone
000ab2dc   _APP_SD_au8Dutch_ta_head_call
000ab2f8   _APP_SD_au8Dutch_ta_head_call1
000ab310   _APP_SD_au8Dutch_ta_head_call2
000ab1e4   _APP_SD_au8Dutch_ta_head_call_active
000ab32c   _APP_SD_au8Dutch_ta_head_call_hold
000abd04   _APP_SD_au8Dutch_ta_head_call_setup
000ab34c   _APP_SD_au8Dutch_ta_head_call_waiting
000ab35c   _APP_SD_au8Dutch_ta_head_calls
000ab948   _APP_SD_au8Dutch_ta_head_conference
000ab954   _APP_SD_au8Dutch_ta_head_conference_hold
000ab5dc   _APP_SD_au8Dutch_ta_head_datacall
000ab464   _APP_SD_au8Dutch_ta_head_delete_user
000abc44   _APP_SD_au8Dutch_ta_head_dial_nbr
000ab5f8   _APP_SD_au8Dutch_ta_head_dtmf
000ab618   _APP_SD_au8Dutch_ta_head_faxcall
000ab2e4   _APP_SD_au8Dutch_ta_head_incoming_call
000abe44   _APP_SD_au8Dutch_ta_head_mailbox
000aba70   _APP_SD_au8Dutch_ta_head_media_player
000ab3a4   _APP_SD_au8Dutch_ta_head_nametag
000abd28   _APP_SD_au8Dutch_ta_head_number
000ab438   _APP_SD_au8Dutch_ta_head_options
000abc90   _APP_SD_au8Dutch_ta_head_passkey
000abe80   _APP_SD_au8Dutch_ta_head_phone
000abee8   _APP_SD_au8Dutch_ta_head_phone_book
000abfa0   _APP_SD_au8Dutch_ta_head_phone_name
000abce8   _APP_SD_au8Dutch_ta_head_private_call
000ab3d8   _APP_SD_au8Dutch_ta_head_reset_voice_tag
000abdac   _APP_SD_au8Dutch_ta_head_setting_signals
000abaa0   _APP_SD_au8Dutch_ta_head_sms
000abaec   _APP_SD_au8Dutch_ta_head_sms_from
000abdb8   _APP_SD_au8Dutch_ta_head_sorting_order
000ab9c8   _APP_SD_au8Dutch_ta_head_stack_dialled
000ab2cc   _APP_SD_au8Dutch_ta_head_stack_missed
000ab2c0   _APP_SD_au8Dutch_ta_head_stack_received
000ab48c   _APP_SD_au8Dutch_ta_head_user
000ac0e8   _APP_SD_au8Dutch_ta_help_text
000ac1dc   _APP_SD_au8Dutch_ta_list_back
000ab55c   _APP_SD_au8Dutch_ta_main_bluetooth
000ab370   _APP_SD_au8Dutch_ta_main_callstacks
000abc54   _APP_SD_au8Dutch_ta_main_dial
000abe38   _APP_SD_au8Dutch_ta_main_mailbox
000aba7c   _APP_SD_au8Dutch_ta_main_menu
000abb10   _APP_SD_au8Dutch_ta_main_messages
000ab600   _APP_SD_au8Dutch_ta_main_settings
000aba64   _APP_SD_au8Dutch_ta_media_player
000ab77c   _APP_SD_au8Dutch_ta_menu_bt_help
000ab368   _APP_SD_au8Dutch_ta_menu_call
000ab184   _APP_SD_au8Dutch_ta_menu_cancel
000ab9e8   _APP_SD_au8Dutch_ta_menu_delete
000ab440   _APP_SD_au8Dutch_ta_menu_end
000abbe0   _APP_SD_au8Dutch_ta_menu_new_user
000ab8e0   _APP_SD_au8Dutch_ta_menu_no_nbr
000abc78   _APP_SD_au8Dutch_ta_menu_ok
000abdf0   _APP_SD_au8Dutch_ta_menu_save
000ab3f4   _APP_SD_au8Dutch_ta_menu_show
000ab44c   _APP_SD_au8Dutch_ta_menu_user
000ac0b4   _APP_SD_au8Dutch_ta_menu_view
000ab260   _APP_SD_au8Dutch_ta_music_paused
000ab91c   _APP_SD_au8Dutch_ta_no_media_player_found
000ac064   _APP_SD_au8Dutch_ta_note_bt_acc_conn
000ab5a0   _APP_SD_au8Dutch_ta_note_bt_conn_impos
000ac030   _APP_SD_au8Dutch_ta_note_bt_conn_setup
000ac018   _APP_SD_au8Dutch_ta_note_bt_no_conn
000ab29c   _APP_SD_au8Dutch_ta_note_bt_passkey_err
000abf18   _APP_SD_au8Dutch_ta_note_call_estab_failed
000ab968   _APP_SD_au8Dutch_ta_note_conf_not_poss
000abbc4   _APP_SD_au8Dutch_ta_note_conn_err
000ac004   _APP_SD_au8Dutch_ta_note_conn_terminated
000ac054   _APP_SD_au8Dutch_ta_note_connected
000abcc0   _APP_SD_au8Dutch_ta_note_connecting_player
000ab98c   _APP_SD_au8Dutch_ta_note_copy_sms_failed
000aba0c   _APP_SD_au8Dutch_ta_note_delete_impos_phone_active
000ab70c   _APP_SD_au8Dutch_ta_note_deleted
000abe88   _APP_SD_au8Dutch_ta_note_enter_cradle
000ab540   _APP_SD_au8Dutch_ta_note_enter_number
000ab198   _APP_SD_au8Dutch_ta_note_ignition
000ab670   _APP_SD_au8Dutch_ta_note_info_call
000abd10   _APP_SD_au8Dutch_ta_note_invalid_number
000ab8fc   _APP_SD_au8Dutch_ta_note_mailbox_no
000ab4dc   _APP_SD_au8Dutch_ta_note_max_users
000ab33c   _APP_SD_au8Dutch_ta_note_missed_call
000abb80   _APP_SD_au8Dutch_ta_note_name_exists
000abb94   _APP_SD_au8Dutch_ta_note_name_stored
000abba4   _APP_SD_au8Dutch_ta_note_network_busy
000abc10   _APP_SD_au8Dutch_ta_note_new_pb_available
000abbf0   _APP_SD_au8Dutch_ta_note_new_phone_found
000abbd0   _APP_SD_au8Dutch_ta_note_new_sms
000ab4b4   _APP_SD_au8Dutch_ta_note_new_user
000ab814   _APP_SD_au8Dutch_ta_note_no_accessory
000ab7e0   _APP_SD_au8Dutch_ta_note_no_act_device
000ab828   _APP_SD_au8Dutch_ta_note_no_bt_conn_acc
000ab848   _APP_SD_au8Dutch_ta_note_no_bt_conn_rsap
000ab7c4   _APP_SD_au8Dutch_ta_note_no_bt_phone
000ab878   _APP_SD_au8Dutch_ta_note_no_entries
000ab8e8   _APP_SD_au8Dutch_ta_note_no_nbr
000ab8c8   _APP_SD_au8Dutch_ta_note_no_network
000ab894   _APP_SD_au8Dutch_ta_note_no_paired_dev
000ab7f4   _APP_SD_au8Dutch_ta_note_no_phone
000abb28   _APP_SD_au8Dutch_ta_note_no_rsap
000ab8ac   _APP_SD_au8Dutch_ta_note_no_sms
000ab794   _APP_SD_au8Dutch_ta_note_no_user
000ab50c   _APP_SD_au8Dutch_ta_note_number_busy
000abef4   _APP_SD_au8Dutch_ta_note_pb_load_error
000abf78   _APP_SD_au8Dutch_ta_note_pb_loading_all
000abf34   _APP_SD_au8Dutch_ta_note_pb_not_complete
000abe5c   _APP_SD_au8Dutch_ta_note_pb_refresh_impos
000abf54   _APP_SD_au8Dutch_ta_note_pbook_loading
000abeac   _APP_SD_au8Dutch_ta_note_phone_initiated
000ab3b4   _APP_SD_au8Dutch_ta_note_read_voice_tag
000abaf8   _APP_SD_au8Dutch_ta_note_reading_sms
000abb4c   _APP_SD_au8Dutch_ta_note_search_phones
000ab474   _APP_SD_au8Dutch_ta_note_search_user
000abc9c   _APP_SD_au8Dutch_ta_note_searching_players
000ab69c   _APP_SD_au8Dutch_ta_note_service_call
000abd5c   _APP_SD_au8Dutch_ta_note_service_not_supp
000abaa8   _APP_SD_au8Dutch_ta_note_sms_deleted
000abab8   _APP_SD_au8Dutch_ta_note_sms_no_read
000ab9f0   _APP_SD_au8Dutch_ta_note_sms_not_deleted
000ab6e8   _APP_SD_au8Dutch_ta_note_sos_call
000ab390   _APP_SD_au8Dutch_ta_note_stacks_cleared
000abdd0   _APP_SD_au8Dutch_ta_note_tag_no_memory
000ab4f8   _APP_SD_au8Dutch_ta_note_user_connected
000ab714   _APP_SD_au8Dutch_ta_note_user_deleted
000ab518   _APP_SD_au8Dutch_ta_note_user_not_created
000ab654   _APP_SD_au8Dutch_ta_note_visible
000abe20   _APP_SD_au8Dutch_ta_note_voice_active
000abe00   _APP_SD_au8Dutch_ta_note_voice_not_ready
000ab3c4   _APP_SD_au8Dutch_ta_note_voice_tag_reset
000ac098   _APP_SD_au8Dutch_ta_note_wait_reply
000abc3c   _APP_SD_au8Dutch_ta_number
000ab434   _APP_SD_au8Dutch_ta_off
000ab5fc   _APP_SD_au8Dutch_ta_on
000ab220   _APP_SD_au8Dutch_ta_pb_download
000ab3ac   _APP_SD_au8Dutch_ta_pb_nametag
000ac090   _APP_SD_au8Dutch_ta_pb_sort_firstname
000abb74   _APP_SD_au8Dutch_ta_pb_sort_lastname
000abedc   _APP_SD_au8Dutch_ta_phone_book
000ac1e4   _APP_SD_au8Dutch_ta_phone_no_answer
000abfb0   _APP_SD_au8Dutch_ta_phone_search
000abcd8   _APP_SD_au8Dutch_ta_private_call
000abff4   _APP_SD_au8Dutch_ta_query_connect
000ab1c4   _APP_SD_au8Dutch_ta_query_del_act_device
000ab1d4   _APP_SD_au8Dutch_ta_query_del_act_user
000aba40   _APP_SD_au8Dutch_ta_query_del_device
000ab248   _APP_SD_au8Dutch_ta_query_delete_log
000abadc   _APP_SD_au8Dutch_ta_query_delete_sms
000aba48   _APP_SD_au8Dutch_ta_query_delete_user
000ab498   _APP_SD_au8Dutch_ta_query_new_user
000ab22c   _APP_SD_au8Dutch_ta_query_terminate_conn
000abd84   _APP_SD_au8Dutch_ta_query_visibility
000ac084   _APP_SD_au8Dutch_ta_read_out_sms
000ab72c   _APP_SD_au8Dutch_ta_replace
000abe54   _APP_SD_au8Dutch_ta_search
000abda0   _APP_SD_au8Dutch_ta_setting_signals
000abd34   _APP_SD_au8Dutch_ta_setting_tone
000abcf8   _APP_SD_au8Dutch_ta_sms_call
000abd3c   _APP_SD_au8Dutch_ta_sms_concatenated
000abd54   _APP_SD_au8Dutch_ta_sms_time
000abdc4   _APP_SD_au8Dutch_ta_sorting_order
000ab9d8   _APP_SD_au8Dutch_ta_stack_clear
000ab9d0   _APP_SD_au8Dutch_ta_stack_dialled
000ab2d4   _APP_SD_au8Dutch_ta_stack_missed
000ab290   _APP_SD_au8Dutch_ta_stack_received
000abc2c   _APP_SD_au8Dutch_ta_supp_not_possible
000ab3ec   _APP_SD_au8Dutch_ta_sw_info
000abfdc   _APP_SD_au8Dutch_ta_switch
000ac0a8   _APP_SD_au8Dutch_ta_tag_play
000ab42c   _APP_SD_au8Dutch_ta_tag_record
000ab144   _APP_SD_au8Dutch_ta_time_am
000ab5d4   _APP_SD_au8Dutch_ta_time_format
000ab154   _APP_SD_au8Dutch_ta_time_pm
000ab174   _APP_SD_au8Dutch_ta_time_standard
000ab774   _APP_SD_au8Dutch_ta_time_value
000ab3fc   _APP_SD_au8Dutch_ta_voice_tag_reset
000ac0c4   _APP_SD_au8Dutch_ta_wait_bt_acc_search
000ab530   _APP_SD_au8Dutch_ta_wait_general
0009feec   _APP_SD_au8English_call_head_register
0009ff7c   _APP_SD_au8English_head_audio_mode
000a0084   _APP_SD_au8English_head_bluetooth
000a0230   _APP_SD_au8English_head_device_list
000a026c   _APP_SD_au8English_head_headset
000a0598   _APP_SD_au8English_head_messages
000a0128   _APP_SD_au8English_head_settings
0009ffb0   _APP_SD_au8English_head_user
000a0610   _APP_SD_au8English_new_sms
000a01e0   _APP_SD_au8English_paired_head_devices
000a0280   _APP_SD_au8English_ta_always
0009ff70   _APP_SD_au8English_ta_audio_mode
000a07f0   _APP_SD_au8English_ta_backspace
000a0a2c   _APP_SD_au8English_ta_bt_accessory
0009fdb4   _APP_SD_au8English_ta_bt_active_device
000a0964   _APP_SD_au8English_ta_bt_disconnect
000a0264   _APP_SD_au8English_ta_bt_headset
000a0090   _APP_SD_au8English_ta_bt_no_conn_headset
000a0944   _APP_SD_au8English_ta_bt_own_name
000a01d0   _APP_SD_au8English_ta_bt_paired_devices
000a0970   _APP_SD_au8English_ta_bt_rename
000a0788   _APP_SD_au8English_ta_bt_visibility
0009fe48   _APP_SD_au8English_ta_call_accept
0009fe80   _APP_SD_au8English_ta_call_call1
0009fe90   _APP_SD_au8English_ta_call_call2
0009fd28   _APP_SD_au8English_ta_call_diverted
000a0114   _APP_SD_au8English_ta_call_dtmf
0009ff88   _APP_SD_au8English_ta_call_end
000a0244   _APP_SD_au8English_ta_call_end_active
0009fe14   _APP_SD_au8English_ta_call_end_all
000a0138   _APP_SD_au8English_ta_call_handsfree
000a0260   _APP_SD_au8English_ta_call_hold
000a0288   _APP_SD_au8English_ta_call_info
000a050c   _APP_SD_au8English_ta_call_micro_off
000a051c   _APP_SD_au8English_ta_call_micro_on
0009fd4c   _APP_SD_au8English_ta_call_reject
0009fdc4   _APP_SD_au8English_ta_call_resume
000a06a8   _APP_SD_au8English_ta_call_service
000a0454   _APP_SD_au8English_ta_call_silent
000a06b4   _APP_SD_au8English_ta_call_sos
000a04ec   _APP_SD_au8English_ta_call_swap
000a03dc   _APP_SD_au8English_ta_call_waiting
000a0698   _APP_SD_au8English_ta_calls_only
000a041c   _APP_SD_au8English_ta_conference
000a0b98   _APP_SD_au8English_ta_confirm_pw_in_device
000a0b7c   _APP_SD_au8English_ta_confirm_pw_with_OK
000a0980   _APP_SD_au8English_ta_connect
000a0108   _APP_SD_au8English_ta_date_value
000a0254   _APP_SD_au8English_ta_disconnected
0009fea0   _APP_SD_au8English_ta_end_call
000a043c   _APP_SD_au8English_ta_err_load_phonebook
000bfa94   _APP_SD_au8English_ta_find_mailbox_1
000bfaa0   _APP_SD_au8English_ta_find_mailbox_2
000bfaa8   _APP_SD_au8English_ta_find_mailbox_3
000bfab8   _APP_SD_au8English_ta_find_mailbox_4
000a0144   _APP_SD_au8English_ta_function_restriction
0009fda0   _APP_SD_au8English_ta_head_active_tone
0009fe78   _APP_SD_au8English_ta_head_call
0009fe88   _APP_SD_au8English_ta_head_call1
0009fe98   _APP_SD_au8English_ta_head_call2
0009fd94   _APP_SD_au8English_ta_head_call_active
0009fea8   _APP_SD_au8English_ta_head_call_hold
000a0720   _APP_SD_au8English_ta_head_call_setup
0009fec4   _APP_SD_au8English_ta_head_call_waiting
0009fed0   _APP_SD_au8English_ta_head_calls
000a03e4   _APP_SD_au8English_ta_head_conference
000a03f0   _APP_SD_au8English_ta_head_conference_hold
000a00fc   _APP_SD_au8English_ta_head_datacall
0009ffb4   _APP_SD_au8English_ta_head_delete_user
000a0680   _APP_SD_au8English_ta_head_dial_nbr
000a0118   _APP_SD_au8English_ta_head_dtmf
000a0130   _APP_SD_au8English_ta_head_faxcall
0009fe7c   _APP_SD_au8English_ta_head_incoming_call
000a083c   _APP_SD_au8English_ta_head_mailbox
000a04fc   _APP_SD_au8English_ta_head_media_player
0009ff10   _APP_SD_au8English_ta_head_nametag
000a073c   _APP_SD_au8English_ta_head_number
0009ff9c   _APP_SD_au8English_ta_head_options
000a06bc   _APP_SD_au8English_ta_head_passkey
000a0870   _APP_SD_au8English_ta_head_phone
000a08c0   _APP_SD_au8English_ta_head_phone_book
000a0950   _APP_SD_au8English_ta_head_phone_name
000a070c   _APP_SD_au8English_ta_head_private_call
0009ff4c   _APP_SD_au8English_ta_head_reset_voice_tag
000a07b8   _APP_SD_au8English_ta_head_setting_signals
000a052c   _APP_SD_au8English_ta_head_sms
000a056c   _APP_SD_au8English_ta_head_sms_from
000a07c8   _APP_SD_au8English_ta_head_sorting_order
000a045c   _APP_SD_au8English_ta_head_stack_dialled
0009fe60   _APP_SD_au8English_ta_head_stack_missed
0009fe50   _APP_SD_au8English_ta_head_stack_received
0009ffd0   _APP_SD_au8English_ta_head_user
000a0a54   _APP_SD_au8English_ta_help_text
000a0b5c   _APP_SD_au8English_ta_list_back
000a0078   _APP_SD_au8English_ta_main_bluetooth
0009fedc   _APP_SD_au8English_ta_main_callstacks
000a068c   _APP_SD_au8English_ta_main_dial
000a082c   _APP_SD_au8English_ta_main_mailbox
000a0508   _APP_SD_au8English_ta_main_menu
000a0590   _APP_SD_au8English_ta_main_messages
000a0120   _APP_SD_au8English_ta_main_settings
000a04f0   _APP_SD_au8English_ta_media_player
000a027c   _APP_SD_au8English_ta_menu_bt_help
0009fed8   _APP_SD_au8English_ta_menu_call
0009fd44   _APP_SD_au8English_ta_menu_cancel
000a0488   _APP_SD_au8English_ta_menu_delete
0009ffa4   _APP_SD_au8English_ta_menu_end
000a0634   _APP_SD_au8English_ta_menu_new_user
000a038c   _APP_SD_au8English_ta_menu_no_nbr
000a06a4   _APP_SD_au8English_ta_menu_ok
000a07ec   _APP_SD_au8English_ta_menu_save
0009ff64   _APP_SD_au8English_ta_menu_show
0009ffac   _APP_SD_au8English_ta_menu_user
000a0a28   _APP_SD_au8English_ta_menu_view
0009fe00   _APP_SD_au8English_ta_music_paused
000a03bc   _APP_SD_au8English_ta_no_media_player_found
000a09dc   _APP_SD_au8English_ta_note_bt_acc_conn
000a00c4   _APP_SD_au8English_ta_note_bt_conn_impos
000a09bc   _APP_SD_au8English_ta_note_bt_conn_setup
000a09a4   _APP_SD_au8English_ta_note_bt_no_conn
0009fe34   _APP_SD_au8English_ta_note_bt_passkey_err
000a08e8   _APP_SD_au8English_ta_note_call_estab_failed
000a0404   _APP_SD_au8English_ta_note_conf_not_poss
000a061c   _APP_SD_au8English_ta_note_conn_err
000a0998   _APP_SD_au8English_ta_note_conn_terminated
000a09cc   _APP_SD_au8English_ta_note_connected
000a06ec   _APP_SD_au8English_ta_note_connecting_player
000a0428   _APP_SD_au8English_ta_note_copy_sms_failed
000a04a8   _APP_SD_au8English_ta_note_delete_impos_phone_active
000a021c   _APP_SD_au8English_ta_note_deleted
000a0878   _APP_SD_au8English_ta_note_enter_cradle
000a0064   _APP_SD_au8English_ta_note_enter_number
0009fd54   _APP_SD_au8English_ta_note_ignition
000a0184   _APP_SD_au8English_ta_note_info_call
000a0728   _APP_SD_au8English_ta_note_invalid_number
000a03a0   _APP_SD_au8English_ta_note_mailbox_no
000a000c   _APP_SD_au8English_ta_note_max_users
0009feb8   _APP_SD_au8English_ta_note_missed_call
000a05ec   _APP_SD_au8English_ta_note_name_exists
000a05f8   _APP_SD_au8English_ta_note_name_stored
000a0604   _APP_SD_au8English_ta_note_network_busy
000a0654   _APP_SD_au8English_ta_note_new_pb_available
000a063c   _APP_SD_au8English_ta_note_new_phone_found
000a0628   _APP_SD_au8English_ta_note_new_sms
0009ffec   _APP_SD_au8English_ta_note_new_user
000a02fc   _APP_SD_au8English_ta_note_no_accessory
000a02cc   _APP_SD_au8English_ta_note_no_act_device
000a030c   _APP_SD_au8English_ta_note_no_bt_conn_acc
000a0328   _APP_SD_au8English_ta_note_no_bt_conn_rsap
000a02b8   _APP_SD_au8English_ta_note_no_bt_phone
000a0348   _APP_SD_au8English_ta_note_no_entries
000a0394   _APP_SD_au8English_ta_note_no_nbr
000a0380   _APP_SD_au8English_ta_note_no_network
000a035c   _APP_SD_au8English_ta_note_no_paired_dev
000a02dc   _APP_SD_au8English_ta_note_no_phone
000a05a0   _APP_SD_au8English_ta_note_no_rsap
000a036c   _APP_SD_au8English_ta_note_no_sms
000a0294   _APP_SD_au8English_ta_note_no_user
000a003c   _APP_SD_au8English_ta_note_number_busy
000a08cc   _APP_SD_au8English_ta_note_pb_load_error
000a0930   _APP_SD_au8English_ta_note_pb_loading_all
000a08f8   _APP_SD_au8English_ta_note_pb_not_complete
000a0854   _APP_SD_au8English_ta_note_pb_refresh_impos
000a0914   _APP_SD_au8English_ta_note_pbook_loading
000a0890   _APP_SD_au8English_ta_note_phone_initiated
0009ff28   _APP_SD_au8English_ta_note_read_voice_tag
000a0578   _APP_SD_au8English_ta_note_reading_sms
000a05bc   _APP_SD_au8English_ta_note_search_phones
0009ffc0   _APP_SD_au8English_ta_note_search_user
000a06c8   _APP_SD_au8English_ta_note_searching_players
000a01a8   _APP_SD_au8English_ta_note_service_call
000a0770   _APP_SD_au8English_ta_note_service_not_supp
000a0534   _APP_SD_au8English_ta_note_sms_deleted
000a0544   _APP_SD_au8English_ta_note_sms_no_read
000a0490   _APP_SD_au8English_ta_note_sms_not_deleted
000a01f0   _APP_SD_au8English_ta_note_sos_call
0009fefc   _APP_SD_au8English_ta_note_stacks_cleared
000a07d0   _APP_SD_au8English_ta_note_tag_no_memory
000a0024   _APP_SD_au8English_ta_note_user_connected
000a0224   _APP_SD_au8English_ta_note_user_deleted
000a0040   _APP_SD_au8English_ta_note_user_not_created
000a0170   _APP_SD_au8English_ta_note_visible
000a0814   _APP_SD_au8English_ta_note_voice_active
000a07f8   _APP_SD_au8English_ta_note_voice_not_ready
0009ff3c   _APP_SD_au8English_ta_note_voice_tag_reset
000a0a0c   _APP_SD_au8English_ta_note_wait_reply
000a0678   _APP_SD_au8English_ta_number
0009ff98   _APP_SD_au8English_ta_off
000a011c   _APP_SD_au8English_ta_on
0009fdcc   _APP_SD_au8English_ta_pb_download
0009ff1c   _APP_SD_au8English_ta_pb_nametag
000a0a00   _APP_SD_au8English_ta_pb_sort_firstname
000a05e4   _APP_SD_au8English_ta_pb_sort_lastname
000a08b4   _APP_SD_au8English_ta_phone_book
000a0b60   _APP_SD_au8English_ta_phone_no_answer
000a095c   _APP_SD_au8English_ta_phone_search
000a0700   _APP_SD_au8English_ta_private_call
000a0988   _APP_SD_au8English_ta_query_connect
0009fd74   _APP_SD_au8English_ta_query_del_act_device
0009fd84   _APP_SD_au8English_ta_query_del_act_user
000a04d8   _APP_SD_au8English_ta_query_del_device
0009fdec   _APP_SD_au8English_ta_query_delete_log
000a055c   _APP_SD_au8English_ta_query_delete_sms
000a04e0   _APP_SD_au8English_ta_query_delete_user
0009ffd8   _APP_SD_au8English_ta_query_new_user
0009fdd4   _APP_SD_au8English_ta_query_terminate_conn
000a0794   _APP_SD_au8English_ta_query_visibility
000a09f8   _APP_SD_au8English_ta_read_out_sms
000a023c   _APP_SD_au8English_ta_replace
000a084c   _APP_SD_au8English_ta_search
000a07a8   _APP_SD_au8English_ta_setting_signals
000a0744   _APP_SD_au8English_ta_setting_tone
000a0718   _APP_SD_au8English_ta_sms_call
000a0750   _APP_SD_au8English_ta_sms_concatenated
000a0764   _APP_SD_au8English_ta_sms_time
000a07cc   _APP_SD_au8English_ta_sorting_order
000a047c   _APP_SD_au8English_ta_stack_clear
000a046c   _APP_SD_au8English_ta_stack_dialled
0009fe6c   _APP_SD_au8English_ta_stack_missed
0009fe24   _APP_SD_au8English_ta_stack_received
000a066c   _APP_SD_au8English_ta_supp_not_possible
0009ff5c   _APP_SD_au8English_ta_sw_info
000a0978   _APP_SD_au8English_ta_switch
000a0a20   _APP_SD_au8English_ta_tag_play
0009ff90   _APP_SD_au8English_ta_tag_record
0009fd08   _APP_SD_au8English_ta_time_am
000a00f4   _APP_SD_au8English_ta_time_format
0009fd18   _APP_SD_au8English_ta_time_pm
0009fd34   _APP_SD_au8English_ta_time_standard
000a0274   _APP_SD_au8English_ta_time_value
0009ff68   _APP_SD_au8English_ta_voice_tag_reset
000a0a34   _APP_SD_au8English_ta_wait_bt_acc_search
000a0058   _APP_SD_au8English_ta_wait_general
000a5348   _APP_SD_au8French_call_head_register
000a5404   _APP_SD_au8French_head_audio_mode
000a557c   _APP_SD_au8French_head_bluetooth
000a5734   _APP_SD_au8French_head_device_list
000a5784   _APP_SD_au8French_head_headset
000a5b94   _APP_SD_au8French_head_messages
000a560c   _APP_SD_au8French_head_settings
000a5450   _APP_SD_au8French_head_user
000a5c14   _APP_SD_au8French_new_sms
000a56dc   _APP_SD_au8French_paired_head_devices
000a579c   _APP_SD_au8French_ta_always
000a53f8   _APP_SD_au8French_ta_audio_mode
000a5e7c   _APP_SD_au8French_ta_backspace
000a6174   _APP_SD_au8French_ta_bt_accessory
000a51cc   _APP_SD_au8French_ta_bt_active_device
000a6088   _APP_SD_au8French_ta_bt_disconnect
000a5778   _APP_SD_au8French_ta_bt_headset
000a5588   _APP_SD_au8French_ta_bt_no_conn_headset
000a6050   _APP_SD_au8French_ta_bt_own_name
000a56cc   _APP_SD_au8French_ta_bt_paired_devices
000a6094   _APP_SD_au8French_ta_bt_rename
000a5e00   _APP_SD_au8French_ta_bt_visibility
000a5278   _APP_SD_au8French_ta_call_accept
000a52cc   _APP_SD_au8French_ta_call_call1
000a52dc   _APP_SD_au8French_ta_call_call2
000a5124   _APP_SD_au8French_ta_call_diverted
000a55f0   _APP_SD_au8French_ta_call_dtmf
000a5410   _APP_SD_au8French_ta_call_end
000a5754   _APP_SD_au8French_ta_call_end_active
000a5244   _APP_SD_au8French_ta_call_end_all
000a5624   _APP_SD_au8French_ta_call_handsfree
000a576c   _APP_SD_au8French_ta_call_hold
000a57a4   _APP_SD_au8French_ta_call_info
000a5b0c   _APP_SD_au8French_ta_call_micro_off
000a5b1c   _APP_SD_au8French_ta_call_micro_on
000a514c   _APP_SD_au8French_ta_call_reject
000a51dc   _APP_SD_au8French_ta_call_resume
000a5ce0   _APP_SD_au8French_ta_call_service
000a5a20   _APP_SD_au8French_ta_call_silent
000a5cf0   _APP_SD_au8French_ta_call_sos
000a5ad8   _APP_SD_au8French_ta_call_swap
000a5984   _APP_SD_au8French_ta_call_waiting
000a5ccc   _APP_SD_au8French_ta_calls_only
000a59c8   _APP_SD_au8French_ta_conference
000a6328   _APP_SD_au8French_ta_confirm_pw_in_device
000a630c   _APP_SD_au8French_ta_confirm_pw_with_OK
000a60a4   _APP_SD_au8French_ta_connect
000a55e4   _APP_SD_au8French_ta_date_value
000a5760   _APP_SD_au8French_ta_disconnected
000a52ec   _APP_SD_au8French_ta_end_call
000a59f8   _APP_SD_au8French_ta_err_load_phonebook
000bfb70   _APP_SD_au8French_ta_find_mailbox_1
000bfb84   _APP_SD_au8French_ta_find_mailbox_2
000a5630   _APP_SD_au8French_ta_function_restriction
000a51bc   _APP_SD_au8French_ta_head_active_tone
000a52b4   _APP_SD_au8French_ta_head_call
000a52d4   _APP_SD_au8French_ta_head_call1
000a52e4   _APP_SD_au8French_ta_head_call2
000a51ac   _APP_SD_au8French_ta_head_call_active
000a52f8   _APP_SD_au8French_ta_head_call_hold
000a5d70   _APP_SD_au8French_ta_head_call_setup
000a5318   _APP_SD_au8French_ta_head_call_waiting
000a5328   _APP_SD_au8French_ta_head_calls
000a5990   _APP_SD_au8French_ta_head_conference
000a599c   _APP_SD_au8French_ta_head_conference_hold
000a55d4   _APP_SD_au8French_ta_head_datacall
000a545c   _APP_SD_au8French_ta_head_delete_user
000a5ca4   _APP_SD_au8French_ta_head_dial_nbr
000a55f4   _APP_SD_au8French_ta_head_dtmf
000a5618   _APP_SD_au8French_ta_head_faxcall
000a52bc   _APP_SD_au8French_ta_head_incoming_call
000a5ed0   _APP_SD_au8French_ta_head_mailbox
000a5af8   _APP_SD_au8French_ta_head_media_player
000a5374   _APP_SD_au8French_ta_head_nametag
000a5da0   _APP_SD_au8French_ta_head_number
000a5434   _APP_SD_au8French_ta_head_options
000a5d04   _APP_SD_au8French_ta_head_passkey
000a5f14   _APP_SD_au8French_ta_head_phone
000a5f94   _APP_SD_au8French_ta_head_phone_book
000a6060   _APP_SD_au8French_ta_head_phone_name
000a5d5c   _APP_SD_au8French_ta_head_private_call
000a53bc   _APP_SD_au8French_ta_head_reset_voice_tag
000a5e30   _APP_SD_au8French_ta_head_setting_signals
000a5b2c   _APP_SD_au8French_ta_head_sms
000a5b70   _APP_SD_au8French_ta_head_sms_from
000a5e40   _APP_SD_au8French_ta_head_sorting_order
000a5a2c   _APP_SD_au8French_ta_head_stack_dialled
000a5294   _APP_SD_au8French_ta_head_stack_missed
000a5284   _APP_SD_au8French_ta_head_stack_received
000a5490   _APP_SD_au8French_ta_head_user
000a61ac   _APP_SD_au8French_ta_help_text
000a62e4   _APP_SD_au8French_ta_list_back
000a5570   _APP_SD_au8French_ta_main_bluetooth
000a5338   _APP_SD_au8French_ta_main_callstacks
000a5cb8   _APP_SD_au8French_ta_main_dial
000a5ec0   _APP_SD_au8French_ta_main_mailbox
000a5b08   _APP_SD_au8French_ta_main_menu
000a5b8c   _APP_SD_au8French_ta_main_messages
000a5600   _APP_SD_au8French_ta_main_settings
000a5ae8   _APP_SD_au8French_ta_media_player
000a5798   _APP_SD_au8French_ta_menu_bt_help
000a5330   _APP_SD_au8French_ta_menu_call
000a5144   _APP_SD_au8French_ta_menu_cancel
000a5a5c   _APP_SD_au8French_ta_menu_delete
000a543c   _APP_SD_au8French_ta_menu_end
000a5c3c   _APP_SD_au8French_ta_menu_new_user
000a5914   _APP_SD_au8French_ta_menu_no_nbr
000a5cdc   _APP_SD_au8French_ta_menu_ok
000a5e70   _APP_SD_au8French_ta_menu_save
000a53e0   _APP_SD_au8French_ta_menu_show
000a5444   _APP_SD_au8French_ta_menu_user
000a616c   _APP_SD_au8French_ta_menu_view
000a522c   _APP_SD_au8French_ta_music_paused
000a5960   _APP_SD_au8French_ta_no_media_player_found
000a6118   _APP_SD_au8French_ta_note_bt_acc_conn
000a55b0   _APP_SD_au8French_ta_note_bt_conn_impos
000a60e4   _APP_SD_au8French_ta_note_bt_conn_setup
000a60d0   _APP_SD_au8French_ta_note_bt_no_conn
000a5260   _APP_SD_au8French_ta_note_bt_passkey_err
000a5fc4   _APP_SD_au8French_ta_note_call_estab_failed
000a59b0   _APP_SD_au8French_ta_note_conf_not_poss
000a5c20   _APP_SD_au8French_ta_note_conn_err
000a60c4   _APP_SD_au8French_ta_note_conn_terminated
000a6108   _APP_SD_au8French_ta_note_connected
000a5d38   _APP_SD_au8French_ta_note_connecting_player
000a59d4   _APP_SD_au8French_ta_note_copy_sms_failed
000a5a88   _APP_SD_au8French_ta_note_delete_impos_phone_active
000a571c   _APP_SD_au8French_ta_note_deleted
000a5f20   _APP_SD_au8French_ta_note_enter_cradle
000a5548   _APP_SD_au8French_ta_note_enter_number
000a5154   _APP_SD_au8French_ta_note_ignition
000a5670   _APP_SD_au8French_ta_note_info_call
000a5d80   _APP_SD_au8French_ta_note_invalid_number
000a593c   _APP_SD_au8French_ta_note_mailbox_no
000a54e0   _APP_SD_au8French_ta_note_max_users
000a5308   _APP_SD_au8French_ta_note_missed_call
000a5be0   _APP_SD_au8French_ta_note_name_exists
000a5bf4   _APP_SD_au8French_ta_note_name_stored
000a5c04   _APP_SD_au8French_ta_note_network_busy
000a5c6c   _APP_SD_au8French_ta_note_new_pb_available
000a5c50   _APP_SD_au8French_ta_note_new_phone_found
000a5c30   _APP_SD_au8French_ta_note_new_sms
000a54bc   _APP_SD_au8French_ta_note_new_user
000a5848   _APP_SD_au8French_ta_note_no_accessory
000a5808   _APP_SD_au8French_ta_note_no_act_device
000a5860   _APP_SD_au8French_ta_note_no_bt_conn_acc
000a5884   _APP_SD_au8French_ta_note_no_bt_conn_rsap
000a57e8   _APP_SD_au8French_ta_note_no_bt_phone
000a58b0   _APP_SD_au8French_ta_note_no_entries
000a591c   _APP_SD_au8French_ta_note_no_nbr
000a58f4   _APP_SD_au8French_ta_note_no_network
000a58c8   _APP_SD_au8French_ta_note_no_paired_dev
000a5820   _APP_SD_au8French_ta_note_no_phone
000a5b9c   _APP_SD_au8French_ta_note_no_rsap
000a58e0   _APP_SD_au8French_ta_note_no_sms
000a57b4   _APP_SD_au8French_ta_note_no_user
000a5514   _APP_SD_au8French_ta_note_number_busy
000a5fa0   _APP_SD_au8French_ta_note_pb_load_error
000a6030   _APP_SD_au8French_ta_note_pb_loading_all
000a5fe8   _APP_SD_au8French_ta_note_pb_not_complete
000a5eec   _APP_SD_au8French_ta_note_pb_refresh_impos
000a600c   _APP_SD_au8French_ta_note_pbook_loading
000a5f5c   _APP_SD_au8French_ta_note_phone_initiated
000a538c   _APP_SD_au8French_ta_note_read_voice_tag
000a5b78   _APP_SD_au8French_ta_note_reading_sms
000a5bbc   _APP_SD_au8French_ta_note_search_phones
000a5474   _APP_SD_au8French_ta_note_search_user
000a5d14   _APP_SD_au8French_ta_note_searching_players
000a569c   _APP_SD_au8French_ta_note_service_call
000a5de4   _APP_SD_au8French_ta_note_service_not_supp
000a5b30   _APP_SD_au8French_ta_note_sms_deleted
000a5b3c   _APP_SD_au8French_ta_note_sms_no_read
000a5a68   _APP_SD_au8French_ta_note_sms_not_deleted
000a56ec   _APP_SD_au8French_ta_note_sos_call
000a5358   _APP_SD_au8French_ta_note_stacks_cleared
000a5e48   _APP_SD_au8French_ta_note_tag_no_memory
000a5500   _APP_SD_au8French_ta_note_user_connected
000a5728   _APP_SD_au8French_ta_note_user_deleted
000a551c   _APP_SD_au8French_ta_note_user_not_created
000a5658   _APP_SD_au8French_ta_note_visible
000a5ea8   _APP_SD_au8French_ta_note_voice_active
000a5e88   _APP_SD_au8French_ta_note_voice_not_ready
000a53a0   _APP_SD_au8French_ta_note_voice_tag_reset
000a614c   _APP_SD_au8French_ta_note_wait_reply
000a5c94   _APP_SD_au8French_ta_number
000a5428   _APP_SD_au8French_ta_off
000a55f8   _APP_SD_au8French_ta_on
000a51e4   _APP_SD_au8French_ta_pb_download
000a5380   _APP_SD_au8French_ta_pb_nametag
000a6144   _APP_SD_au8French_ta_pb_sort_firstname
000a5bdc   _APP_SD_au8French_ta_pb_sort_lastname
000a5f88   _APP_SD_au8French_ta_phone_book
000a62ec   _APP_SD_au8French_ta_phone_no_answer
000a6074   _APP_SD_au8French_ta_phone_search
000a5d50   _APP_SD_au8French_ta_private_call
000a60b0   _APP_SD_au8French_ta_query_connect
000a5184   _APP_SD_au8French_ta_query_del_act_device
000a5198   _APP_SD_au8French_ta_query_del_act_user
000a5abc   _APP_SD_au8French_ta_query_del_device
000a5210   _APP_SD_au8French_ta_query_delete_log
000a5b60   _APP_SD_au8French_ta_query_delete_sms
000a5ac8   _APP_SD_au8French_ta_query_delete_user
000a54a0   _APP_SD_au8French_ta_query_new_user
000a51f4   _APP_SD_au8French_ta_query_terminate_conn
000a5e0c   _APP_SD_au8French_ta_query_visibility
000a613c   _APP_SD_au8French_ta_read_out_sms
000a5748   _APP_SD_au8French_ta_replace
000a5ee0   _APP_SD_au8French_ta_search
000a5e20   _APP_SD_au8French_ta_setting_signals
000a5db4   _APP_SD_au8French_ta_setting_tone
000a5d68   _APP_SD_au8French_ta_sms_call
000a5dbc   _APP_SD_au8French_ta_sms_concatenated
000a5dd4   _APP_SD_au8French_ta_sms_time
000a5e44   _APP_SD_au8French_ta_sorting_order
000a5a4c   _APP_SD_au8French_ta_stack_clear
000a5a3c   _APP_SD_au8French_ta_stack_dialled
000a52a4   _APP_SD_au8French_ta_stack_missed
000a5250   _APP_SD_au8French_ta_stack_received
000a5c88   _APP_SD_au8French_ta_supp_not_possible
000a53d8   _APP_SD_au8French_ta_sw_info
000a609c   _APP_SD_au8French_ta_switch
000a6160   _APP_SD_au8French_ta_tag_play
000a541c   _APP_SD_au8French_ta_tag_record
000a5104   _APP_SD_au8French_ta_time_am
000a55cc   _APP_SD_au8French_ta_time_format
000a5114   _APP_SD_au8French_ta_time_pm
000a5134   _APP_SD_au8French_ta_time_standard
000a5790   _APP_SD_au8French_ta_time_value
000a53e8   _APP_SD_au8French_ta_voice_tag_reset
000a6184   _APP_SD_au8French_ta_wait_bt_acc_search
000a5534   _APP_SD_au8French_ta_wait_general
000a0de8   _APP_SD_au8German_call_head_register
000a0e90   _APP_SD_au8German_head_audio_mode
000a0fcc   _APP_SD_au8German_head_bluetooth
000a118c   _APP_SD_au8German_head_device_list
000a11c8   _APP_SD_au8German_head_headset
000a15a4   _APP_SD_au8German_head_messages
000a1074   _APP_SD_au8German_head_settings
000a0ecc   _APP_SD_au8German_head_user
000a163c   _APP_SD_au8German_new_sms
000a113c   _APP_SD_au8German_paired_head_devices
000a11e0   _APP_SD_au8German_ta_always
000a0e84   _APP_SD_au8German_ta_audio_mode
000a1874   _APP_SD_au8German_ta_backspace
000a1b1c   _APP_SD_au8German_ta_bt_accessory
000a0c70   _APP_SD_au8German_ta_bt_active_device
000a1a34   _APP_SD_au8German_ta_bt_disconnect
000a11c0   _APP_SD_au8German_ta_bt_headset
000a0fd8   _APP_SD_au8German_ta_bt_no_conn_headset
000a1a0c   _APP_SD_au8German_ta_bt_own_name
000a112c   _APP_SD_au8German_ta_bt_paired_devices
000a1a3c   _APP_SD_au8German_ta_bt_rename
000a17e8   _APP_SD_au8German_ta_bt_visibility
000a0d24   _APP_SD_au8German_ta_call_accept
000a0d68   _APP_SD_au8German_ta_call_call1
000a0d78   _APP_SD_au8German_ta_call_call2
000a0bd4   _APP_SD_au8German_ta_call_diverted
000a1058   _APP_SD_au8German_ta_call_dtmf
000a0e9c   _APP_SD_au8German_ta_call_end
000a11a0   _APP_SD_au8German_ta_call_end_active
000a0cf4   _APP_SD_au8German_ta_call_end_all
000a1090   _APP_SD_au8German_ta_call_handsfree
000a11b8   _APP_SD_au8German_ta_call_hold
000a11e8   _APP_SD_au8German_ta_call_info
000a1500   _APP_SD_au8German_ta_call_micro_off
000a150c   _APP_SD_au8German_ta_call_micro_on
000a0bf8   _APP_SD_au8German_ta_call_reject
000a0c80   _APP_SD_au8German_ta_call_resume
000a16ec   _APP_SD_au8German_ta_call_service
000a1430   _APP_SD_au8German_ta_call_silent
000a16f8   _APP_SD_au8German_ta_call_sos
000a14d8   _APP_SD_au8German_ta_call_swap
000a13a0   _APP_SD_au8German_ta_call_waiting
000a16d8   _APP_SD_au8German_ta_calls_only
000a13e4   _APP_SD_au8German_ta_conference
000a1cbc   _APP_SD_au8German_ta_confirm_pw_in_device
000a1ca0   _APP_SD_au8German_ta_confirm_pw_with_OK
000a1a54   _APP_SD_au8German_ta_connect
000a104c   _APP_SD_au8German_ta_date_value
000a11b0   _APP_SD_au8German_ta_disconnected
000a0d88   _APP_SD_au8German_ta_end_call
000a140c   _APP_SD_au8German_ta_err_load_phonebook
000bfac4   _APP_SD_au8German_ta_find_mailbox_1
000bfad4   _APP_SD_au8German_ta_find_mailbox_2
000bfadc   _APP_SD_au8German_ta_find_mailbox_3
000bfaf0   _APP_SD_au8German_ta_find_mailbox_4
000a109c   _APP_SD_au8German_ta_function_restriction
000a0c60   _APP_SD_au8German_ta_head_active_tone
000a0d58   _APP_SD_au8German_ta_head_call
000a0d70   _APP_SD_au8German_ta_head_call1
000a0d80   _APP_SD_au8German_ta_head_call2
000a0c50   _APP_SD_au8German_ta_head_call_active
000a0d98   _APP_SD_au8German_ta_head_call_hold
000a1770   _APP_SD_au8German_ta_head_call_setup
000a0dbc   _APP_SD_au8German_ta_head_call_waiting
000a0dcc   _APP_SD_au8German_ta_head_calls
000a13ac   _APP_SD_au8German_ta_head_conference
000a13b8   _APP_SD_au8German_ta_head_conference_hold
000a1040   _APP_SD_au8German_ta_head_datacall
000a0ed4   _APP_SD_au8German_ta_head_delete_user
000a16c0   _APP_SD_au8German_ta_head_dial_nbr
000a105c   _APP_SD_au8German_ta_head_dtmf
000a1084   _APP_SD_au8German_ta_head_faxcall
000a0d60   _APP_SD_au8German_ta_head_incoming_call
000a18c4   _APP_SD_au8German_ta_head_mailbox
000a14ec   _APP_SD_au8German_ta_head_media_player
000a0e08   _APP_SD_au8German_ta_head_nametag
000a1790   _APP_SD_au8German_ta_head_number
000a0eb4   _APP_SD_au8German_ta_head_options
000a1700   _APP_SD_au8German_ta_head_passkey
000a1908   _APP_SD_au8German_ta_head_phone
000a1968   _APP_SD_au8German_ta_head_phone_book
000a1a18   _APP_SD_au8German_ta_head_phone_name
000a1758   _APP_SD_au8German_ta_head_private_call
000a0e4c   _APP_SD_au8German_ta_head_reset_voice_tag
000a181c   _APP_SD_au8German_ta_head_setting_signals
000a1518   _APP_SD_au8German_ta_head_sms
000a1570   _APP_SD_au8German_ta_head_sms_from
000a182c   _APP_SD_au8German_ta_head_sorting_order
000a1438   _APP_SD_au8German_ta_head_stack_dialled
000a0d38   _APP_SD_au8German_ta_head_stack_missed
000a0d2c   _APP_SD_au8German_ta_head_stack_received
000a0f00   _APP_SD_au8German_ta_head_user
000a1b48   _APP_SD_au8German_ta_help_text
000a1c7c   _APP_SD_au8German_ta_list_back
000a0fc0   _APP_SD_au8German_ta_main_bluetooth
000a0ddc   _APP_SD_au8German_ta_main_callstacks
000a16cc   _APP_SD_au8German_ta_main_dial
000a18b4   _APP_SD_au8German_ta_main_mailbox
000a14f8   _APP_SD_au8German_ta_main_menu
000a1598   _APP_SD_au8German_ta_main_messages
000a1064   _APP_SD_au8German_ta_main_settings
000a14e0   _APP_SD_au8German_ta_media_player
000a11d8   _APP_SD_au8German_ta_menu_bt_help
000a0dd4   _APP_SD_au8German_ta_menu_call
000a0bf0   _APP_SD_au8German_ta_menu_cancel
000a1460   _APP_SD_au8German_ta_menu_delete
000a0ebc   _APP_SD_au8German_ta_menu_end
000a1664   _APP_SD_au8German_ta_menu_new_user
000a1334   _APP_SD_au8German_ta_menu_no_nbr
000a16e8   _APP_SD_au8German_ta_menu_ok
000a1868   _APP_SD_au8German_ta_menu_save
000a0e6c   _APP_SD_au8German_ta_menu_show
000a0ec4   _APP_SD_au8German_ta_menu_user
000a1b14   _APP_SD_au8German_ta_menu_view
000a0cd0   _APP_SD_au8German_ta_music_paused
000a1378   _APP_SD_au8German_ta_no_media_player_found
000a1ac8   _APP_SD_au8German_ta_note_bt_acc_conn
000a1004   _APP_SD_au8German_ta_note_bt_conn_impos
000a1a9c   _APP_SD_au8German_ta_note_bt_conn_setup
000a1a84   _APP_SD_au8German_ta_note_bt_no_conn
000a0d0c   _APP_SD_au8German_ta_note_bt_passkey_err
000a1998   _APP_SD_au8German_ta_note_call_estab_failed
000a13cc   _APP_SD_au8German_ta_note_conf_not_poss
000a1644   _APP_SD_au8German_ta_note_conn_err
000a1a70   _APP_SD_au8German_ta_note_conn_terminated
000a1ab8   _APP_SD_au8German_ta_note_connected
000a1730   _APP_SD_au8German_ta_note_connecting_player
000a13f0   _APP_SD_au8German_ta_note_copy_sms_failed
000a148c   _APP_SD_au8German_ta_note_delete_impos_phone_active
000a1174   _APP_SD_au8German_ta_note_deleted
000a1910   _APP_SD_au8German_ta_note_enter_cradle
000a0fa8   _APP_SD_au8German_ta_note_enter_number
000a0c00   _APP_SD_au8German_ta_note_ignition
000a10d8   _APP_SD_au8German_ta_note_info_call
000a177c   _APP_SD_au8German_ta_note_invalid_number
000a1350   _APP_SD_au8German_ta_note_mailbox_no
000a0f48   _APP_SD_au8German_ta_note_max_users
000a0da8   _APP_SD_au8German_ta_note_missed_call
000a1604   _APP_SD_au8German_ta_note_name_exists
000a1618   _APP_SD_au8German_ta_note_name_stored
000a1628   _APP_SD_au8German_ta_note_network_busy
000a168c   _APP_SD_au8German_ta_note_new_pb_available
000a1674   _APP_SD_au8German_ta_note_new_phone_found
000a1654   _APP_SD_au8German_ta_note_new_sms
000a0f24   _APP_SD_au8German_ta_note_new_user
000a1274   _APP_SD_au8German_ta_note_no_accessory
000a123c   _APP_SD_au8German_ta_note_no_act_device
000a1288   _APP_SD_au8German_ta_note_no_bt_conn_acc
000a12a8   _APP_SD_au8German_ta_note_no_bt_conn_rsap
000a121c   _APP_SD_au8German_ta_note_no_bt_phone
000a12d4   _APP_SD_au8German_ta_note_no_entries
000a1340   _APP_SD_au8German_ta_note_no_nbr
000a1320   _APP_SD_au8German_ta_note_no_network
000a12ec   _APP_SD_au8German_ta_note_no_paired_dev
000a124c   _APP_SD_au8German_ta_note_no_phone
000a15b0   _APP_SD_au8German_ta_note_no_rsap
000a1304   _APP_SD_au8German_ta_note_no_sms
000a11f0   _APP_SD_au8German_ta_note_no_user
000a0f78   _APP_SD_au8German_ta_note_number_busy
000a1974   _APP_SD_au8German_ta_note_pb_load_error
000a19f4   _APP_SD_au8German_ta_note_pb_loading_all
000a19b0   _APP_SD_au8German_ta_note_pb_not_complete
000a18dc   _APP_SD_au8German_ta_note_pb_refresh_impos
000a19d0   _APP_SD_au8German_ta_note_pbook_loading
000a1934   _APP_SD_au8German_ta_note_phone_initiated
000a0e20   _APP_SD_au8German_ta_note_read_voice_tag
000a1580   _APP_SD_au8German_ta_note_reading_sms
000a15d0   _APP_SD_au8German_ta_note_search_phones
000a0ee8   _APP_SD_au8German_ta_note_search_user
000a170c   _APP_SD_au8German_ta_note_searching_players
000a1100   _APP_SD_au8German_ta_note_service_call
000a17c8   _APP_SD_au8German_ta_note_service_not_supp
000a1524   _APP_SD_au8German_ta_note_sms_deleted
000a1538   _APP_SD_au8German_ta_note_sms_no_read
000a1468   _APP_SD_au8German_ta_note_sms_not_deleted
000a114c   _APP_SD_au8German_ta_note_sos_call
000a0df4   _APP_SD_au8German_ta_note_stacks_cleared
000a1844   _APP_SD_au8German_ta_note_tag_no_memory
000a0f64   _APP_SD_au8German_ta_note_user_connected
000a1180   _APP_SD_au8German_ta_note_user_deleted
000a0f80   _APP_SD_au8German_ta_note_user_not_created
000a10c0   _APP_SD_au8German_ta_note_visible
000a189c   _APP_SD_au8German_ta_note_voice_active
000a187c   _APP_SD_au8German_ta_note_voice_not_ready
000a0e34   _APP_SD_au8German_ta_note_voice_tag_reset
000a1af8   _APP_SD_au8German_ta_note_wait_reply
000a16b8   _APP_SD_au8German_ta_number
000a0eb0   _APP_SD_au8German_ta_off
000a1060   _APP_SD_au8German_ta_on
000a0c8c   _APP_SD_au8German_ta_pb_download
000a0e14   _APP_SD_au8German_ta_pb_nametag
000a1af0   _APP_SD_au8German_ta_pb_sort_firstname
000a15fc   _APP_SD_au8German_ta_pb_sort_lastname
000a195c   _APP_SD_au8German_ta_phone_book
000a1c84   _APP_SD_au8German_ta_phone_no_answer
000a1a24   _APP_SD_au8German_ta_phone_search
000a1748   _APP_SD_au8German_ta_private_call
000a1a60   _APP_SD_au8German_ta_query_connect
000a0c30   _APP_SD_au8German_ta_query_del_act_device
000a0c40   _APP_SD_au8German_ta_query_del_act_user
000a14c0   _APP_SD_au8German_ta_query_del_device
000a0cb4   _APP_SD_au8German_ta_query_delete_log
000a155c   _APP_SD_au8German_ta_query_delete_sms
000a14cc   _APP_SD_au8German_ta_query_delete_user
000a0f0c   _APP_SD_au8German_ta_query_new_user
000a0c9c   _APP_SD_au8German_ta_query_terminate_conn
000a17f4   _APP_SD_au8German_ta_query_visibility
000a1ae8   _APP_SD_au8German_ta_read_out_sms
000a1198   _APP_SD_au8German_ta_replace
000a18d4   _APP_SD_au8German_ta_search
000a180c   _APP_SD_au8German_ta_setting_signals
000a179c   _APP_SD_au8German_ta_setting_tone
000a1768   _APP_SD_au8German_ta_sms_call
000a17a4   _APP_SD_au8German_ta_sms_concatenated
000a17bc   _APP_SD_au8German_ta_sms_time
000a1838   _APP_SD_au8German_ta_sorting_order
000a1450   _APP_SD_au8German_ta_stack_clear
000a1444   _APP_SD_au8German_ta_stack_dialled
000a0d48   _APP_SD_au8German_ta_stack_missed
000a0d00   _APP_SD_au8German_ta_stack_received
000a16a8   _APP_SD_au8German_ta_supp_not_possible
000a0e64   _APP_SD_au8German_ta_sw_info
000a1a48   _APP_SD_au8German_ta_switch
000a1b08   _APP_SD_au8German_ta_tag_play
000a0ea4   _APP_SD_au8German_ta_tag_record
000a0bb4   _APP_SD_au8German_ta_time_am
000a1038   _APP_SD_au8German_ta_time_format
000a0bc4   _APP_SD_au8German_ta_time_pm
000a0be0   _APP_SD_au8German_ta_time_standard
000a11d0   _APP_SD_au8German_ta_time_value
000a0e74   _APP_SD_au8German_ta_voice_tag_reset
000a1b24   _APP_SD_au8German_ta_wait_bt_acc_search
000a0f98   _APP_SD_au8German_ta_wait_general
000a4250   _APP_SD_au8Italian_call_head_register
000a42dc   _APP_SD_au8Italian_head_audio_mode
000a4420   _APP_SD_au8Italian_head_bluetooth
000a45c8   _APP_SD_au8Italian_head_device_list
000a4620   _APP_SD_au8Italian_head_headset
000a49f8   _APP_SD_au8Italian_head_messages
000a44bc   _APP_SD_au8Italian_head_settings
000a4324   _APP_SD_au8Italian_head_user
000a4a7c   _APP_SD_au8Italian_new_sms
000a4578   _APP_SD_au8Italian_paired_head_devices
000a4638   _APP_SD_au8Italian_ta_always
000a42cc   _APP_SD_au8Italian_ta_audio_mode
000a4cb0   _APP_SD_au8Italian_ta_backspace
000a4f64   _APP_SD_au8Italian_ta_bt_accessory
000a40f0   _APP_SD_au8Italian_ta_bt_active_device
000a4e7c   _APP_SD_au8Italian_ta_bt_disconnect
000a4618   _APP_SD_au8Italian_ta_bt_headset
000a442c   _APP_SD_au8Italian_ta_bt_no_conn_headset
000a4e4c   _APP_SD_au8Italian_ta_bt_own_name
000a4568   _APP_SD_au8Italian_ta_bt_paired_devices
000a4e88   _APP_SD_au8Italian_ta_bt_rename
000a4c28   _APP_SD_au8Italian_ta_bt_visibility
000a4188   _APP_SD_au8Italian_ta_call_accept
000a41bc   _APP_SD_au8Italian_ta_call_call1
000a41d4   _APP_SD_au8Italian_ta_call_call2
000a405c   _APP_SD_au8Italian_ta_call_diverted
000a44a0   _APP_SD_au8Italian_ta_call_dtmf
000a42ec   _APP_SD_au8Italian_ta_call_end
000a45e4   _APP_SD_au8Italian_ta_call_end_active
000a4160   _APP_SD_au8Italian_ta_call_end_all
000a44cc   _APP_SD_au8Italian_ta_call_handsfree
000a460c   _APP_SD_au8Italian_ta_call_hold
000a4640   _APP_SD_au8Italian_ta_call_info
000a495c   _APP_SD_au8Italian_ta_call_micro_off
000a496c   _APP_SD_au8Italian_ta_call_micro_on
000a4080   _APP_SD_au8Italian_ta_call_reject
000a40fc   _APP_SD_au8Italian_ta_call_resume
000a4b34   _APP_SD_au8Italian_ta_call_service
000a4898   _APP_SD_au8Italian_ta_call_silent
000a4b44   _APP_SD_au8Italian_ta_call_sos
000a4940   _APP_SD_au8Italian_ta_call_swap
000a47fc   _APP_SD_au8Italian_ta_call_waiting
000a4b20   _APP_SD_au8Italian_ta_calls_only
000a4844   _APP_SD_au8Italian_ta_conference
000a50e0   _APP_SD_au8Italian_ta_confirm_pw_in_device
000a50c4   _APP_SD_au8Italian_ta_confirm_pw_with_OK
000a4e98   _APP_SD_au8Italian_ta_connect
000a4494   _APP_SD_au8Italian_ta_date_value
000a45f4   _APP_SD_au8Italian_ta_disconnected
000a41ec   _APP_SD_au8Italian_ta_end_call
000a486c   _APP_SD_au8Italian_ta_err_load_phonebook
000bfb60   _APP_SD_au8Italian_ta_find_mailbox_1
000a44d8   _APP_SD_au8Italian_ta_function_restriction
000a40e0   _APP_SD_au8Italian_ta_head_active_tone
000a41ac   _APP_SD_au8Italian_ta_head_call
000a41c8   _APP_SD_au8Italian_ta_head_call1
000a41e0   _APP_SD_au8Italian_ta_head_call2
000a40d0   _APP_SD_au8Italian_ta_head_call_active
000a41f8   _APP_SD_au8Italian_ta_head_call_hold
000a4bb8   _APP_SD_au8Italian_ta_head_call_setup
000a4220   _APP_SD_au8Italian_ta_head_call_waiting
000a4230   _APP_SD_au8Italian_ta_head_calls
000a4808   _APP_SD_au8Italian_ta_head_conference
000a4814   _APP_SD_au8Italian_ta_head_conference_hold
000a4490   _APP_SD_au8Italian_ta_head_datacall
000a432c   _APP_SD_au8Italian_ta_head_delete_user
000a4b00   _APP_SD_au8Italian_ta_head_dial_nbr
000a44a4   _APP_SD_au8Italian_ta_head_dtmf
000a44c8   _APP_SD_au8Italian_ta_head_faxcall
000a41b4   _APP_SD_au8Italian_ta_head_incoming_call
000a4d14   _APP_SD_au8Italian_ta_head_mailbox
000a4950   _APP_SD_au8Italian_ta_head_media_player
000a427c   _APP_SD_au8Italian_ta_head_nametag
000a4bdc   _APP_SD_au8Italian_ta_head_number
000a430c   _APP_SD_au8Italian_ta_head_options
000a4b50   _APP_SD_au8Italian_ta_head_passkey
000a4d4c   _APP_SD_au8Italian_ta_head_phone
000a4da8   _APP_SD_au8Italian_ta_head_phone_book
000a4e5c   _APP_SD_au8Italian_ta_head_phone_name
000a4ba4   _APP_SD_au8Italian_ta_head_private_call
000a42a4   _APP_SD_au8Italian_ta_head_reset_voice_tag
000a4c58   _APP_SD_au8Italian_ta_head_setting_signals
000a497c   _APP_SD_au8Italian_ta_head_sms
000a49cc   _APP_SD_au8Italian_ta_head_sms_from
000a4c68   _APP_SD_au8Italian_ta_head_sorting_order
000a489c   _APP_SD_au8Italian_ta_head_stack_dialled
000a419c   _APP_SD_au8Italian_ta_head_stack_missed
000a4194   _APP_SD_au8Italian_ta_head_stack_received
000a4350   _APP_SD_au8Italian_ta_head_user
000a4f90   _APP_SD_au8Italian_ta_help_text
000a50a8   _APP_SD_au8Italian_ta_list_back
000a4414   _APP_SD_au8Italian_ta_main_bluetooth
000a4240   _APP_SD_au8Italian_ta_main_callstacks
000a4b10   _APP_SD_au8Italian_ta_main_dial
000a4d04   _APP_SD_au8Italian_ta_main_mailbox
000a4958   _APP_SD_au8Italian_ta_main_menu
000a49f0   _APP_SD_au8Italian_ta_main_messages
000a44b0   _APP_SD_au8Italian_ta_main_settings
000a4948   _APP_SD_au8Italian_ta_media_player
000a4630   _APP_SD_au8Italian_ta_menu_bt_help
000a4238   _APP_SD_au8Italian_ta_menu_call
000a4078   _APP_SD_au8Italian_ta_menu_cancel
000a48c4   _APP_SD_au8Italian_ta_menu_delete
000a4318   _APP_SD_au8Italian_ta_menu_end
000a4aa8   _APP_SD_au8Italian_ta_menu_new_user
000a4794   _APP_SD_au8Italian_ta_menu_no_nbr
000a4b30   _APP_SD_au8Italian_ta_menu_ok
000a4ca4   _APP_SD_au8Italian_ta_menu_save
000a42bc   _APP_SD_au8Italian_ta_menu_show
000a431c   _APP_SD_au8Italian_ta_menu_user
000a4f58   _APP_SD_au8Italian_ta_menu_view
000a4138   _APP_SD_au8Italian_ta_music_paused
000a47dc   _APP_SD_au8Italian_ta_no_media_player_found
000a4f0c   _APP_SD_au8Italian_ta_note_bt_acc_conn
000a4458   _APP_SD_au8Italian_ta_note_bt_conn_impos
000a4ee4   _APP_SD_au8Italian_ta_note_bt_conn_setup
000a4ecc   _APP_SD_au8Italian_ta_note_bt_no_conn
000a4174   _APP_SD_au8Italian_ta_note_bt_passkey_err
000a4dd0   _APP_SD_au8Italian_ta_note_call_estab_failed
000a4828   _APP_SD_au8Italian_ta_note_conf_not_poss
000a4a88   _APP_SD_au8Italian_ta_note_conn_err
000a4eb4   _APP_SD_au8Italian_ta_note_conn_terminated
000a4efc   _APP_SD_au8Italian_ta_note_connected
000a4b80   _APP_SD_au8Italian_ta_note_connecting_player
000a4850   _APP_SD_au8Italian_ta_note_copy_sms_failed
000a48f0   _APP_SD_au8Italian_ta_note_delete_impos_phone_active
000a45b0   _APP_SD_au8Italian_ta_note_deleted
000a4d54   _APP_SD_au8Italian_ta_note_enter_cradle
000a43f8   _APP_SD_au8Italian_ta_note_enter_number
000a4088   _APP_SD_au8Italian_ta_note_ignition
000a4508   _APP_SD_au8Italian_ta_note_info_call
000a4bc0   _APP_SD_au8Italian_ta_note_invalid_number
000a47b0   _APP_SD_au8Italian_ta_note_mailbox_no
000a4390   _APP_SD_au8Italian_ta_note_max_users
000a4208   _APP_SD_au8Italian_ta_note_missed_call
000a4a48   _APP_SD_au8Italian_ta_note_name_exists
000a4a5c   _APP_SD_au8Italian_ta_note_name_stored
000a4a6c   _APP_SD_au8Italian_ta_note_network_busy
000a4ad0   _APP_SD_au8Italian_ta_note_new_pb_available
000a4ab8   _APP_SD_au8Italian_ta_note_new_phone_found
000a4a98   _APP_SD_au8Italian_ta_note_new_sms
000a436c   _APP_SD_au8Italian_ta_note_new_user
000a46d8   _APP_SD_au8Italian_ta_note_no_accessory
000a469c   _APP_SD_au8Italian_ta_note_no_act_device
000a46f0   _APP_SD_au8Italian_ta_note_no_bt_conn_acc
000a4714   _APP_SD_au8Italian_ta_note_no_bt_conn_rsap
000a467c   _APP_SD_au8Italian_ta_note_no_bt_phone
000a4740   _APP_SD_au8Italian_ta_note_no_entries
000a47a0   _APP_SD_au8Italian_ta_note_no_nbr
000a4784   _APP_SD_au8Italian_ta_note_no_network
000a4750   _APP_SD_au8Italian_ta_note_no_paired_dev
000a46b4   _APP_SD_au8Italian_ta_note_no_phone
000a4a00   _APP_SD_au8Italian_ta_note_no_rsap
000a476c   _APP_SD_au8Italian_ta_note_no_sms
000a4650   _APP_SD_au8Italian_ta_note_no_user
000a43c8   _APP_SD_au8Italian_ta_note_number_busy
000a4db0   _APP_SD_au8Italian_ta_note_pb_load_error
000a4e2c   _APP_SD_au8Italian_ta_note_pb_loading_all
000a4de4   _APP_SD_au8Italian_ta_note_pb_not_complete
000a4d2c   _APP_SD_au8Italian_ta_note_pb_refresh_impos
000a4e08   _APP_SD_au8Italian_ta_note_pbook_loading
000a4d74   _APP_SD_au8Italian_ta_note_phone_initiated
000a4284   _APP_SD_au8Italian_ta_note_read_voice_tag
000a49d8   _APP_SD_au8Italian_ta_note_reading_sms
000a4a18   _APP_SD_au8Italian_ta_note_search_phones
000a433c   _APP_SD_au8Italian_ta_note_search_user
000a4b5c   _APP_SD_au8Italian_ta_note_searching_players
000a4538   _APP_SD_au8Italian_ta_note_service_call
000a4c10   _APP_SD_au8Italian_ta_note_service_not_supp
000a4988   _APP_SD_au8Italian_ta_note_sms_deleted
000a499c   _APP_SD_au8Italian_ta_note_sms_no_read
000a48cc   _APP_SD_au8Italian_ta_note_sms_not_deleted
000a4588   _APP_SD_au8Italian_ta_note_sos_call
000a4260   _APP_SD_au8Italian_ta_note_stacks_cleared
000a4c7c   _APP_SD_au8Italian_ta_note_tag_no_memory
000a43b8   _APP_SD_au8Italian_ta_note_user_connected
000a45bc   _APP_SD_au8Italian_ta_note_user_deleted
000a43d0   _APP_SD_au8Italian_ta_note_user_not_created
000a44f4   _APP_SD_au8Italian_ta_note_visible
000a4ce4   _APP_SD_au8Italian_ta_note_voice_active
000a4cb8   _APP_SD_au8Italian_ta_note_voice_not_ready
000a4294   _APP_SD_au8Italian_ta_note_voice_tag_reset
000a4f34   _APP_SD_au8Italian_ta_note_wait_reply
000a4af8   _APP_SD_au8Italian_ta_number
000a4300   _APP_SD_au8Italian_ta_off
000a44a8   _APP_SD_au8Italian_ta_on
000a4104   _APP_SD_au8Italian_ta_pb_download
000a4280   _APP_SD_au8Italian_ta_pb_nametag
000a4f30   _APP_SD_au8Italian_ta_pb_sort_firstname
000a4a40   _APP_SD_au8Italian_ta_pb_sort_lastname
000a4da0   _APP_SD_au8Italian_ta_phone_book
000a50b0   _APP_SD_au8Italian_ta_phone_no_answer
000a4e6c   _APP_SD_au8Italian_ta_phone_search
000a4b98   _APP_SD_au8Italian_ta_private_call
000a4ea0   _APP_SD_au8Italian_ta_query_connect
000a40b0   _APP_SD_au8Italian_ta_query_del_act_device
000a40c0   _APP_SD_au8Italian_ta_query_del_act_user
000a4924   _APP_SD_au8Italian_ta_query_del_device
000a411c   _APP_SD_au8Italian_ta_query_delete_log
000a49b8   _APP_SD_au8Italian_ta_query_delete_sms
000a4930   _APP_SD_au8Italian_ta_query_delete_user
000a4358   _APP_SD_au8Italian_ta_query_new_user
000a4110   _APP_SD_au8Italian_ta_query_terminate_conn
000a4c34   _APP_SD_au8Italian_ta_query_visibility
000a4f28   _APP_SD_au8Italian_ta_read_out_sms
000a45d8   _APP_SD_au8Italian_ta_replace
000a4d24   _APP_SD_au8Italian_ta_search
000a4c48   _APP_SD_au8Italian_ta_setting_signals
000a4be4   _APP_SD_au8Italian_ta_setting_tone
000a4bb0   _APP_SD_au8Italian_ta_sms_call
000a4bec   _APP_SD_au8Italian_ta_sms_concatenated
000a4c04   _APP_SD_au8Italian_ta_sms_time
000a4c74   _APP_SD_au8Italian_ta_sorting_order
000a48b4   _APP_SD_au8Italian_ta_stack_clear
000a48a8   _APP_SD_au8Italian_ta_stack_dialled
000a41a4   _APP_SD_au8Italian_ta_stack_missed
000a416c   _APP_SD_au8Italian_ta_stack_received
000a4ae8   _APP_SD_au8Italian_ta_supp_not_possible
000a42b4   _APP_SD_au8Italian_ta_sw_info
000a4e90   _APP_SD_au8Italian_ta_switch
000a4f4c   _APP_SD_au8Italian_ta_tag_play
000a42f8   _APP_SD_au8Italian_ta_tag_record
000a403c   _APP_SD_au8Italian_ta_time_am
000a4488   _APP_SD_au8Italian_ta_time_format
000a404c   _APP_SD_au8Italian_ta_time_pm
000a4068   _APP_SD_au8Italian_ta_time_standard
000a4628   _APP_SD_au8Italian_ta_time_value
000a42c4   _APP_SD_au8Italian_ta_voice_tag_reset
000a4f6c   _APP_SD_au8Italian_ta_wait_bt_acc_search
000a43e8   _APP_SD_au8Italian_ta_wait_general
000ae55c   _APP_SD_au8Norwegian_call_head_register
000ae600   _APP_SD_au8Norwegian_head_audio_mode
000ae734   _APP_SD_au8Norwegian_head_bluetooth
000ae904   _APP_SD_au8Norwegian_head_device_list
000ae948   _APP_SD_au8Norwegian_head_headset
000aece8   _APP_SD_au8Norwegian_head_messages
000ae7e8   _APP_SD_au8Norwegian_head_settings
000ae63c   _APP_SD_au8Norwegian_head_user
000aed84   _APP_SD_au8Norwegian_new_sms
000ae8b4   _APP_SD_au8Norwegian_paired_head_devices
000ae964   _APP_SD_au8Norwegian_ta_always
000ae5f4   _APP_SD_au8Norwegian_ta_audio_mode
000aef98   _APP_SD_au8Norwegian_ta_backspace
000af1f0   _APP_SD_au8Norwegian_ta_bt_accessory
000ae404   _APP_SD_au8Norwegian_ta_bt_active_device
000af11c   _APP_SD_au8Norwegian_ta_bt_disconnect
000ae93c   _APP_SD_au8Norwegian_ta_bt_headset
000ae740   _APP_SD_au8Norwegian_ta_bt_no_conn_headset
000af0f8   _APP_SD_au8Norwegian_ta_bt_own_name
000ae8a4   _APP_SD_au8Norwegian_ta_bt_paired_devices
000af124   _APP_SD_au8Norwegian_ta_bt_rename
000aef18   _APP_SD_au8Norwegian_ta_bt_visibility
000ae4a8   _APP_SD_au8Norwegian_ta_call_accept
000ae4e4   _APP_SD_au8Norwegian_ta_call_call1
000ae4f4   _APP_SD_au8Norwegian_ta_call_call2
000ae370   _APP_SD_au8Norwegian_ta_call_diverted
000ae7cc   _APP_SD_au8Norwegian_ta_call_dtmf
000ae60c   _APP_SD_au8Norwegian_ta_call_end
000ae918   _APP_SD_au8Norwegian_ta_call_end_active
000ae47c   _APP_SD_au8Norwegian_ta_call_end_all
000ae804   _APP_SD_au8Norwegian_ta_call_handsfree
000ae934   _APP_SD_au8Norwegian_ta_call_hold
000ae96c   _APP_SD_au8Norwegian_ta_call_info
000aec64   _APP_SD_au8Norwegian_ta_call_micro_off
000aec70   _APP_SD_au8Norwegian_ta_call_micro_on
000ae398   _APP_SD_au8Norwegian_ta_call_reject
000ae414   _APP_SD_au8Norwegian_ta_call_resume
000aee28   _APP_SD_au8Norwegian_ta_call_service
000aebbc   _APP_SD_au8Norwegian_ta_call_silent
000aee34   _APP_SD_au8Norwegian_ta_call_sos
000aec38   _APP_SD_au8Norwegian_ta_call_swap
000aeb38   _APP_SD_au8Norwegian_ta_call_waiting
000aee14   _APP_SD_au8Norwegian_ta_calls_only
000aeb7c   _APP_SD_au8Norwegian_ta_conference
000af340   _APP_SD_au8Norwegian_ta_confirm_pw_in_device
000af328   _APP_SD_au8Norwegian_ta_confirm_pw_with_OK
000af138   _APP_SD_au8Norwegian_ta_connect
000ae7bc   _APP_SD_au8Norwegian_ta_date_value
000ae928   _APP_SD_au8Norwegian_ta_disconnected
000ae504   _APP_SD_au8Norwegian_ta_end_call
000aeba0   _APP_SD_au8Norwegian_ta_err_load_phonebook
000bfcb8   _APP_SD_au8Norwegian_ta_find_mailbox_1
000bfcc8   _APP_SD_au8Norwegian_ta_find_mailbox_2
000bfcd4   _APP_SD_au8Norwegian_ta_find_mailbox_3
000bfce4   _APP_SD_au8Norwegian_ta_find_mailbox_4
000ae80c   _APP_SD_au8Norwegian_ta_function_restriction
000ae3f4   _APP_SD_au8Norwegian_ta_head_active_tone
000ae4d4   _APP_SD_au8Norwegian_ta_head_call
000ae4ec   _APP_SD_au8Norwegian_ta_head_call1
000ae4fc   _APP_SD_au8Norwegian_ta_head_call2
000ae3e8   _APP_SD_au8Norwegian_ta_head_call_active
000ae514   _APP_SD_au8Norwegian_ta_head_call_hold
000aeea8   _APP_SD_au8Norwegian_ta_head_call_setup
000ae534   _APP_SD_au8Norwegian_ta_head_call_waiting
000ae540   _APP_SD_au8Norwegian_ta_head_calls
000aeb40   _APP_SD_au8Norwegian_ta_head_conference
000aeb4c   _APP_SD_au8Norwegian_ta_head_conference_hold
000ae7b0   _APP_SD_au8Norwegian_ta_head_datacall
000ae644   _APP_SD_au8Norwegian_ta_head_delete_user
000aedfc   _APP_SD_au8Norwegian_ta_head_dial_nbr
000ae7d0   _APP_SD_au8Norwegian_ta_head_dtmf
000ae7f8   _APP_SD_au8Norwegian_ta_head_faxcall
000ae4dc   _APP_SD_au8Norwegian_ta_head_incoming_call
000aefe4   _APP_SD_au8Norwegian_ta_head_mailbox
000aec54   _APP_SD_au8Norwegian_ta_head_media_player
000ae580   _APP_SD_au8Norwegian_ta_head_nametag
000aeec8   _APP_SD_au8Norwegian_ta_head_number
000ae620   _APP_SD_au8Norwegian_ta_head_options
000aee3c   _APP_SD_au8Norwegian_ta_head_passkey
000af014   _APP_SD_au8Norwegian_ta_head_phone
000af06c   _APP_SD_au8Norwegian_ta_head_phone_book
000af104   _APP_SD_au8Norwegian_ta_head_phone_name
000aee8c   _APP_SD_au8Norwegian_ta_head_private_call
000ae5c8   _APP_SD_au8Norwegian_ta_head_reset_voice_tag
000aef48   _APP_SD_au8Norwegian_ta_head_setting_signals
000aec7c   _APP_SD_au8Norwegian_ta_head_sms
000aecbc   _APP_SD_au8Norwegian_ta_head_sms_from
000aef5c   _APP_SD_au8Norwegian_ta_head_sorting_order
000aebc0   _APP_SD_au8Norwegian_ta_head_stack_dialled
000ae4b8   _APP_SD_au8Norwegian_ta_head_stack_missed
000ae4b0   _APP_SD_au8Norwegian_ta_head_stack_received
000ae668   _APP_SD_au8Norwegian_ta_head_user
000af224   _APP_SD_au8Norwegian_ta_help_text
000af308   _APP_SD_au8Norwegian_ta_list_back
000ae728   _APP_SD_au8Norwegian_ta_main_bluetooth
000ae550   _APP_SD_au8Norwegian_ta_main_callstacks
000aee08   _APP_SD_au8Norwegian_ta_main_dial
000aefd4   _APP_SD_au8Norwegian_ta_main_mailbox
000aec60   _APP_SD_au8Norwegian_ta_main_menu
000aecdc   _APP_SD_au8Norwegian_ta_main_messages
000ae7d8   _APP_SD_au8Norwegian_ta_main_settings
000aec48   _APP_SD_au8Norwegian_ta_media_player
000ae95c   _APP_SD_au8Norwegian_ta_menu_bt_help
000ae54c   _APP_SD_au8Norwegian_ta_menu_call
000ae390   _APP_SD_au8Norwegian_ta_menu_cancel
000aebdc   _APP_SD_au8Norwegian_ta_menu_delete
000ae62c   _APP_SD_au8Norwegian_ta_menu_end
000aeda8   _APP_SD_au8Norwegian_ta_menu_new_user
000aeae0   _APP_SD_au8Norwegian_ta_menu_no_nbr
000aee24   _APP_SD_au8Norwegian_ta_menu_ok
000aef90   _APP_SD_au8Norwegian_ta_menu_save
000ae5e4   _APP_SD_au8Norwegian_ta_menu_show
000ae634   _APP_SD_au8Norwegian_ta_menu_user
000af1ec   _APP_SD_au8Norwegian_ta_menu_view
000ae458   _APP_SD_au8Norwegian_ta_music_paused
000aeb14   _APP_SD_au8Norwegian_ta_no_media_player_found
000af1a0   _APP_SD_au8Norwegian_ta_note_bt_acc_conn
000ae774   _APP_SD_au8Norwegian_ta_note_bt_conn_impos
000af180   _APP_SD_au8Norwegian_ta_note_bt_conn_setup
000af168   _APP_SD_au8Norwegian_ta_note_bt_no_conn
000ae490   _APP_SD_au8Norwegian_ta_note_bt_passkey_err
000af094   _APP_SD_au8Norwegian_ta_note_call_estab_failed
000aeb60   _APP_SD_au8Norwegian_ta_note_conf_not_poss
000aed8c   _APP_SD_au8Norwegian_ta_note_conn_err
000af154   _APP_SD_au8Norwegian_ta_note_conn_terminated
000af194   _APP_SD_au8Norwegian_ta_note_connected
000aee68   _APP_SD_au8Norwegian_ta_note_connecting_player
000aeb88   _APP_SD_au8Norwegian_ta_note_copy_sms_failed
000aebfc   _APP_SD_au8Norwegian_ta_note_delete_impos_phone_active
000ae8f0   _APP_SD_au8Norwegian_ta_note_deleted
000af01c   _APP_SD_au8Norwegian_ta_note_enter_cradle
000ae710   _APP_SD_au8Norwegian_ta_note_enter_number
000ae3a0   _APP_SD_au8Norwegian_ta_note_ignition
000ae84c   _APP_SD_au8Norwegian_ta_note_info_call
000aeeb4   _APP_SD_au8Norwegian_ta_note_invalid_number
000aeaf4   _APP_SD_au8Norwegian_ta_note_mailbox_no
000ae6a8   _APP_SD_au8Norwegian_ta_note_max_users
000ae524   _APP_SD_au8Norwegian_ta_note_missed_call
000aed48   _APP_SD_au8Norwegian_ta_note_name_exists
000aed60   _APP_SD_au8Norwegian_ta_note_name_stored
000aed70   _APP_SD_au8Norwegian_ta_note_network_busy
000aedcc   _APP_SD_au8Norwegian_ta_note_new_pb_available
000aedb4   _APP_SD_au8Norwegian_ta_note_new_phone_found
000aed9c   _APP_SD_au8Norwegian_ta_note_new_sms
000ae684   _APP_SD_au8Norwegian_ta_note_new_user
000aea04   _APP_SD_au8Norwegian_ta_note_no_accessory
000ae9c8   _APP_SD_au8Norwegian_ta_note_no_act_device
000aea1c   _APP_SD_au8Norwegian_ta_note_no_bt_conn_acc
000aea40   _APP_SD_au8Norwegian_ta_note_no_bt_conn_rsap
000ae9a8   _APP_SD_au8Norwegian_ta_note_no_bt_phone
000aea6c   _APP_SD_au8Norwegian_ta_note_no_entries
000aeae8   _APP_SD_au8Norwegian_ta_note_no_nbr
000aeac4   _APP_SD_au8Norwegian_ta_note_no_network
000aea8c   _APP_SD_au8Norwegian_ta_note_no_paired_dev
000ae9e0   _APP_SD_au8Norwegian_ta_note_no_phone
000aecf4   _APP_SD_au8Norwegian_ta_note_no_rsap
000aeaa8   _APP_SD_au8Norwegian_ta_note_no_sms
000ae978   _APP_SD_au8Norwegian_ta_note_no_user
000ae6e0   _APP_SD_au8Norwegian_ta_note_number_busy
000af078   _APP_SD_au8Norwegian_ta_note_pb_load_error
000af0e4   _APP_SD_au8Norwegian_ta_note_pb_loading_all
000af09c   _APP_SD_au8Norwegian_ta_note_pb_not_complete
000aeff8   _APP_SD_au8Norwegian_ta_note_pb_refresh_impos
000af0c0   _APP_SD_au8Norwegian_ta_note_pbook_loading
000af03c   _APP_SD_au8Norwegian_ta_note_phone_initiated
000ae598   _APP_SD_au8Norwegian_ta_note_read_voice_tag
000aecc8   _APP_SD_au8Norwegian_ta_note_reading_sms
000aed14   _APP_SD_au8Norwegian_ta_note_search_phones
000ae654   _APP_SD_au8Norwegian_ta_note_search_user
000aee44   _APP_SD_au8Norwegian_ta_note_searching_players
000ae878   _APP_SD_au8Norwegian_ta_note_service_call
000aef00   _APP_SD_au8Norwegian_ta_note_service_not_supp
000aec84   _APP_SD_au8Norwegian_ta_note_sms_deleted
000aec98   _APP_SD_au8Norwegian_ta_note_sms_no_read
000aebe4   _APP_SD_au8Norwegian_ta_note_sms_not_deleted
000ae8c4   _APP_SD_au8Norwegian_ta_note_sos_call
000ae568   _APP_SD_au8Norwegian_ta_note_stacks_cleared
000aef74   _APP_SD_au8Norwegian_ta_note_tag_no_memory
000ae6c8   _APP_SD_au8Norwegian_ta_note_user_connected
000ae8f8   _APP_SD_au8Norwegian_ta_note_user_deleted
000ae6e8   _APP_SD_au8Norwegian_ta_note_user_not_created
000ae838   _APP_SD_au8Norwegian_ta_note_visible
000aefbc   _APP_SD_au8Norwegian_ta_note_voice_active
000aefa0   _APP_SD_au8Norwegian_ta_note_voice_not_ready
000ae5b0   _APP_SD_au8Norwegian_ta_note_voice_tag_reset
000af1d4   _APP_SD_au8Norwegian_ta_note_wait_reply
000aedf4   _APP_SD_au8Norwegian_ta_number
000ae61c   _APP_SD_au8Norwegian_ta_off
000ae7d4   _APP_SD_au8Norwegian_ta_on
000ae41c   _APP_SD_au8Norwegian_ta_pb_download
000ae58c   _APP_SD_au8Norwegian_ta_pb_nametag
000af1cc   _APP_SD_au8Norwegian_ta_pb_sort_firstname
000aed3c   _APP_SD_au8Norwegian_ta_pb_sort_lastname
000af060   _APP_SD_au8Norwegian_ta_phone_book
000af310   _APP_SD_au8Norwegian_ta_phone_no_answer
000af110   _APP_SD_au8Norwegian_ta_phone_search
000aee7c   _APP_SD_au8Norwegian_ta_private_call
000af144   _APP_SD_au8Norwegian_ta_query_connect
000ae3c8   _APP_SD_au8Norwegian_ta_query_del_act_device
000ae3d8   _APP_SD_au8Norwegian_ta_query_del_act_user
000aec24   _APP_SD_au8Norwegian_ta_query_del_device
000ae440   _APP_SD_au8Norwegian_ta_query_delete_log
000aecac   _APP_SD_au8Norwegian_ta_query_delete_sms
000aec2c   _APP_SD_au8Norwegian_ta_query_delete_user
000ae670   _APP_SD_au8Norwegian_ta_query_new_user
000ae424   _APP_SD_au8Norwegian_ta_query_terminate_conn
000aef24   _APP_SD_au8Norwegian_ta_query_visibility
000af1c0   _APP_SD_au8Norwegian_ta_read_out_sms
000ae910   _APP_SD_au8Norwegian_ta_replace
000aeff4   _APP_SD_au8Norwegian_ta_search
000aef38   _APP_SD_au8Norwegian_ta_setting_signals
000aeed8   _APP_SD_au8Norwegian_ta_setting_tone
000aee9c   _APP_SD_au8Norwegian_ta_sms_call
000aeee4   _APP_SD_au8Norwegian_ta_sms_concatenated
000aeef8   _APP_SD_au8Norwegian_ta_sms_time
000aef68   _APP_SD_au8Norwegian_ta_sorting_order
000aebd0   _APP_SD_au8Norwegian_ta_stack_clear
000aebc8   _APP_SD_au8Norwegian_ta_stack_dialled
000ae4c8   _APP_SD_au8Norwegian_ta_stack_missed
000ae488   _APP_SD_au8Norwegian_ta_stack_received
000aede8   _APP_SD_au8Norwegian_ta_supp_not_possible
000ae5dc   _APP_SD_au8Norwegian_ta_sw_info
000af130   _APP_SD_au8Norwegian_ta_switch
000af1e4   _APP_SD_au8Norwegian_ta_tag_play
000ae614   _APP_SD_au8Norwegian_ta_tag_record
000ae350   _APP_SD_au8Norwegian_ta_time_am
000ae7a8   _APP_SD_au8Norwegian_ta_time_format
000ae360   _APP_SD_au8Norwegian_ta_time_pm
000ae380   _APP_SD_au8Norwegian_ta_time_standard
000ae954   _APP_SD_au8Norwegian_ta_time_value
000ae5e8   _APP_SD_au8Norwegian_ta_voice_tag_reset
000af1fc   _APP_SD_au8Norwegian_ta_wait_bt_acc_search
000ae700   _APP_SD_au8Norwegian_ta_wait_general
000af5b4   _APP_SD_au8Polish_call_head_register
000af684   _APP_SD_au8Polish_head_audio_mode
000af7d0   _APP_SD_au8Polish_head_bluetooth
000af9b0   _APP_SD_au8Polish_head_device_list
000afa08   _APP_SD_au8Polish_head_headset
000afe30   _APP_SD_au8Polish_head_messages
000af888   _APP_SD_au8Polish_head_settings
000af6c4   _APP_SD_au8Polish_head_user
000afec0   _APP_SD_au8Polish_new_sms
000af95c   _APP_SD_au8Polish_paired_head_devices
000afa28   _APP_SD_au8Polish_ta_always
000af678   _APP_SD_au8Polish_ta_audio_mode
000b00f4   _APP_SD_au8Polish_ta_backspace
000b03cc   _APP_SD_au8Polish_ta_bt_accessory
000af418   _APP_SD_au8Polish_ta_bt_active_device
000b02d4   _APP_SD_au8Polish_ta_bt_disconnect
000af9f8   _APP_SD_au8Polish_ta_bt_headset
000af7dc   _APP_SD_au8Polish_ta_bt_no_conn_headset
000b02a8   _APP_SD_au8Polish_ta_bt_own_name
000af948   _APP_SD_au8Polish_ta_bt_paired_devices
000b02e0   _APP_SD_au8Polish_ta_bt_rename
000b0074   _APP_SD_au8Polish_ta_bt_visibility
000af4c0   _APP_SD_au8Polish_ta_call_accept
000af500   _APP_SD_au8Polish_ta_call_call1
000af520   _APP_SD_au8Polish_ta_call_call2
000af37c   _APP_SD_au8Polish_ta_call_diverted
000af86c   _APP_SD_au8Polish_ta_call_dtmf
000af690   _APP_SD_au8Polish_ta_call_end
000af9c8   _APP_SD_au8Polish_ta_call_end_active
000af494   _APP_SD_au8Polish_ta_call_end_all
000af898   _APP_SD_au8Polish_ta_call_handsfree
000af9e4   _APP_SD_au8Polish_ta_call_hold
000afa30   _APP_SD_au8Polish_ta_call_info
000afd80   _APP_SD_au8Polish_ta_call_micro_off
000afd90   _APP_SD_au8Polish_ta_call_micro_on
000af3a4   _APP_SD_au8Polish_ta_call_reject
000af428   _APP_SD_au8Polish_ta_call_resume
000aff70   _APP_SD_au8Polish_ta_call_service
000afcc0   _APP_SD_au8Polish_ta_call_silent
000aff80   _APP_SD_au8Polish_ta_call_sos
000afd58   _APP_SD_au8Polish_ta_call_swap
000afc0c   _APP_SD_au8Polish_ta_call_waiting
000aff5c   _APP_SD_au8Polish_ta_calls_only
000afc64   _APP_SD_au8Polish_ta_conference
000b0544   _APP_SD_au8Polish_ta_confirm_pw_in_device
000b0524   _APP_SD_au8Polish_ta_confirm_pw_with_OK
000b02fc   _APP_SD_au8Polish_ta_connect
000af860   _APP_SD_au8Polish_ta_date_value
000af9d8   _APP_SD_au8Polish_ta_disconnected
000af540   _APP_SD_au8Polish_ta_end_call
000afc9c   _APP_SD_au8Polish_ta_err_load_phonebook
000bfcf4   _APP_SD_au8Polish_ta_find_mailbox_1
000bfd04   _APP_SD_au8Polish_ta_find_mailbox_2
000bfd0c   _APP_SD_au8Polish_ta_find_mailbox_3
000bfd20   _APP_SD_au8Polish_ta_find_mailbox_4
000af8a8   _APP_SD_au8Polish_ta_function_restriction
000af404   _APP_SD_au8Polish_ta_head_active_tone
000af4e8   _APP_SD_au8Polish_ta_head_call
000af510   _APP_SD_au8Polish_ta_head_call1
000af530   _APP_SD_au8Polish_ta_head_call2
000af3f4   _APP_SD_au8Polish_ta_head_call_active
000af550   _APP_SD_au8Polish_ta_head_call_hold
000afff8   _APP_SD_au8Polish_ta_head_call_setup
000af57c   _APP_SD_au8Polish_ta_head_call_waiting
000af58c   _APP_SD_au8Polish_ta_head_calls
000afc18   _APP_SD_au8Polish_ta_head_conference
000afc24   _APP_SD_au8Polish_ta_head_conference_hold
000af850   _APP_SD_au8Polish_ta_head_datacall
000af6d0   _APP_SD_au8Polish_ta_head_delete_user
000aff3c   _APP_SD_au8Polish_ta_head_dial_nbr
000af870   _APP_SD_au8Polish_ta_head_dtmf
000af894   _APP_SD_au8Polish_ta_head_faxcall
000af4f4   _APP_SD_au8Polish_ta_head_incoming_call
000b014c   _APP_SD_au8Polish_ta_head_mailbox
000afd70   _APP_SD_au8Polish_ta_head_media_player
000af5e4   _APP_SD_au8Polish_ta_head_nametag
000b0018   _APP_SD_au8Polish_ta_head_number
000af6a8   _APP_SD_au8Polish_ta_head_options
000aff84   _APP_SD_au8Polish_ta_head_passkey
000b0194   _APP_SD_au8Polish_ta_head_phone
000b01e8   _APP_SD_au8Polish_ta_head_phone_book
000b02b8   _APP_SD_au8Polish_ta_head_phone_name
000affe0   _APP_SD_au8Polish_ta_head_private_call
000af640   _APP_SD_au8Polish_ta_head_reset_voice_tag
000b00a8   _APP_SD_au8Polish_ta_head_setting_signals
000afda4   _APP_SD_au8Polish_ta_head_sms
000afdfc   _APP_SD_au8Polish_ta_head_sms_from
000b00b8   _APP_SD_au8Polish_ta_head_sorting_order
000afcd0   _APP_SD_au8Polish_ta_head_stack_dialled
000af4d0   _APP_SD_au8Polish_ta_head_stack_missed
000af4c8   _APP_SD_au8Polish_ta_head_stack_received
000af700   _APP_SD_au8Polish_ta_head_user
000b03fc   _APP_SD_au8Polish_ta_help_text
000b04fc   _APP_SD_au8Polish_ta_list_back
000af7c4   _APP_SD_au8Polish_ta_main_bluetooth
000af5a0   _APP_SD_au8Polish_ta_main_callstacks
000aff4c   _APP_SD_au8Polish_ta_main_dial
000b013c   _APP_SD_au8Polish_ta_main_mailbox
000afd7c   _APP_SD_au8Polish_ta_main_menu
000afe24   _APP_SD_au8Polish_ta_main_messages
000af87c   _APP_SD_au8Polish_ta_main_settings
000afd64   _APP_SD_au8Polish_ta_media_player
000afa20   _APP_SD_au8Polish_ta_menu_bt_help
000af598   _APP_SD_au8Polish_ta_menu_call
000af39c   _APP_SD_au8Polish_ta_menu_cancel
000afcf4   _APP_SD_au8Polish_ta_menu_delete
000af6b0   _APP_SD_au8Polish_ta_menu_end
000afee4   _APP_SD_au8Polish_ta_menu_new_user
000afba8   _APP_SD_au8Polish_ta_menu_no_nbr
000aff6c   _APP_SD_au8Polish_ta_menu_ok
000b00ec   _APP_SD_au8Polish_ta_menu_save
000af664   _APP_SD_au8Polish_ta_menu_show
000af6b8   _APP_SD_au8Polish_ta_menu_user
000b03c4   _APP_SD_au8Polish_ta_menu_view
000af478   _APP_SD_au8Polish_ta_music_paused
000afbe4   _APP_SD_au8Polish_ta_no_media_player_found
000b0368   _APP_SD_au8Polish_ta_note_bt_acc_conn
000af814   _APP_SD_au8Polish_ta_note_bt_conn_impos
000b0344   _APP_SD_au8Polish_ta_note_bt_conn_setup
000b032c   _APP_SD_au8Polish_ta_note_bt_no_conn
000af4ac   _APP_SD_au8Polish_ta_note_bt_passkey_err
000b0220   _APP_SD_au8Polish_ta_note_call_estab_failed
000afc44   _APP_SD_au8Polish_ta_note_conf_not_poss
000afec8   _APP_SD_au8Polish_ta_note_conn_err
000b0314   _APP_SD_au8Polish_ta_note_conn_terminated
000b0358   _APP_SD_au8Polish_ta_note_connected
000affb8   _APP_SD_au8Polish_ta_note_connecting_player
000afc70   _APP_SD_au8Polish_ta_note_copy_sms_failed
000afd14   _APP_SD_au8Polish_ta_note_delete_impos_phone_active
000af998   _APP_SD_au8Polish_ta_note_deleted
000b019c   _APP_SD_au8Polish_ta_note_enter_cradle
000af7ac   _APP_SD_au8Polish_ta_note_enter_number
000af3ac   _APP_SD_au8Polish_ta_note_ignition
000af8dc   _APP_SD_au8Polish_ta_note_info_call
000b0004   _APP_SD_au8Polish_ta_note_invalid_number
000afbc0   _APP_SD_au8Polish_ta_note_mailbox_no
000af74c   _APP_SD_au8Polish_ta_note_max_users
000af564   _APP_SD_au8Polish_ta_note_missed_call
000afe84   _APP_SD_au8Polish_ta_note_name_exists
000afe98   _APP_SD_au8Polish_ta_note_name_stored
000afea8   _APP_SD_au8Polish_ta_note_network_busy
000aff0c   _APP_SD_au8Polish_ta_note_new_pb_available
000afef0   _APP_SD_au8Polish_ta_note_new_phone_found
000afed4   _APP_SD_au8Polish_ta_note_new_sms
000af728   _APP_SD_au8Polish_ta_note_new_user
000afae0   _APP_SD_au8Polish_ta_note_no_accessory
000afa98   _APP_SD_au8Polish_ta_note_no_act_device
000afb04   _APP_SD_au8Polish_ta_note_no_bt_conn_acc
000afb24   _APP_SD_au8Polish_ta_note_no_bt_conn_rsap
000afa78   _APP_SD_au8Polish_ta_note_no_bt_phone
000afb54   _APP_SD_au8Polish_ta_note_no_entries
000afbb0   _APP_SD_au8Polish_ta_note_no_nbr
000afb8c   _APP_SD_au8Polish_ta_note_no_network
000afb60   _APP_SD_au8Polish_ta_note_no_paired_dev
000afabc   _APP_SD_au8Polish_ta_note_no_phone
000afe3c   _APP_SD_au8Polish_ta_note_no_rsap
000afb7c   _APP_SD_au8Polish_ta_note_no_sms
000afa44   _APP_SD_au8Polish_ta_note_no_user
000af780   _APP_SD_au8Polish_ta_note_number_busy
000b01f8   _APP_SD_au8Polish_ta_note_pb_load_error
000b0288   _APP_SD_au8Polish_ta_note_pb_loading_all
000b0238   _APP_SD_au8Polish_ta_note_pb_not_complete
000b0164   _APP_SD_au8Polish_ta_note_pb_refresh_impos
000b0264   _APP_SD_au8Polish_ta_note_pbook_loading
000b01b8   _APP_SD_au8Polish_ta_note_phone_initiated
000af604   _APP_SD_au8Polish_ta_note_read_voice_tag
000afe0c   _APP_SD_au8Polish_ta_note_reading_sms
000afe60   _APP_SD_au8Polish_ta_note_search_phones
000af6e4   _APP_SD_au8Polish_ta_note_search_user
000aff8c   _APP_SD_au8Polish_ta_note_searching_players
000af910   _APP_SD_au8Polish_ta_note_service_call
000b005c   _APP_SD_au8Polish_ta_note_service_not_supp
000afdb0   _APP_SD_au8Polish_ta_note_sms_deleted
000afdc4   _APP_SD_au8Polish_ta_note_sms_no_read
000afcfc   _APP_SD_au8Polish_ta_note_sms_not_deleted
000af970   _APP_SD_au8Polish_ta_note_sos_call
000af5c8   _APP_SD_au8Polish_ta_note_stacks_cleared
000b00c8   _APP_SD_au8Polish_ta_note_tag_no_memory
000af76c   _APP_SD_au8Polish_ta_note_user_connected
000af9a4   _APP_SD_au8Polish_ta_note_user_deleted
000af788   _APP_SD_au8Polish_ta_note_user_not_created
000af8cc   _APP_SD_au8Polish_ta_note_visible
000b0124   _APP_SD_au8Polish_ta_note_voice_active
000b00fc   _APP_SD_au8Polish_ta_note_voice_not_ready
000af624   _APP_SD_au8Polish_ta_note_voice_tag_reset
000b03a4   _APP_SD_au8Polish_ta_note_wait_reply
000aff34   _APP_SD_au8Polish_ta_number
000af6a0   _APP_SD_au8Polish_ta_off
000af874   _APP_SD_au8Polish_ta_on
000af430   _APP_SD_au8Polish_ta_pb_download
000af5f4   _APP_SD_au8Polish_ta_pb_nametag
000b039c   _APP_SD_au8Polish_ta_pb_sort_firstname
000afe7c   _APP_SD_au8Polish_ta_pb_sort_lastname
000b01d8   _APP_SD_au8Polish_ta_phone_book
000b0504   _APP_SD_au8Polish_ta_phone_no_answer
000b02c8   _APP_SD_au8Polish_ta_phone_search
000affd0   _APP_SD_au8Polish_ta_private_call
000b0304   _APP_SD_au8Polish_ta_query_connect
000af3d4   _APP_SD_au8Polish_ta_query_del_act_device
000af3e4   _APP_SD_au8Polish_ta_query_del_act_user
000afd40   _APP_SD_au8Polish_ta_query_del_device
000af458   _APP_SD_au8Polish_ta_query_delete_log
000afde4   _APP_SD_au8Polish_ta_query_delete_sms
000afd4c   _APP_SD_au8Polish_ta_query_delete_user
000af70c   _APP_SD_au8Polish_ta_query_new_user
000af43c   _APP_SD_au8Polish_ta_query_terminate_conn
000b0080   _APP_SD_au8Polish_ta_query_visibility
000b0390   _APP_SD_au8Polish_ta_read_out_sms
000af9c0   _APP_SD_au8Polish_ta_replace
000b015c   _APP_SD_au8Polish_ta_search
000b0098   _APP_SD_au8Polish_ta_setting_signals
000b0024   _APP_SD_au8Polish_ta_setting_tone
000afff0   _APP_SD_au8Polish_ta_sms_call
000b0034   _APP_SD_au8Polish_ta_sms_concatenated
000b004c   _APP_SD_au8Polish_ta_sms_time
000b00c0   _APP_SD_au8Polish_ta_sorting_order
000afce8   _APP_SD_au8Polish_ta_stack_clear
000afcdc   _APP_SD_au8Polish_ta_stack_dialled
000af4dc   _APP_SD_au8Polish_ta_stack_missed
000af4a4   _APP_SD_au8Polish_ta_stack_received
000aff28   _APP_SD_au8Polish_ta_supp_not_possible
000af65c   _APP_SD_au8Polish_ta_sw_info
000b02f0   _APP_SD_au8Polish_ta_switch
000b03bc   _APP_SD_au8Polish_ta_tag_play
000af698   _APP_SD_au8Polish_ta_tag_record
000af35c   _APP_SD_au8Polish_ta_time_am
000af848   _APP_SD_au8Polish_ta_time_format
000af36c   _APP_SD_au8Polish_ta_time_pm
000af38c   _APP_SD_au8Polish_ta_time_standard
000afa18   _APP_SD_au8Polish_ta_time_value
000af66c   _APP_SD_au8Polish_ta_voice_tag_reset
000b03dc   _APP_SD_au8Polish_ta_wait_bt_acc_search
000af7a4   _APP_SD_au8Polish_ta_wait_general
000a6568   _APP_SD_au8Portugese_call_head_register
000a6608   _APP_SD_au8Portugese_head_audio_mode
000a673c   _APP_SD_au8Portugese_head_bluetooth
000a68f8   _APP_SD_au8Portugese_head_device_list
000a6944   _APP_SD_au8Portugese_head_headset
000a6d2c   _APP_SD_au8Portugese_head_messages
000a67dc   _APP_SD_au8Portugese_head_settings
000a6648   _APP_SD_au8Portugese_head_user
000a6dac   _APP_SD_au8Portugese_new_sms
000a68ac   _APP_SD_au8Portugese_paired_head_devices
000a6960   _APP_SD_au8Portugese_ta_always
000a65fc   _APP_SD_au8Portugese_ta_audio_mode
000a6fec   _APP_SD_au8Portugese_ta_backspace
000a728c   _APP_SD_au8Portugese_ta_bt_accessory
000a63f8   _APP_SD_au8Portugese_ta_bt_active_device
000a71bc   _APP_SD_au8Portugese_ta_bt_disconnect
000a6938   _APP_SD_au8Portugese_ta_bt_headset
000a6748   _APP_SD_au8Portugese_ta_bt_no_conn_headset
000a7194   _APP_SD_au8Portugese_ta_bt_own_name
000a68a0   _APP_SD_au8Portugese_ta_bt_paired_devices
000a71c4   _APP_SD_au8Portugese_ta_bt_rename
000a6f60   _APP_SD_au8Portugese_ta_bt_visibility
000a649c   _APP_SD_au8Portugese_ta_call_accept
000a64e0   _APP_SD_au8Portugese_ta_call_call1
000a64f8   _APP_SD_au8Portugese_ta_call_call2
000a6364   _APP_SD_au8Portugese_ta_call_diverted
000a67c4   _APP_SD_au8Portugese_ta_call_dtmf
000a6614   _APP_SD_au8Portugese_ta_call_end
000a6910   _APP_SD_au8Portugese_ta_call_end_active
000a6470   _APP_SD_au8Portugese_ta_call_end_all
000a67f4   _APP_SD_au8Portugese_ta_call_handsfree
000a6930   _APP_SD_au8Portugese_ta_call_hold
000a6968   _APP_SD_au8Portugese_ta_call_info
000a6c98   _APP_SD_au8Portugese_ta_call_micro_off
000a6ca8   _APP_SD_au8Portugese_ta_call_micro_on
000a6388   _APP_SD_au8Portugese_ta_call_reject
000a6408   _APP_SD_au8Portugese_ta_call_resume
000a6e70   _APP_SD_au8Portugese_ta_call_service
000a6bd0   _APP_SD_au8Portugese_ta_call_silent
000a6e80   _APP_SD_au8Portugese_ta_call_sos
000a6c74   _APP_SD_au8Portugese_ta_call_swap
000a6b34   _APP_SD_au8Portugese_ta_call_waiting
000a6e5c   _APP_SD_au8Portugese_ta_calls_only
000a6b80   _APP_SD_au8Portugese_ta_conference
000a73e4   _APP_SD_au8Portugese_ta_confirm_pw_in_device
000a73cc   _APP_SD_au8Portugese_ta_confirm_pw_with_OK
000a71d8   _APP_SD_au8Portugese_ta_connect
000a67b8   _APP_SD_au8Portugese_ta_date_value
000a6920   _APP_SD_au8Portugese_ta_disconnected
000a6510   _APP_SD_au8Portugese_ta_end_call
000a6ba8   _APP_SD_au8Portugese_ta_err_load_phonebook
000bfb94   _APP_SD_au8Portugese_ta_find_mailbox_1
000a6800   _APP_SD_au8Portugese_ta_function_restriction
000a63ec   _APP_SD_au8Portugese_ta_head_active_tone
000a64d0   _APP_SD_au8Portugese_ta_head_call
000a64ec   _APP_SD_au8Portugese_ta_head_call1
000a6504   _APP_SD_au8Portugese_ta_head_call2
000a63dc   _APP_SD_au8Portugese_ta_head_call_active
000a651c   _APP_SD_au8Portugese_ta_head_call_hold
000a6eec   _APP_SD_au8Portugese_ta_head_call_setup
000a653c   _APP_SD_au8Portugese_ta_head_call_waiting
000a6548   _APP_SD_au8Portugese_ta_head_calls
000a6b40   _APP_SD_au8Portugese_ta_head_conference
000a6b4c   _APP_SD_au8Portugese_ta_head_conference_hold
000a67a8   _APP_SD_au8Portugese_ta_head_datacall
000a6654   _APP_SD_au8Portugese_ta_head_delete_user
000a6e3c   _APP_SD_au8Portugese_ta_head_dial_nbr
000a67c8   _APP_SD_au8Portugese_ta_head_dtmf
000a67e8   _APP_SD_au8Portugese_ta_head_faxcall
000a64d8   _APP_SD_au8Portugese_ta_head_incoming_call
000a7040   _APP_SD_au8Portugese_ta_head_mailbox
000a6c88   _APP_SD_au8Portugese_ta_head_media_player
000a6594   _APP_SD_au8Portugese_ta_head_nametag
000a6f14   _APP_SD_au8Portugese_ta_head_number
000a662c   _APP_SD_au8Portugese_ta_head_options
000a6e8c   _APP_SD_au8Portugese_ta_head_passkey
000a707c   _APP_SD_au8Portugese_ta_head_phone
000a70d4   _APP_SD_au8Portugese_ta_head_phone_book
000a71a0   _APP_SD_au8Portugese_ta_head_phone_name
000a6ed4   _APP_SD_au8Portugese_ta_head_private_call
000a65d0   _APP_SD_au8Portugese_ta_head_reset_voice_tag
000a6f8c   _APP_SD_au8Portugese_ta_head_setting_signals
000a6cb8   _APP_SD_au8Portugese_ta_head_sms
000a6d04   _APP_SD_au8Portugese_ta_head_sms_from
000a6f98   _APP_SD_au8Portugese_ta_head_sorting_order
000a6bd8   _APP_SD_au8Portugese_ta_head_stack_dialled
000a64b0   _APP_SD_au8Portugese_ta_head_stack_missed
000a64a4   _APP_SD_au8Portugese_ta_head_stack_received
000a6680   _APP_SD_au8Portugese_ta_head_user
000a72b8   _APP_SD_au8Portugese_ta_help_text
000a73ac   _APP_SD_au8Portugese_ta_list_back
000a6730   _APP_SD_au8Portugese_ta_main_bluetooth
000a6558   _APP_SD_au8Portugese_ta_main_callstacks
000a6e4c   _APP_SD_au8Portugese_ta_main_dial
000a7030   _APP_SD_au8Portugese_ta_main_mailbox
000a6c94   _APP_SD_au8Portugese_ta_main_menu
000a6d20   _APP_SD_au8Portugese_ta_main_messages
000a67d0   _APP_SD_au8Portugese_ta_main_settings
000a6c7c   _APP_SD_au8Portugese_ta_media_player
000a6958   _APP_SD_au8Portugese_ta_menu_bt_help
000a6550   _APP_SD_au8Portugese_ta_menu_call
000a6380   _APP_SD_au8Portugese_ta_menu_cancel
000a6c08   _APP_SD_au8Portugese_ta_menu_delete
000a6634   _APP_SD_au8Portugese_ta_menu_end
000a6dd8   _APP_SD_au8Portugese_ta_menu_new_user
000a6ac0   _APP_SD_au8Portugese_ta_menu_no_nbr
000a6e6c   _APP_SD_au8Portugese_ta_menu_ok
000a6fe0   _APP_SD_au8Portugese_ta_menu_save
000a65ec   _APP_SD_au8Portugese_ta_menu_show
000a663c   _APP_SD_au8Portugese_ta_menu_user
000a7288   _APP_SD_au8Portugese_ta_menu_view
000a6454   _APP_SD_au8Portugese_ta_music_paused
000a6b0c   _APP_SD_au8Portugese_ta_no_media_player_found
000a723c   _APP_SD_au8Portugese_ta_note_bt_acc_conn
000a6774   _APP_SD_au8Portugese_ta_note_bt_conn_impos
000a7218   _APP_SD_au8Portugese_ta_note_bt_conn_setup
000a71fc   _APP_SD_au8Portugese_ta_note_bt_no_conn
000a648c   _APP_SD_au8Portugese_ta_note_bt_passkey_err
000a7110   _APP_SD_au8Portugese_ta_note_call_estab_failed
000a6b60   _APP_SD_au8Portugese_ta_note_conf_not_poss
000a6db4   _APP_SD_au8Portugese_ta_note_conn_err
000a71ec   _APP_SD_au8Portugese_ta_note_conn_terminated
000a7230   _APP_SD_au8Portugese_ta_note_connected
000a6eb4   _APP_SD_au8Portugese_ta_note_connecting_player
000a6b8c   _APP_SD_au8Portugese_ta_note_copy_sms_failed
000a6c30   _APP_SD_au8Portugese_ta_note_delete_impos_phone_active
000a68e4   _APP_SD_au8Portugese_ta_note_deleted
000a7084   _APP_SD_au8Portugese_ta_note_enter_cradle
000a6720   _APP_SD_au8Portugese_ta_note_enter_number
000a6390   _APP_SD_au8Portugese_ta_note_ignition
000a6844   _APP_SD_au8Portugese_ta_note_info_call
000a6ef4   _APP_SD_au8Portugese_ta_note_invalid_number
000a6ae8   _APP_SD_au8Portugese_ta_note_mailbox_no
000a66cc   _APP_SD_au8Portugese_ta_note_max_users
000a6528   _APP_SD_au8Portugese_ta_note_missed_call
000a6d7c   _APP_SD_au8Portugese_ta_note_name_exists
000a6d90   _APP_SD_au8Portugese_ta_note_name_stored
000a6da0   _APP_SD_au8Portugese_ta_note_network_busy
000a6e00   _APP_SD_au8Portugese_ta_note_new_pb_available
000a6de8   _APP_SD_au8Portugese_ta_note_new_phone_found
000a6dc8   _APP_SD_au8Portugese_ta_note_new_sms
000a66a4   _APP_SD_au8Portugese_ta_note_new_user
000a69f8   _APP_SD_au8Portugese_ta_note_no_accessory
000a69b8   _APP_SD_au8Portugese_ta_note_no_act_device
000a6a18   _APP_SD_au8Portugese_ta_note_no_bt_conn_acc
000a6a3c   _APP_SD_au8Portugese_ta_note_no_bt_conn_rsap
000a6998   _APP_SD_au8Portugese_ta_note_no_bt_phone
000a6a64   _APP_SD_au8Portugese_ta_note_no_entries
000a6acc   _APP_SD_au8Portugese_ta_note_no_nbr
000a6aac   _APP_SD_au8Portugese_ta_note_no_network
000a6a78   _APP_SD_au8Portugese_ta_note_no_paired_dev
000a69d0   _APP_SD_au8Portugese_ta_note_no_phone
000a6d38   _APP_SD_au8Portugese_ta_note_no_rsap
000a6a98   _APP_SD_au8Portugese_ta_note_no_sms
000a6974   _APP_SD_au8Portugese_ta_note_no_user
000a66f4   _APP_SD_au8Portugese_ta_note_number_busy
000a70e8   _APP_SD_au8Portugese_ta_note_pb_load_error
000a7178   _APP_SD_au8Portugese_ta_note_pb_loading_all
000a712c   _APP_SD_au8Portugese_ta_note_pb_not_complete
000a7058   _APP_SD_au8Portugese_ta_note_pb_refresh_impos
000a7150   _APP_SD_au8Portugese_ta_note_pbook_loading
000a70a0   _APP_SD_au8Portugese_ta_note_phone_initiated
000a65ac   _APP_SD_au8Portugese_ta_note_read_voice_tag
000a6d10   _APP_SD_au8Portugese_ta_note_reading_sms
000a6d54   _APP_SD_au8Portugese_ta_note_search_phones
000a6668   _APP_SD_au8Portugese_ta_note_search_user
000a6e98   _APP_SD_au8Portugese_ta_note_searching_players
000a6874   _APP_SD_au8Portugese_ta_note_service_call
000a6f48   _APP_SD_au8Portugese_ta_note_service_not_supp
000a6cc0   _APP_SD_au8Portugese_ta_note_sms_deleted
000a6cd0   _APP_SD_au8Portugese_ta_note_sms_no_read
000a6c10   _APP_SD_au8Portugese_ta_note_sms_not_deleted
000a68b8   _APP_SD_au8Portugese_ta_note_sos_call
000a6578   _APP_SD_au8Portugese_ta_note_stacks_cleared
000a6fb8   _APP_SD_au8Portugese_ta_note_tag_no_memory
000a66e8   _APP_SD_au8Portugese_ta_note_user_connected
000a68ec   _APP_SD_au8Portugese_ta_note_user_deleted
000a66fc   _APP_SD_au8Portugese_ta_note_user_not_created
000a6828   _APP_SD_au8Portugese_ta_note_visible
000a7018   _APP_SD_au8Portugese_ta_note_voice_active
000a6ff4   _APP_SD_au8Portugese_ta_note_voice_not_ready
000a65bc   _APP_SD_au8Portugese_ta_note_voice_tag_reset
000a726c   _APP_SD_au8Portugese_ta_note_wait_reply
000a6e34   _APP_SD_au8Portugese_ta_number
000a6628   _APP_SD_au8Portugese_ta_off
000a67cc   _APP_SD_au8Portugese_ta_on
000a6410   _APP_SD_au8Portugese_ta_pb_download
000a65a0   _APP_SD_au8Portugese_ta_pb_nametag
000a725c   _APP_SD_au8Portugese_ta_pb_sort_firstname
000a6d74   _APP_SD_au8Portugese_ta_pb_sort_lastname
000a70c0   _APP_SD_au8Portugese_ta_phone_book
000a73b8   _APP_SD_au8Portugese_ta_phone_no_answer
000a71ac   _APP_SD_au8Portugese_ta_phone_search
000a6ec4   _APP_SD_au8Portugese_ta_private_call
000a71e0   _APP_SD_au8Portugese_ta_query_connect
000a63bc   _APP_SD_au8Portugese_ta_query_del_act_device
000a63cc   _APP_SD_au8Portugese_ta_query_del_act_user
000a6c60   _APP_SD_au8Portugese_ta_query_del_device
000a6434   _APP_SD_au8Portugese_ta_query_delete_log
000a6cf4   _APP_SD_au8Portugese_ta_query_delete_sms
000a6c68   _APP_SD_au8Portugese_ta_query_delete_user
000a668c   _APP_SD_au8Portugese_ta_query_new_user
000a641c   _APP_SD_au8Portugese_ta_query_terminate_conn
000a6f6c   _APP_SD_au8Portugese_ta_query_visibility
000a7258   _APP_SD_au8Portugese_ta_read_out_sms
000a6904   _APP_SD_au8Portugese_ta_replace
000a7050   _APP_SD_au8Portugese_ta_search
000a6f80   _APP_SD_au8Portugese_ta_setting_signals
000a6f1c   _APP_SD_au8Portugese_ta_setting_tone
000a6ee4   _APP_SD_au8Portugese_ta_sms_call
000a6f24   _APP_SD_au8Portugese_ta_sms_concatenated
000a6f3c   _APP_SD_au8Portugese_ta_sms_time
000a6fa8   _APP_SD_au8Portugese_ta_sorting_order
000a6bf8   _APP_SD_au8Portugese_ta_stack_clear
000a6be8   _APP_SD_au8Portugese_ta_stack_dialled
000a64c0   _APP_SD_au8Portugese_ta_stack_missed
000a6480   _APP_SD_au8Portugese_ta_stack_received
000a6e20   _APP_SD_au8Portugese_ta_supp_not_possible
000a65e4   _APP_SD_au8Portugese_ta_sw_info
000a71d0   _APP_SD_au8Portugese_ta_switch
000a727c   _APP_SD_au8Portugese_ta_tag_play
000a6620   _APP_SD_au8Portugese_ta_tag_record
000a6344   _APP_SD_au8Portugese_ta_time_am
000a67a0   _APP_SD_au8Portugese_ta_time_format
000a6354   _APP_SD_au8Portugese_ta_time_pm
000a6370   _APP_SD_au8Portugese_ta_time_standard
000a6950   _APP_SD_au8Portugese_ta_time_value
000a65f0   _APP_SD_au8Portugese_ta_voice_tag_reset
000a7298   _APP_SD_au8Portugese_ta_wait_bt_acc_search
000a6714   _APP_SD_au8Portugese_ta_wait_general
000a8604   _APP_SD_au8Russian_call_head_register
000a8734   _APP_SD_au8Russian_head_audio_mode
000a8984   _APP_SD_au8Russian_head_bluetooth
000a8c80   _APP_SD_au8Russian_head_device_list
000a8d00   _APP_SD_au8Russian_head_headset
000a93d4   _APP_SD_au8Russian_head_messages
000a8a88   _APP_SD_au8Russian_head_settings
000a87b0   _APP_SD_au8Russian_head_user
000a94c4   _APP_SD_au8Russian_new_sms
000a8bf8   _APP_SD_au8Russian_paired_head_devices
000a8d2c   _APP_SD_au8Russian_ta_always
000a8720   _APP_SD_au8Russian_ta_audio_mode
000a98a4   _APP_SD_au8Russian_ta_backspace
000a9d6c   _APP_SD_au8Russian_ta_bt_accessory
000a83a4   _APP_SD_au8Russian_ta_bt_active_device
000a9be0   _APP_SD_au8Russian_ta_bt_disconnect
000a8cec   _APP_SD_au8Russian_ta_bt_headset
000a8990   _APP_SD_au8Russian_ta_bt_no_conn_headset
000a9b98   _APP_SD_au8Russian_ta_bt_own_name
000a8be0   _APP_SD_au8Russian_ta_bt_paired_devices
000a9bf8   _APP_SD_au8Russian_ta_bt_rename
000a97b4   _APP_SD_au8Russian_ta_bt_visibility
000a84c4   _APP_SD_au8Russian_ta_call_accept
000a852c   _APP_SD_au8Russian_ta_call_call1
000a8544   _APP_SD_au8Russian_ta_call_call2
000a82a8   _APP_SD_au8Russian_ta_call_diverted
000a8a64   _APP_SD_au8Russian_ta_call_dtmf
000a874c   _APP_SD_au8Russian_ta_call_end
000a8ca8   _APP_SD_au8Russian_ta_call_end_active
000a846c   _APP_SD_au8Russian_ta_call_end_all
000a8ab0   _APP_SD_au8Russian_ta_call_handsfree
000a8cd8   _APP_SD_au8Russian_ta_call_hold
000a8d38   _APP_SD_au8Russian_ta_call_info
000a92b4   _APP_SD_au8Russian_ta_call_micro_off
000a92d0   _APP_SD_au8Russian_ta_call_micro_on
000a82e0   _APP_SD_au8Russian_ta_call_reject
000a83bc   _APP_SD_au8Russian_ta_call_resume
000a95f0   _APP_SD_au8Russian_ta_call_service
000a9154   _APP_SD_au8Russian_ta_call_silent
000a960c   _APP_SD_au8Russian_ta_call_sos
000a9260   _APP_SD_au8Russian_ta_call_swap
000a904c   _APP_SD_au8Russian_ta_call_waiting
000a95d0   _APP_SD_au8Russian_ta_calls_only
000a90c8   _APP_SD_au8Russian_ta_conference
000a9f44   _APP_SD_au8Russian_ta_confirm_pw_in_device
000a9f10   _APP_SD_au8Russian_ta_confirm_pw_with_OK
000a9c2c   _APP_SD_au8Russian_ta_connect
000a8a58   _APP_SD_au8Russian_ta_date_value
000a8cc0   _APP_SD_au8Russian_ta_disconnected
000a855c   _APP_SD_au8Russian_ta_end_call
000a9110   _APP_SD_au8Russian_ta_err_load_phonebook
000bfbd8   _APP_SD_au8Russian_ta_find_mailbox_1
000a8acc   _APP_SD_au8Russian_ta_function_restriction
000a8394   _APP_SD_au8Russian_ta_head_active_tone
000a8514   _APP_SD_au8Russian_ta_head_call
000a8538   _APP_SD_au8Russian_ta_head_call1
000a8550   _APP_SD_au8Russian_ta_head_call2
000a8378   _APP_SD_au8Russian_ta_head_call_active
000a8578   _APP_SD_au8Russian_ta_head_call_hold
000a96f8   _APP_SD_au8Russian_ta_head_call_setup
000a85b4   _APP_SD_au8Russian_ta_head_call_waiting
000a85cc   _APP_SD_au8Russian_ta_head_calls
000a905c   _APP_SD_au8Russian_ta_head_conference
000a9074   _APP_SD_au8Russian_ta_head_conference_hold
000a8a40   _APP_SD_au8Russian_ta_head_datacall
000a87c8   _APP_SD_au8Russian_ta_head_delete_user
000a95a0   _APP_SD_au8Russian_ta_head_dial_nbr
000a8a68   _APP_SD_au8Russian_ta_head_dtmf
000a8a9c   _APP_SD_au8Russian_ta_head_faxcall
000a8520   _APP_SD_au8Russian_ta_head_incoming_call
000a993c   _APP_SD_au8Russian_ta_head_mailbox
000a9294   _APP_SD_au8Russian_ta_head_media_player
000a864c   _APP_SD_au8Russian_ta_head_nametag
000a972c   _APP_SD_au8Russian_ta_head_number
000a8778   _APP_SD_au8Russian_ta_head_options
000a9628   _APP_SD_au8Russian_ta_head_passkey
000a99a8   _APP_SD_au8Russian_ta_head_phone
000a9a5c   _APP_SD_au8Russian_ta_head_phone_book
000a9bb0   _APP_SD_au8Russian_ta_head_phone_name
000a96c4   _APP_SD_au8Russian_ta_head_private_call
000a86c8   _APP_SD_au8Russian_ta_head_reset_voice_tag
000a9808   _APP_SD_au8Russian_ta_head_setting_signals
000a92e8   _APP_SD_au8Russian_ta_head_sms
000a9380   _APP_SD_au8Russian_ta_head_sms_from
000a9824   _APP_SD_au8Russian_ta_head_sorting_order
000a9168   _APP_SD_au8Russian_ta_head_stack_dialled
000a84e4   _APP_SD_au8Russian_ta_head_stack_missed
000a84d4   _APP_SD_au8Russian_ta_head_stack_received
000a881c   _APP_SD_au8Russian_ta_head_user
000a9db4   _APP_SD_au8Russian_ta_help_text
000a9ecc   _APP_SD_au8Russian_ta_list_back
000a8978   _APP_SD_au8Russian_ta_main_bluetooth
000a85ec   _APP_SD_au8Russian_ta_main_callstacks
000a95b8   _APP_SD_au8Russian_ta_main_dial
000a9928   _APP_SD_au8Russian_ta_main_mailbox
000a92ac   _APP_SD_au8Russian_ta_main_menu
000a93c0   _APP_SD_au8Russian_ta_main_messages
000a8a74   _APP_SD_au8Russian_ta_main_settings
000a927c   _APP_SD_au8Russian_ta_media_player
000a8d20   _APP_SD_au8Russian_ta_menu_bt_help
000a85d8   _APP_SD_au8Russian_ta_menu_call
000a82d4   _APP_SD_au8Russian_ta_menu_cancel
000a91ac   _APP_SD_au8Russian_ta_menu_delete
000a8784   _APP_SD_au8Russian_ta_menu_end
000a950c   _APP_SD_au8Russian_ta_menu_new_user
000a8f94   _APP_SD_au8Russian_ta_menu_no_nbr
000a95ec   _APP_SD_au8Russian_ta_menu_ok
000a9890   _APP_SD_au8Russian_ta_menu_save
000a86fc   _APP_SD_au8Russian_ta_menu_show
000a8798   _APP_SD_au8Russian_ta_menu_user
000a9d5c   _APP_SD_au8Russian_ta_menu_view
000a8434   _APP_SD_au8Russian_ta_music_paused
000a900c   _APP_SD_au8Russian_ta_no_media_player_found
000a9cd8   _APP_SD_au8Russian_ta_note_bt_acc_conn
000a89e4   _APP_SD_au8Russian_ta_note_bt_conn_impos
000a9ca4   _APP_SD_au8Russian_ta_note_bt_conn_setup
000a9c7c   _APP_SD_au8Russian_ta_note_bt_no_conn
000a8498   _APP_SD_au8Russian_ta_note_bt_passkey_err
000a9abc   _APP_SD_au8Russian_ta_note_call_estab_failed
000a909c   _APP_SD_au8Russian_ta_note_conf_not_poss
000a94d8   _APP_SD_au8Russian_ta_note_conn_err
000a9c58   _APP_SD_au8Russian_ta_note_conn_terminated
000a9cc0   _APP_SD_au8Russian_ta_note_connected
000a9668   _APP_SD_au8Russian_ta_note_connecting_player
000a90e0   _APP_SD_au8Russian_ta_note_copy_sms_failed
000a91f4   _APP_SD_au8Russian_ta_note_delete_impos_phone_active
000a8c64   _APP_SD_au8Russian_ta_note_deleted
000a99b8   _APP_SD_au8Russian_ta_note_enter_cradle
000a8948   _APP_SD_au8Russian_ta_note_enter_number
000a82f4   _APP_SD_au8Russian_ta_note_ignition
000a8b3c   _APP_SD_au8Russian_ta_note_info_call
000a9704   _APP_SD_au8Russian_ta_note_invalid_number
000a8fc8   _APP_SD_au8Russian_ta_note_mailbox_no
000a88a0   _APP_SD_au8Russian_ta_note_max_users
000a8594   _APP_SD_au8Russian_ta_note_missed_call
000a946c   _APP_SD_au8Russian_ta_note_name_exists
000a9494   _APP_SD_au8Russian_ta_note_name_stored
000a94ac   _APP_SD_au8Russian_ta_note_network_busy
000a9550   _APP_SD_au8Russian_ta_note_new_pb_available
000a9524   _APP_SD_au8Russian_ta_note_new_phone_found
000a94f0   _APP_SD_au8Russian_ta_note_new_sms
000a886c   _APP_SD_au8Russian_ta_note_new_user
000a8e50   _APP_SD_au8Russian_ta_note_no_accessory
000a8dd4   _APP_SD_au8Russian_ta_note_no_act_device
000a8e78   _APP_SD_au8Russian_ta_note_no_bt_conn_acc
000a8ea4   _APP_SD_au8Russian_ta_note_no_bt_conn_rsap
000a8da8   _APP_SD_au8Russian_ta_note_no_bt_phone
000a8ef0   _APP_SD_au8Russian_ta_note_no_entries
000a8fa8   _APP_SD_au8Russian_ta_note_no_nbr
000a8f6c   _APP_SD_au8Russian_ta_note_no_network
000a8f14   _APP_SD_au8Russian_ta_note_no_paired_dev
000a8e00   _APP_SD_au8Russian_ta_note_no_phone
000a93e8   _APP_SD_au8Russian_ta_note_no_rsap
000a8f44   _APP_SD_au8Russian_ta_note_no_sms
000a8d54   _APP_SD_au8Russian_ta_note_no_user
000a88f0   _APP_SD_au8Russian_ta_note_number_busy
000a9a78   _APP_SD_au8Russian_ta_note_pb_load_error
000a9b68   _APP_SD_au8Russian_ta_note_pb_loading_all
000a9ae4   _APP_SD_au8Russian_ta_note_pb_not_complete
000a9960   _APP_SD_au8Russian_ta_note_pb_refresh_impos
000a9b2c   _APP_SD_au8Russian_ta_note_pbook_loading
000a99f4   _APP_SD_au8Russian_ta_note_phone_initiated
000a867c   _APP_SD_au8Russian_ta_note_read_voice_tag
000a9398   _APP_SD_au8Russian_ta_note_reading_sms
000a9420   _APP_SD_au8Russian_ta_note_search_phones
000a87f0   _APP_SD_au8Russian_ta_note_search_user
000a9638   _APP_SD_au8Russian_ta_note_searching_players
000a8b8c   _APP_SD_au8Russian_ta_note_service_call
000a9788   _APP_SD_au8Russian_ta_note_service_not_supp
000a92fc   _APP_SD_au8Russian_ta_note_sms_deleted
000a931c   _APP_SD_au8Russian_ta_note_sms_no_read
000a91bc   _APP_SD_au8Russian_ta_note_sms_not_deleted
000a8c14   _APP_SD_au8Russian_ta_note_sos_call
000a8620   _APP_SD_au8Russian_ta_note_stacks_cleared
000a9850   _APP_SD_au8Russian_ta_note_tag_no_memory
000a88d4   _APP_SD_au8Russian_ta_note_user_connected
000a8c70   _APP_SD_au8Russian_ta_note_user_deleted
000a88fc   _APP_SD_au8Russian_ta_note_user_not_created
000a8b14   _APP_SD_au8Russian_ta_note_visible
000a98f4   _APP_SD_au8Russian_ta_note_voice_active
000a98b4   _APP_SD_au8Russian_ta_note_voice_not_ready
000a86a8   _APP_SD_au8Russian_ta_note_voice_tag_reset
000a9d24   _APP_SD_au8Russian_ta_note_wait_reply
000a9594   _APP_SD_au8Russian_ta_number
000a8770   _APP_SD_au8Russian_ta_off
000a8a6c   _APP_SD_au8Russian_ta_on
000a83d4   _APP_SD_au8Russian_ta_pb_download
000a8664   _APP_SD_au8Russian_ta_pb_nametag
000a9d1c   _APP_SD_au8Russian_ta_pb_sort_firstname
000a945c   _APP_SD_au8Russian_ta_pb_sort_lastname
000a9a40   _APP_SD_au8Russian_ta_phone_book
000a9ed8   _APP_SD_au8Russian_ta_phone_no_answer
000a9bc8   _APP_SD_au8Russian_ta_phone_search
000a96a8   _APP_SD_au8Russian_ta_private_call
000a9c40   _APP_SD_au8Russian_ta_query_connect
000a8340   _APP_SD_au8Russian_ta_query_del_act_device
000a835c   _APP_SD_au8Russian_ta_query_del_act_user
000a923c   _APP_SD_au8Russian_ta_query_del_device
000a8410   _APP_SD_au8Russian_ta_query_delete_log
000a935c   _APP_SD_au8Russian_ta_query_delete_sms
000a924c   _APP_SD_au8Russian_ta_query_delete_user
000a8838   _APP_SD_au8Russian_ta_query_new_user
000a83e4   _APP_SD_au8Russian_ta_query_terminate_conn
000a97c8   _APP_SD_au8Russian_ta_query_visibility
000a9d0c   _APP_SD_au8Russian_ta_read_out_sms
000a8c98   _APP_SD_au8Russian_ta_replace
000a9954   _APP_SD_au8Russian_ta_search
000a97ec   _APP_SD_au8Russian_ta_setting_signals
000a9738   _APP_SD_au8Russian_ta_setting_tone
000a96e0   _APP_SD_au8Russian_ta_sms_call
000a9750   _APP_SD_au8Russian_ta_sms_concatenated
000a9774   _APP_SD_au8Russian_ta_sms_time
000a983c   _APP_SD_au8Russian_ta_sorting_order
000a9190   _APP_SD_au8Russian_ta_stack_clear
000a917c   _APP_SD_au8Russian_ta_stack_dialled
000a84fc   _APP_SD_au8Russian_ta_stack_missed
000a8488   _APP_SD_au8Russian_ta_stack_received
000a9580   _APP_SD_au8Russian_ta_supp_not_possible
000a86f0   _APP_SD_au8Russian_ta_sw_info
000a9c14   _APP_SD_au8Russian_ta_switch
000a9d40   _APP_SD_au8Russian_ta_tag_play
000a8760   _APP_SD_au8Russian_ta_tag_record
000a8288   _APP_SD_au8Russian_ta_time_am
000a8a38   _APP_SD_au8Russian_ta_time_format
000a8298   _APP_SD_au8Russian_ta_time_pm
000a82c4   _APP_SD_au8Russian_ta_time_standard
000a8d14   _APP_SD_au8Russian_ta_time_value
000a8710   _APP_SD_au8Russian_ta_voice_tag_reset
000a9d80   _APP_SD_au8Russian_ta_wait_bt_acc_search
000a8928   _APP_SD_au8Russian_ta_wait_general
000a3190   _APP_SD_au8Spanish_call_head_register
000a322c   _APP_SD_au8Spanish_head_audio_mode
000a3368   _APP_SD_au8Spanish_head_bluetooth
000a3520   _APP_SD_au8Spanish_head_device_list
000a3574   _APP_SD_au8Spanish_head_headset
000a3944   _APP_SD_au8Spanish_head_messages
000a3410   _APP_SD_au8Spanish_head_settings
000a3270   _APP_SD_au8Spanish_head_user
000a39c8   _APP_SD_au8Spanish_new_sms
000a34d4   _APP_SD_au8Spanish_paired_head_devices
000a3590   _APP_SD_au8Spanish_ta_always
000a3220   _APP_SD_au8Spanish_ta_audio_mode
000a3c0c   _APP_SD_au8Spanish_ta_backspace
000a3ea8   _APP_SD_au8Spanish_ta_bt_accessory
000a3014   _APP_SD_au8Spanish_ta_bt_active_device
000a3dc0   _APP_SD_au8Spanish_ta_bt_disconnect
000a3568   _APP_SD_au8Spanish_ta_bt_headset
000a3374   _APP_SD_au8Spanish_ta_bt_no_conn_headset
000a3d90   _APP_SD_au8Spanish_ta_bt_own_name
000a34c4   _APP_SD_au8Spanish_ta_bt_paired_devices
000a3dcc   _APP_SD_au8Spanish_ta_bt_rename
000a3b84   _APP_SD_au8Spanish_ta_bt_visibility
000a30c8   _APP_SD_au8Spanish_ta_call_accept
000a3108   _APP_SD_au8Spanish_ta_call_call1
000a3120   _APP_SD_au8Spanish_ta_call_call2
000a2f6c   _APP_SD_au8Spanish_ta_call_diverted
000a33f4   _APP_SD_au8Spanish_ta_call_dtmf
000a3238   _APP_SD_au8Spanish_ta_call_end
000a3540   _APP_SD_au8Spanish_ta_call_end_active
000a309c   _APP_SD_au8Spanish_ta_call_end_all
000a341c   _APP_SD_au8Spanish_ta_call_handsfree
000a3560   _APP_SD_au8Spanish_ta_call_hold
000a3598   _APP_SD_au8Spanish_ta_call_info
000a38b0   _APP_SD_au8Spanish_ta_call_micro_off
000a38c4   _APP_SD_au8Spanish_ta_call_micro_on
000a2f90   _APP_SD_au8Spanish_ta_call_reject
000a3024   _APP_SD_au8Spanish_ta_call_resume
000a3a78   _APP_SD_au8Spanish_ta_call_service
000a37dc   _APP_SD_au8Spanish_ta_call_silent
000a3a88   _APP_SD_au8Spanish_ta_call_sos
000a3878   _APP_SD_au8Spanish_ta_call_swap
000a3744   _APP_SD_au8Spanish_ta_call_waiting
000a3a64   _APP_SD_au8Spanish_ta_calls_only
000a379c   _APP_SD_au8Spanish_ta_conference
000a4018   _APP_SD_au8Spanish_ta_confirm_pw_in_device
000a4000   _APP_SD_au8Spanish_ta_confirm_pw_with_OK
000a3de0   _APP_SD_au8Spanish_ta_connect
000a33e8   _APP_SD_au8Spanish_ta_date_value
000a3548   _APP_SD_au8Spanish_ta_disconnected
000a3138   _APP_SD_au8Spanish_ta_end_call
000a37c0   _APP_SD_au8Spanish_ta_err_load_phonebook
000bfb40   _APP_SD_au8Spanish_ta_find_mailbox_1
000bfb50   _APP_SD_au8Spanish_ta_find_mailbox_2
000a3428   _APP_SD_au8Spanish_ta_function_restriction
000a3000   _APP_SD_au8Spanish_ta_head_active_tone
000a30f0   _APP_SD_au8Spanish_ta_head_call
000a3114   _APP_SD_au8Spanish_ta_head_call1
000a312c   _APP_SD_au8Spanish_ta_head_call2
000a2ff0   _APP_SD_au8Spanish_ta_head_call_active
000a3140   _APP_SD_au8Spanish_ta_head_call_hold
000a3b04   _APP_SD_au8Spanish_ta_head_call_setup
000a3160   _APP_SD_au8Spanish_ta_head_call_waiting
000a3170   _APP_SD_au8Spanish_ta_head_calls
000a3750   _APP_SD_au8Spanish_ta_head_conference
000a3760   _APP_SD_au8Spanish_ta_head_conference_hold
000a33d8   _APP_SD_au8Spanish_ta_head_datacall
000a3278   _APP_SD_au8Spanish_ta_head_delete_user
000a3a4c   _APP_SD_au8Spanish_ta_head_dial_nbr
000a33f8   _APP_SD_au8Spanish_ta_head_dtmf
000a3418   _APP_SD_au8Spanish_ta_head_faxcall
000a30f8   _APP_SD_au8Spanish_ta_head_incoming_call
000a3c60   _APP_SD_au8Spanish_ta_head_mailbox
000a3898   _APP_SD_au8Spanish_ta_head_media_player
000a31c4   _APP_SD_au8Spanish_ta_head_nametag
000a3b2c   _APP_SD_au8Spanish_ta_head_number
000a3254   _APP_SD_au8Spanish_ta_head_options
000a3a94   _APP_SD_au8Spanish_ta_head_passkey
000a3c98   _APP_SD_au8Spanish_ta_head_phone
000a3cfc   _APP_SD_au8Spanish_ta_head_phone_book
000a3da0   _APP_SD_au8Spanish_ta_head_phone_name
000a3aec   _APP_SD_au8Spanish_ta_head_private_call
000a31fc   _APP_SD_au8Spanish_ta_head_reset_voice_tag
000a3bbc   _APP_SD_au8Spanish_ta_head_setting_signals
000a38d4   _APP_SD_au8Spanish_ta_head_sms
000a3918   _APP_SD_au8Spanish_ta_head_sms_from
000a3bd0   _APP_SD_au8Spanish_ta_head_sorting_order
000a37e4   _APP_SD_au8Spanish_ta_head_stack_dialled
000a30e0   _APP_SD_au8Spanish_ta_head_stack_missed
000a30d4   _APP_SD_au8Spanish_ta_head_stack_received
000a329c   _APP_SD_au8Spanish_ta_head_user
000a3ed4   _APP_SD_au8Spanish_ta_help_text
000a3fdc   _APP_SD_au8Spanish_ta_list_back
000a335c   _APP_SD_au8Spanish_ta_main_bluetooth
000a3180   _APP_SD_au8Spanish_ta_main_callstacks
000a3a58   _APP_SD_au8Spanish_ta_main_dial
000a3c50   _APP_SD_au8Spanish_ta_main_mailbox
000a38a8   _APP_SD_au8Spanish_ta_main_menu
000a393c   _APP_SD_au8Spanish_ta_main_messages
000a3408   _APP_SD_au8Spanish_ta_main_settings
000a3888   _APP_SD_au8Spanish_ta_media_player
000a3588   _APP_SD_au8Spanish_ta_menu_bt_help
000a3178   _APP_SD_au8Spanish_ta_menu_call
000a2f88   _APP_SD_au8Spanish_ta_menu_cancel
000a3804   _APP_SD_au8Spanish_ta_menu_delete
000a325c   _APP_SD_au8Spanish_ta_menu_end
000a39f4   _APP_SD_au8Spanish_ta_menu_new_user
000a36dc   _APP_SD_au8Spanish_ta_menu_no_nbr
000a3a74   _APP_SD_au8Spanish_ta_menu_ok
000a3c00   _APP_SD_au8Spanish_ta_menu_save
000a3214   _APP_SD_au8Spanish_ta_menu_show
000a3268   _APP_SD_au8Spanish_ta_menu_user
000a3ea0   _APP_SD_au8Spanish_ta_menu_view
000a306c   _APP_SD_au8Spanish_ta_music_paused
000a371c   _APP_SD_au8Spanish_ta_no_media_player_found
000a3e48   _APP_SD_au8Spanish_ta_note_bt_acc_conn
000a339c   _APP_SD_au8Spanish_ta_note_bt_conn_impos
000a3e28   _APP_SD_au8Spanish_ta_note_bt_conn_setup
000a3e14   _APP_SD_au8Spanish_ta_note_bt_no_conn
000a30b8   _APP_SD_au8Spanish_ta_note_bt_passkey_err
000a3d20   _APP_SD_au8Spanish_ta_note_call_estab_failed
000a3778   _APP_SD_au8Spanish_ta_note_conf_not_poss
000a39d4   _APP_SD_au8Spanish_ta_note_conn_err
000a3dfc   _APP_SD_au8Spanish_ta_note_conn_terminated
000a3e38   _APP_SD_au8Spanish_ta_note_connected
000a3ac0   _APP_SD_au8Spanish_ta_note_connecting_player
000a37ac   _APP_SD_au8Spanish_ta_note_copy_sms_failed
000a3828   _APP_SD_au8Spanish_ta_note_delete_impos_phone_active
000a350c   _APP_SD_au8Spanish_ta_note_deleted
000a3ca4   _APP_SD_au8Spanish_ta_note_enter_cradle
000a333c   _APP_SD_au8Spanish_ta_note_enter_number
000a2f98   _APP_SD_au8Spanish_ta_note_ignition
000a3468   _APP_SD_au8Spanish_ta_note_info_call
000a3b0c   _APP_SD_au8Spanish_ta_note_invalid_number
000a36f4   _APP_SD_au8Spanish_ta_note_mailbox_no
000a32e0   _APP_SD_au8Spanish_ta_note_max_users
000a3150   _APP_SD_au8Spanish_ta_note_missed_call
000a3998   _APP_SD_au8Spanish_ta_note_name_exists
000a39ac   _APP_SD_au8Spanish_ta_note_name_stored
000a39bc   _APP_SD_au8Spanish_ta_note_network_busy
000a3a20   _APP_SD_au8Spanish_ta_note_new_pb_available
000a3a04   _APP_SD_au8Spanish_ta_note_new_phone_found
000a39e4   _APP_SD_au8Spanish_ta_note_new_sms
000a32bc   _APP_SD_au8Spanish_ta_note_new_user
000a3628   _APP_SD_au8Spanish_ta_note_no_accessory
000a35f4   _APP_SD_au8Spanish_ta_note_no_act_device
000a363c   _APP_SD_au8Spanish_ta_note_no_bt_conn_acc
000a3658   _APP_SD_au8Spanish_ta_note_no_bt_conn_rsap
000a35dc   _APP_SD_au8Spanish_ta_note_no_bt_phone
000a3688   _APP_SD_au8Spanish_ta_note_no_entries
000a36e8   _APP_SD_au8Spanish_ta_note_no_nbr
000a36c8   _APP_SD_au8Spanish_ta_note_no_network
000a36a0   _APP_SD_au8Spanish_ta_note_no_paired_dev
000a360c   _APP_SD_au8Spanish_ta_note_no_phone
000a394c   _APP_SD_au8Spanish_ta_note_no_rsap
000a36b8   _APP_SD_au8Spanish_ta_note_no_sms
000a35a8   _APP_SD_au8Spanish_ta_note_no_user
000a3314   _APP_SD_au8Spanish_ta_note_number_busy
000a3d04   _APP_SD_au8Spanish_ta_note_pb_load_error
000a3d7c   _APP_SD_au8Spanish_ta_note_pb_loading_all
000a3d40   _APP_SD_au8Spanish_ta_note_pb_not_complete
000a3c7c   _APP_SD_au8Spanish_ta_note_pb_refresh_impos
000a3d60   _APP_SD_au8Spanish_ta_note_pbook_loading
000a3cd4   _APP_SD_au8Spanish_ta_note_phone_initiated
000a31d8   _APP_SD_au8Spanish_ta_note_read_voice_tag
000a3924   _APP_SD_au8Spanish_ta_note_reading_sms
000a396c   _APP_SD_au8Spanish_ta_note_search_phones
000a3288   _APP_SD_au8Spanish_ta_note_search_user
000a3aa0   _APP_SD_au8Spanish_ta_note_searching_players
000a3498   _APP_SD_au8Spanish_ta_note_service_call
000a3b6c   _APP_SD_au8Spanish_ta_note_service_not_supp
000a38dc   _APP_SD_au8Spanish_ta_note_sms_deleted
000a38ec   _APP_SD_au8Spanish_ta_note_sms_no_read
000a380c   _APP_SD_au8Spanish_ta_note_sms_not_deleted
000a34e4   _APP_SD_au8Spanish_ta_note_sos_call
000a31a0   _APP_SD_au8Spanish_ta_note_stacks_cleared
000a3be0   _APP_SD_au8Spanish_ta_note_tag_no_memory
000a3304   _APP_SD_au8Spanish_ta_note_user_connected
000a3514   _APP_SD_au8Spanish_ta_note_user_deleted
000a331c   _APP_SD_au8Spanish_ta_note_user_not_created
000a3450   _APP_SD_au8Spanish_ta_note_visible
000a3c30   _APP_SD_au8Spanish_ta_note_voice_active
000a3c14   _APP_SD_au8Spanish_ta_note_voice_not_ready
000a31ec   _APP_SD_au8Spanish_ta_note_voice_tag_reset
000a3e80   _APP_SD_au8Spanish_ta_note_wait_reply
000a3a44   _APP_SD_au8Spanish_ta_number
000a3248   _APP_SD_au8Spanish_ta_off
000a33fc   _APP_SD_au8Spanish_ta_on
000a302c   _APP_SD_au8Spanish_ta_pb_download
000a31cc   _APP_SD_au8Spanish_ta_pb_nametag
000a3e78   _APP_SD_au8Spanish_ta_pb_sort_firstname
000a398c   _APP_SD_au8Spanish_ta_pb_sort_lastname
000a3cf4   _APP_SD_au8Spanish_ta_phone_book
000a3fe4   _APP_SD_au8Spanish_ta_phone_no_answer
000a3db0   _APP_SD_au8Spanish_ta_phone_search
000a3adc   _APP_SD_au8Spanish_ta_private_call
000a3de8   _APP_SD_au8Spanish_ta_query_connect
000a2fcc   _APP_SD_au8Spanish_ta_query_del_act_device
000a2fdc   _APP_SD_au8Spanish_ta_query_del_act_user
000a3860   _APP_SD_au8Spanish_ta_query_del_device
000a3048   _APP_SD_au8Spanish_ta_query_delete_log
000a3908   _APP_SD_au8Spanish_ta_query_delete_sms
000a386c   _APP_SD_au8Spanish_ta_query_delete_user
000a32a4   _APP_SD_au8Spanish_ta_query_new_user
000a3038   _APP_SD_au8Spanish_ta_query_terminate_conn
000a3b90   _APP_SD_au8Spanish_ta_query_visibility
000a3e6c   _APP_SD_au8Spanish_ta_read_out_sms
000a3534   _APP_SD_au8Spanish_ta_replace
000a3c70   _APP_SD_au8Spanish_ta_search
000a3ba8   _APP_SD_au8Spanish_ta_setting_signals
000a3b34   _APP_SD_au8Spanish_ta_setting_tone
000a3afc   _APP_SD_au8Spanish_ta_sms_call
000a3b44   _APP_SD_au8Spanish_ta_sms_concatenated
000a3b5c   _APP_SD_au8Spanish_ta_sms_time
000a3bd8   _APP_SD_au8Spanish_ta_sorting_order
000a37f4   _APP_SD_au8Spanish_ta_stack_clear
000a37ec   _APP_SD_au8Spanish_ta_stack_dialled
000a30e8   _APP_SD_au8Spanish_ta_stack_missed
000a30ac   _APP_SD_au8Spanish_ta_stack_received
000a3a38   _APP_SD_au8Spanish_ta_supp_not_possible
000a320c   _APP_SD_au8Spanish_ta_sw_info
000a3dd8   _APP_SD_au8Spanish_ta_switch
000a3e98   _APP_SD_au8Spanish_ta_tag_play
000a3240   _APP_SD_au8Spanish_ta_tag_record
000a2f4c   _APP_SD_au8Spanish_ta_time_am
000a33d0   _APP_SD_au8Spanish_ta_time_format
000a2f5c   _APP_SD_au8Spanish_ta_time_pm
000a2f78   _APP_SD_au8Spanish_ta_time_standard
000a3580   _APP_SD_au8Spanish_ta_time_value
000a3218   _APP_SD_au8Spanish_ta_voice_tag_reset
000a3eb4   _APP_SD_au8Spanish_ta_wait_bt_acc_search
000a332c   _APP_SD_au8Spanish_ta_wait_general
000ac478   _APP_SD_au8Swedish_call_head_register
000ac520   _APP_SD_au8Swedish_head_audio_mode
000ac644   _APP_SD_au8Swedish_head_bluetooth
000ac7f4   _APP_SD_au8Swedish_head_device_list
000ac834   _APP_SD_au8Swedish_head_headset
000acbc4   _APP_SD_au8Swedish_head_messages
000ac6e4   _APP_SD_au8Swedish_head_settings
000ac568   _APP_SD_au8Swedish_head_user
000acc4c   _APP_SD_au8Swedish_new_sms
000ac7a8   _APP_SD_au8Swedish_paired_head_devices
000ac84c   _APP_SD_au8Swedish_ta_always
000ac514   _APP_SD_au8Swedish_ta_audio_mode
000ace68   _APP_SD_au8Swedish_ta_backspace
000ad0b8   _APP_SD_au8Swedish_ta_bt_accessory
000ac300   _APP_SD_au8Swedish_ta_bt_active_device
000acfe0   _APP_SD_au8Swedish_ta_bt_disconnect
000ac82c   _APP_SD_au8Swedish_ta_bt_headset
000ac650   _APP_SD_au8Swedish_ta_bt_no_conn_headset
000acfb8   _APP_SD_au8Swedish_ta_bt_own_name
000ac798   _APP_SD_au8Swedish_ta_bt_paired_devices
000acfe8   _APP_SD_au8Swedish_ta_bt_rename
000acde4   _APP_SD_au8Swedish_ta_bt_visibility
000ac3a8   _APP_SD_au8Swedish_ta_call_accept
000ac3f8   _APP_SD_au8Swedish_ta_call_call1
000ac408   _APP_SD_au8Swedish_ta_call_call2
000ac260   _APP_SD_au8Swedish_ta_call_diverted
000ac6c8   _APP_SD_au8Swedish_ta_call_dtmf
000ac52c   _APP_SD_au8Swedish_ta_call_end
000ac808   _APP_SD_au8Swedish_ta_call_end_active
000ac37c   _APP_SD_au8Swedish_ta_call_end_all
000ac700   _APP_SD_au8Swedish_ta_call_handsfree
000ac820   _APP_SD_au8Swedish_ta_call_hold
000ac854   _APP_SD_au8Swedish_ta_call_info
000acb58   _APP_SD_au8Swedish_ta_call_micro_off
000acb64   _APP_SD_au8Swedish_ta_call_micro_on
000ac288   _APP_SD_au8Swedish_ta_call_reject
000ac310   _APP_SD_au8Swedish_ta_call_resume
000accec   _APP_SD_au8Swedish_ta_call_service
000aca9c   _APP_SD_au8Swedish_ta_call_silent
000accfc   _APP_SD_au8Swedish_ta_call_sos
000acb34   _APP_SD_au8Swedish_ta_call_swap
000aca10   _APP_SD_au8Swedish_ta_call_waiting
000accd8   _APP_SD_au8Swedish_ta_calls_only
000aca54   _APP_SD_au8Swedish_ta_conference
000ad20c   _APP_SD_au8Swedish_ta_confirm_pw_in_device
000ad1ec   _APP_SD_au8Swedish_ta_confirm_pw_with_OK
000acffc   _APP_SD_au8Swedish_ta_connect
000ac6b8   _APP_SD_au8Swedish_ta_date_value
000ac818   _APP_SD_au8Swedish_ta_disconnected
000ac418   _APP_SD_au8Swedish_ta_end_call
000aca80   _APP_SD_au8Swedish_ta_err_load_phonebook
000bfc48   _APP_SD_au8Swedish_ta_find_mailbox_1
000bfc58   _APP_SD_au8Swedish_ta_find_mailbox_2
000bfc64   _APP_SD_au8Swedish_ta_find_mailbox_3
000bfc74   _APP_SD_au8Swedish_ta_find_mailbox_4
000ac70c   _APP_SD_au8Swedish_ta_function_restriction
000ac2ec   _APP_SD_au8Swedish_ta_head_active_tone
000ac3e8   _APP_SD_au8Swedish_ta_head_call
000ac400   _APP_SD_au8Swedish_ta_head_call1
000ac410   _APP_SD_au8Swedish_ta_head_call2
000ac2dc   _APP_SD_au8Swedish_ta_head_call_active
000ac428   _APP_SD_au8Swedish_ta_head_call_hold
000acd68   _APP_SD_au8Swedish_ta_head_call_setup
000ac448   _APP_SD_au8Swedish_ta_head_call_waiting
000ac458   _APP_SD_au8Swedish_ta_head_calls
000aca20   _APP_SD_au8Swedish_ta_head_conference
000aca2c   _APP_SD_au8Swedish_ta_head_conference_hold
000ac6ac   _APP_SD_au8Swedish_ta_head_datacall
000ac574   _APP_SD_au8Swedish_ta_head_delete_user
000accc0   _APP_SD_au8Swedish_ta_head_dial_nbr
000ac6cc   _APP_SD_au8Swedish_ta_head_dtmf
000ac6f4   _APP_SD_au8Swedish_ta_head_faxcall
000ac3f0   _APP_SD_au8Swedish_ta_head_incoming_call
000aceb0   _APP_SD_au8Swedish_ta_head_mailbox
000acb48   _APP_SD_au8Swedish_ta_head_media_player
000ac4a0   _APP_SD_au8Swedish_ta_head_nametag
000acd90   _APP_SD_au8Swedish_ta_head_number
000ac548   _APP_SD_au8Swedish_ta_head_options
000acd08   _APP_SD_au8Swedish_ta_head_passkey
000acee8   _APP_SD_au8Swedish_ta_head_phone
000acf3c   _APP_SD_au8Swedish_ta_head_phone_book
000acfc4   _APP_SD_au8Swedish_ta_head_phone_name
000acd4c   _APP_SD_au8Swedish_ta_head_private_call
000ac4e4   _APP_SD_au8Swedish_ta_head_reset_voice_tag
000ace10   _APP_SD_au8Swedish_ta_head_setting_signals
000acb70   _APP_SD_au8Swedish_ta_head_sms
000acba0   _APP_SD_au8Swedish_ta_head_sms_from
000ace20   _APP_SD_au8Swedish_ta_head_sorting_order
000acaa0   _APP_SD_au8Swedish_ta_head_stack_dialled
000ac3c8   _APP_SD_au8Swedish_ta_head_stack_missed
000ac3b8   _APP_SD_au8Swedish_ta_head_stack_received
000ac59c   _APP_SD_au8Swedish_ta_head_user
000ad0dc   _APP_SD_au8Swedish_ta_help_text
000ad1c8   _APP_SD_au8Swedish_ta_list_back
000ac638   _APP_SD_au8Swedish_ta_main_bluetooth
000ac468   _APP_SD_au8Swedish_ta_main_callstacks
000acccc   _APP_SD_au8Swedish_ta_main_dial
000acea0   _APP_SD_au8Swedish_ta_main_mailbox
000acb54   _APP_SD_au8Swedish_ta_main_menu
000acbc0   _APP_SD_au8Swedish_ta_main_messages
000ac6d4   _APP_SD_au8Swedish_ta_main_settings
000acb3c   _APP_SD_au8Swedish_ta_media_player
000ac844   _APP_SD_au8Swedish_ta_menu_bt_help
000ac460   _APP_SD_au8Swedish_ta_menu_call
000ac280   _APP_SD_au8Swedish_ta_menu_cancel
000acad0   _APP_SD_au8Swedish_ta_menu_delete
000ac554   _APP_SD_au8Swedish_ta_menu_end
000acc6c   _APP_SD_au8Swedish_ta_menu_new_user
000ac9a0   _APP_SD_au8Swedish_ta_menu_no_nbr
000acce8   _APP_SD_au8Swedish_ta_menu_ok
000ace60   _APP_SD_au8Swedish_ta_menu_save
000ac504   _APP_SD_au8Swedish_ta_menu_show
000ac55c   _APP_SD_au8Swedish_ta_menu_user
000ad0b4   _APP_SD_au8Swedish_ta_menu_view
000ac358   _APP_SD_au8Swedish_ta_music_paused
000ac9e8   _APP_SD_au8Swedish_ta_no_media_player_found
000ad064   _APP_SD_au8Swedish_ta_note_bt_acc_conn
000ac678   _APP_SD_au8Swedish_ta_note_bt_conn_impos
000ad040   _APP_SD_au8Swedish_ta_note_bt_conn_setup
000ad028   _APP_SD_au8Swedish_ta_note_bt_no_conn
000ac390   _APP_SD_au8Swedish_ta_note_bt_passkey_err
000acf60   _APP_SD_au8Swedish_ta_note_call_estab_failed
000aca3c   _APP_SD_au8Swedish_ta_note_conf_not_poss
000acc54   _APP_SD_au8Swedish_ta_note_conn_err
000ad014   _APP_SD_au8Swedish_ta_note_conn_terminated
000ad054   _APP_SD_au8Swedish_ta_note_connected
000acd30   _APP_SD_au8Swedish_ta_note_connecting_player
000aca60   _APP_SD_au8Swedish_ta_note_copy_sms_failed
000acaec   _APP_SD_au8Swedish_ta_note_delete_impos_phone_active
000ac7e0   _APP_SD_au8Swedish_ta_note_deleted
000acef0   _APP_SD_au8Swedish_ta_note_enter_cradle
000ac624   _APP_SD_au8Swedish_ta_note_enter_number
000ac290   _APP_SD_au8Swedish_ta_note_ignition
000ac748   _APP_SD_au8Swedish_ta_note_info_call
000acd78   _APP_SD_au8Swedish_ta_note_invalid_number
000ac9bc   _APP_SD_au8Swedish_ta_note_mailbox_no
000ac5d4   _APP_SD_au8Swedish_ta_note_max_users
000ac438   _APP_SD_au8Swedish_ta_note_missed_call
000acc18   _APP_SD_au8Swedish_ta_note_name_exists
000acc2c   _APP_SD_au8Swedish_ta_note_name_stored
000acc38   _APP_SD_au8Swedish_ta_note_network_busy
000acc94   _APP_SD_au8Swedish_ta_note_new_pb_available
000acc7c   _APP_SD_au8Swedish_ta_note_new_phone_found
000acc64   _APP_SD_au8Swedish_ta_note_new_sms
000ac5bc   _APP_SD_au8Swedish_ta_note_new_user
000ac8e4   _APP_SD_au8Swedish_ta_note_no_accessory
000ac8ac   _APP_SD_au8Swedish_ta_note_no_act_device
000ac8f8   _APP_SD_au8Swedish_ta_note_no_bt_conn_acc
000ac91c   _APP_SD_au8Swedish_ta_note_no_bt_conn_rsap
000ac890   _APP_SD_au8Swedish_ta_note_no_bt_phone
000ac94c   _APP_SD_au8Swedish_ta_note_no_entries
000ac9a8   _APP_SD_au8Swedish_ta_note_no_nbr
000ac98c   _APP_SD_au8Swedish_ta_note_no_network
000ac960   _APP_SD_au8Swedish_ta_note_no_paired_dev
000ac8c0   _APP_SD_au8Swedish_ta_note_no_phone
000acbc8   _APP_SD_au8Swedish_ta_note_no_rsap
000ac978   _APP_SD_au8Swedish_ta_note_no_sms
000ac860   _APP_SD_au8Swedish_ta_note_no_user
000ac600   _APP_SD_au8Swedish_ta_note_number_busy
000acf48   _APP_SD_au8Swedish_ta_note_pb_load_error
000acfa4   _APP_SD_au8Swedish_ta_note_pb_loading_all
000acf68   _APP_SD_au8Swedish_ta_note_pb_not_complete
000acec8   _APP_SD_au8Swedish_ta_note_pb_refresh_impos
000acf88   _APP_SD_au8Swedish_ta_note_pbook_loading
000acf14   _APP_SD_au8Swedish_ta_note_phone_initiated
000ac4b8   _APP_SD_au8Swedish_ta_note_read_voice_tag
000acbac   _APP_SD_au8Swedish_ta_note_reading_sms
000acbe8   _APP_SD_au8Swedish_ta_note_search_phones
000ac584   _APP_SD_au8Swedish_ta_note_search_user
000acd14   _APP_SD_au8Swedish_ta_note_searching_players
000ac770   _APP_SD_au8Swedish_ta_note_service_call
000acdcc   _APP_SD_au8Swedish_ta_note_service_not_supp
000acb74   _APP_SD_au8Swedish_ta_note_sms_deleted
000acb80   _APP_SD_au8Swedish_ta_note_sms_no_read
000acad8   _APP_SD_au8Swedish_ta_note_sms_not_deleted
000ac7b8   _APP_SD_au8Swedish_ta_note_sos_call
000ac488   _APP_SD_au8Swedish_ta_note_stacks_cleared
000ace38   _APP_SD_au8Swedish_ta_note_tag_no_memory
000ac5ec   _APP_SD_au8Swedish_ta_note_user_connected
000ac7e8   _APP_SD_au8Swedish_ta_note_user_deleted
000ac608   _APP_SD_au8Swedish_ta_note_user_not_created
000ac734   _APP_SD_au8Swedish_ta_note_visible
000ace8c   _APP_SD_au8Swedish_ta_note_voice_active
000ace70   _APP_SD_au8Swedish_ta_note_voice_not_ready
000ac4cc   _APP_SD_au8Swedish_ta_note_voice_tag_reset
000ad098   _APP_SD_au8Swedish_ta_note_wait_reply
000accb8   _APP_SD_au8Swedish_ta_number
000ac540   _APP_SD_au8Swedish_ta_off
000ac6d0   _APP_SD_au8Swedish_ta_on
000ac318   _APP_SD_au8Swedish_ta_pb_download
000ac4ac   _APP_SD_au8Swedish_ta_pb_nametag
000ad090   _APP_SD_au8Swedish_ta_pb_sort_firstname
000acc0c   _APP_SD_au8Swedish_ta_pb_sort_lastname
000acf30   _APP_SD_au8Swedish_ta_phone_book
000ad1d0   _APP_SD_au8Swedish_ta_phone_no_answer
000acfd0   _APP_SD_au8Swedish_ta_phone_search
000acd40   _APP_SD_au8Swedish_ta_private_call
000ad004   _APP_SD_au8Swedish_ta_query_connect
000ac2bc   _APP_SD_au8Swedish_ta_query_del_act_device
000ac2cc   _APP_SD_au8Swedish_ta_query_del_act_user
000acb20   _APP_SD_au8Swedish_ta_query_del_device
000ac33c   _APP_SD_au8Swedish_ta_query_delete_log
000acb94   _APP_SD_au8Swedish_ta_query_delete_sms
000acb28   _APP_SD_au8Swedish_ta_query_delete_user
000ac5a8   _APP_SD_au8Swedish_ta_query_new_user
000ac324   _APP_SD_au8Swedish_ta_query_terminate_conn
000acdf0   _APP_SD_au8Swedish_ta_query_visibility
000ad084   _APP_SD_au8Swedish_ta_read_out_sms
000ac800   _APP_SD_au8Swedish_ta_replace
000acec0   _APP_SD_au8Swedish_ta_search
000ace00   _APP_SD_au8Swedish_ta_setting_signals
000acda0   _APP_SD_au8Swedish_ta_setting_tone
000acd58   _APP_SD_au8Swedish_ta_sms_call
000acdac   _APP_SD_au8Swedish_ta_sms_concatenated
000acdc4   _APP_SD_au8Swedish_ta_sms_time
000ace2c   _APP_SD_au8Swedish_ta_sorting_order
000acac0   _APP_SD_au8Swedish_ta_stack_clear
000acab0   _APP_SD_au8Swedish_ta_stack_dialled
000ac3d8   _APP_SD_au8Swedish_ta_stack_missed
000ac388   _APP_SD_au8Swedish_ta_stack_received
000accac   _APP_SD_au8Swedish_ta_supp_not_possible
000ac4fc   _APP_SD_au8Swedish_ta_sw_info
000acff4   _APP_SD_au8Swedish_ta_switch
000ad0a8   _APP_SD_au8Swedish_ta_tag_play
000ac538   _APP_SD_au8Swedish_ta_tag_record
000ac240   _APP_SD_au8Swedish_ta_time_am
000ac6a4   _APP_SD_au8Swedish_ta_time_format
000ac250   _APP_SD_au8Swedish_ta_time_pm
000ac270   _APP_SD_au8Swedish_ta_time_standard
000ac83c   _APP_SD_au8Swedish_ta_time_value
000ac508   _APP_SD_au8Swedish_ta_voice_tag_reset
000ad0c0   _APP_SD_au8Swedish_ta_wait_bt_acc_search
000ac61c   _APP_SD_au8Swedish_ta_wait_general
000ad45c   _APP_SD_au8Turkish_call_head_register
000ad500   _APP_SD_au8Turkish_head_audio_mode
000ad654   _APP_SD_au8Turkish_head_bluetooth
000ad824   _APP_SD_au8Turkish_head_device_list
000ad870   _APP_SD_au8Turkish_head_headset
000adc2c   _APP_SD_au8Turkish_head_messages
000ad704   _APP_SD_au8Turkish_head_settings
000ad540   _APP_SD_au8Turkish_head_user
000adcbc   _APP_SD_au8Turkish_new_sms
000ad7d4   _APP_SD_au8Turkish_paired_head_devices
000ad890   _APP_SD_au8Turkish_ta_always
000ad4f8   _APP_SD_au8Turkish_ta_audio_mode
000adf04   _APP_SD_au8Turkish_ta_backspace
000ae1b0   _APP_SD_au8Turkish_ta_bt_accessory
000ad2ec   _APP_SD_au8Turkish_ta_bt_active_device
000ae0cc   _APP_SD_au8Turkish_ta_bt_disconnect
000ad860   _APP_SD_au8Turkish_ta_bt_headset
000ad660   _APP_SD_au8Turkish_ta_bt_no_conn_headset
000ae0a0   _APP_SD_au8Turkish_ta_bt_own_name
000ad7c4   _APP_SD_au8Turkish_ta_bt_paired_devices
000ae0d4   _APP_SD_au8Turkish_ta_bt_rename
000ade78   _APP_SD_au8Turkish_ta_bt_visibility
000ad398   _APP_SD_au8Turkish_ta_call_accept
000ad3d4   _APP_SD_au8Turkish_ta_call_call1
000ad3e4   _APP_SD_au8Turkish_ta_call_call2
000ad250   _APP_SD_au8Turkish_ta_call_diverted
000ad6ec   _APP_SD_au8Turkish_ta_call_dtmf
000ad50c   _APP_SD_au8Turkish_ta_call_end
000ad83c   _APP_SD_au8Turkish_ta_call_end_active
000ad364   _APP_SD_au8Turkish_ta_call_end_all
000ad718   _APP_SD_au8Turkish_ta_call_handsfree
000ad858   _APP_SD_au8Turkish_ta_call_hold
000ad89c   _APP_SD_au8Turkish_ta_call_info
000adbb0   _APP_SD_au8Turkish_ta_call_micro_off
000adbc0   _APP_SD_au8Turkish_ta_call_micro_on
000ad278   _APP_SD_au8Turkish_ta_call_reject
000ad2f8   _APP_SD_au8Turkish_ta_call_resume
000add78   _APP_SD_au8Turkish_ta_call_service
000adb04   _APP_SD_au8Turkish_ta_call_silent
000add90   _APP_SD_au8Turkish_ta_call_sos
000adb88   _APP_SD_au8Turkish_ta_call_swap
000ada70   _APP_SD_au8Turkish_ta_call_waiting
000add5c   _APP_SD_au8Turkish_ta_calls_only
000adab8   _APP_SD_au8Turkish_ta_conference
000ae338   _APP_SD_au8Turkish_ta_confirm_pw_in_device
000ae318   _APP_SD_au8Turkish_ta_confirm_pw_with_OK
000ae0f0   _APP_SD_au8Turkish_ta_connect
000ad6e0   _APP_SD_au8Turkish_ta_date_value
000ad84c   _APP_SD_au8Turkish_ta_disconnected
000ad3f4   _APP_SD_au8Turkish_ta_end_call
000adae0   _APP_SD_au8Turkish_ta_err_load_phonebook
000bfc84   _APP_SD_au8Turkish_ta_find_mailbox_1
000bfc90   _APP_SD_au8Turkish_ta_find_mailbox_2
000bfc9c   _APP_SD_au8Turkish_ta_find_mailbox_3
000bfcac   _APP_SD_au8Turkish_ta_find_mailbox_4
000ad728   _APP_SD_au8Turkish_ta_function_restriction
000ad2d8   _APP_SD_au8Turkish_ta_head_active_tone
000ad3c4   _APP_SD_au8Turkish_ta_head_call
000ad3dc   _APP_SD_au8Turkish_ta_head_call1
000ad3ec   _APP_SD_au8Turkish_ta_head_call2
000ad2cc   _APP_SD_au8Turkish_ta_head_call_active
000ad404   _APP_SD_au8Turkish_ta_head_call_hold
000ade08   _APP_SD_au8Turkish_ta_head_call_setup
000ad428   _APP_SD_au8Turkish_ta_head_call_waiting
000ad43c   _APP_SD_au8Turkish_ta_head_calls
000ada7c   _APP_SD_au8Turkish_ta_head_conference
000ada88   _APP_SD_au8Turkish_ta_head_conference_hold
000ad6d4   _APP_SD_au8Turkish_ta_head_datacall
000ad54c   _APP_SD_au8Turkish_ta_head_delete_user
000add44   _APP_SD_au8Turkish_ta_head_dial_nbr
000ad6f0   _APP_SD_au8Turkish_ta_head_dtmf
000ad70c   _APP_SD_au8Turkish_ta_head_faxcall
000ad3cc   _APP_SD_au8Turkish_ta_head_incoming_call
000adf54   _APP_SD_au8Turkish_ta_head_mailbox
000adb9c   _APP_SD_au8Turkish_ta_head_media_player
000ad484   _APP_SD_au8Turkish_ta_head_nametag
000ade20   _APP_SD_au8Turkish_ta_head_number
000ad524   _APP_SD_au8Turkish_ta_head_options
000add9c   _APP_SD_au8Turkish_ta_head_passkey
000adf90   _APP_SD_au8Turkish_ta_head_phone
000adffc   _APP_SD_au8Turkish_ta_head_phone_book
000ae0ac   _APP_SD_au8Turkish_ta_head_phone_name
000addec   _APP_SD_au8Turkish_ta_head_private_call
000ad4cc   _APP_SD_au8Turkish_ta_head_reset_voice_tag
000adeb0   _APP_SD_au8Turkish_ta_head_setting_signals
000adbd0   _APP_SD_au8Turkish_ta_head_sms
000adc04   _APP_SD_au8Turkish_ta_head_sms_from
000adec0   _APP_SD_au8Turkish_ta_head_sorting_order
000adb0c   _APP_SD_au8Turkish_ta_head_stack_dialled
000ad3ac   _APP_SD_au8Turkish_ta_head_stack_missed
000ad3a0   _APP_SD_au8Turkish_ta_head_stack_received
000ad574   _APP_SD_au8Turkish_ta_head_user
000ae1ec   _APP_SD_au8Turkish_ta_help_text
000ae2f8   _APP_SD_au8Turkish_ta_list_back
000ad648   _APP_SD_au8Turkish_ta_main_bluetooth
000ad44c   _APP_SD_au8Turkish_ta_main_callstacks
000add50   _APP_SD_au8Turkish_ta_main_dial
000adf48   _APP_SD_au8Turkish_ta_main_mailbox
000adba8   _APP_SD_au8Turkish_ta_main_menu
000adc24   _APP_SD_au8Turkish_ta_main_messages
000ad6fc   _APP_SD_au8Turkish_ta_main_settings
000adb90   _APP_SD_au8Turkish_ta_media_player
000ad888   _APP_SD_au8Turkish_ta_menu_bt_help
000ad444   _APP_SD_au8Turkish_ta_menu_call
000ad270   _APP_SD_au8Turkish_ta_menu_cancel
000adb2c   _APP_SD_au8Turkish_ta_menu_delete
000ad52c   _APP_SD_au8Turkish_ta_menu_end
000adce4   _APP_SD_au8Turkish_ta_menu_new_user
000ad9fc   _APP_SD_au8Turkish_ta_menu_no_nbr
000add70   _APP_SD_au8Turkish_ta_menu_ok
000adefc   _APP_SD_au8Turkish_ta_menu_save
000ad4e8   _APP_SD_au8Turkish_ta_menu_show
000ad534   _APP_SD_au8Turkish_ta_menu_user
000ae1a8   _APP_SD_au8Turkish_ta_menu_view
000ad33c   _APP_SD_au8Turkish_ta_music_paused
000ada4c   _APP_SD_au8Turkish_ta_no_media_player_found
000ae158   _APP_SD_au8Turkish_ta_note_bt_acc_conn
000ad698   _APP_SD_au8Turkish_ta_note_bt_conn_impos
000ae134   _APP_SD_au8Turkish_ta_note_bt_conn_setup
000ae11c   _APP_SD_au8Turkish_ta_note_bt_no_conn
000ad380   _APP_SD_au8Turkish_ta_note_bt_passkey_err
000ae028   _APP_SD_au8Turkish_ta_note_call_estab_failed
000adaa0   _APP_SD_au8Turkish_ta_note_conf_not_poss
000adcc8   _APP_SD_au8Turkish_ta_note_conn_err
000ae108   _APP_SD_au8Turkish_ta_note_conn_terminated
000ae148   _APP_SD_au8Turkish_ta_note_connected
000addc8   _APP_SD_au8Turkish_ta_note_connecting_player
000adac4   _APP_SD_au8Turkish_ta_note_copy_sms_failed
000adb48   _APP_SD_au8Turkish_ta_note_delete_impos_phone_active
000ad810   _APP_SD_au8Turkish_ta_note_deleted
000adf98   _APP_SD_au8Turkish_ta_note_enter_cradle
000ad628   _APP_SD_au8Turkish_ta_note_enter_number
000ad280   _APP_SD_au8Turkish_ta_note_ignition
000ad768   _APP_SD_au8Turkish_ta_note_info_call
000ade10   _APP_SD_au8Turkish_ta_note_invalid_number
000ada1c   _APP_SD_au8Turkish_ta_note_mailbox_no
000ad5c0   _APP_SD_au8Turkish_ta_note_max_users
000ad414   _APP_SD_au8Turkish_ta_note_missed_call
000adc7c   _APP_SD_au8Turkish_ta_note_name_exists
000adc94   _APP_SD_au8Turkish_ta_note_name_stored
000adca4   _APP_SD_au8Turkish_ta_note_network_busy
000add10   _APP_SD_au8Turkish_ta_note_new_pb_available
000adcf4   _APP_SD_au8Turkish_ta_note_new_phone_found
000adcd8   _APP_SD_au8Turkish_ta_note_new_sms
000ad598   _APP_SD_au8Turkish_ta_note_new_user
000ad934   _APP_SD_au8Turkish_ta_note_no_accessory
000ad900   _APP_SD_au8Turkish_ta_note_no_act_device
000ad958   _APP_SD_au8Turkish_ta_note_no_bt_conn_acc
000ad974   _APP_SD_au8Turkish_ta_note_no_bt_conn_rsap
000ad8e8   _APP_SD_au8Turkish_ta_note_no_bt_phone
000ad99c   _APP_SD_au8Turkish_ta_note_no_entries
000ada08   _APP_SD_au8Turkish_ta_note_no_nbr
000ad9e4   _APP_SD_au8Turkish_ta_note_no_network
000ad9b8   _APP_SD_au8Turkish_ta_note_no_paired_dev
000ad918   _APP_SD_au8Turkish_ta_note_no_phone
000adc34   _APP_SD_au8Turkish_ta_note_no_rsap
000ad9c8   _APP_SD_au8Turkish_ta_note_no_sms
000ad8ac   _APP_SD_au8Turkish_ta_note_no_user
000ad5f4   _APP_SD_au8Turkish_ta_note_number_busy
000ae00c   _APP_SD_au8Turkish_ta_note_pb_load_error
000ae084   _APP_SD_au8Turkish_ta_note_pb_loading_all
000ae03c   _APP_SD_au8Turkish_ta_note_pb_not_complete
000adf68   _APP_SD_au8Turkish_ta_note_pb_refresh_impos
000ae060   _APP_SD_au8Turkish_ta_note_pbook_loading
000adfc8   _APP_SD_au8Turkish_ta_note_phone_initiated
000ad49c   _APP_SD_au8Turkish_ta_note_read_voice_tag
000adc18   _APP_SD_au8Turkish_ta_note_reading_sms
000adc4c   _APP_SD_au8Turkish_ta_note_search_phones
000ad55c   _APP_SD_au8Turkish_ta_note_search_user
000adda4   _APP_SD_au8Turkish_ta_note_searching_players
000ad798   _APP_SD_au8Turkish_ta_note_service_call
000ade60   _APP_SD_au8Turkish_ta_note_service_not_supp
000adbd8   _APP_SD_au8Turkish_ta_note_sms_deleted
000adbe4   _APP_SD_au8Turkish_ta_note_sms_no_read
000adb30   _APP_SD_au8Turkish_ta_note_sms_not_deleted
000ad7e4   _APP_SD_au8Turkish_ta_note_sos_call
000ad46c   _APP_SD_au8Turkish_ta_note_stacks_cleared
000aded0   _APP_SD_au8Turkish_ta_note_tag_no_memory
000ad5e0   _APP_SD_au8Turkish_ta_note_user_connected
000ad818   _APP_SD_au8Turkish_ta_note_user_deleted
000ad5fc   _APP_SD_au8Turkish_ta_note_user_not_created
000ad748   _APP_SD_au8Turkish_ta_note_visible
000adf30   _APP_SD_au8Turkish_ta_note_voice_active
000adf08   _APP_SD_au8Turkish_ta_note_voice_not_ready
000ad4b4   _APP_SD_au8Turkish_ta_note_voice_tag_reset
000ae190   _APP_SD_au8Turkish_ta_note_wait_reply
000add3c   _APP_SD_au8Turkish_ta_number
000ad51c   _APP_SD_au8Turkish_ta_off
000ad6f4   _APP_SD_au8Turkish_ta_on
000ad304   _APP_SD_au8Turkish_ta_pb_download
000ad490   _APP_SD_au8Turkish_ta_pb_nametag
000ae188   _APP_SD_au8Turkish_ta_pb_sort_firstname
000adc74   _APP_SD_au8Turkish_ta_pb_sort_lastname
000adfec   _APP_SD_au8Turkish_ta_phone_book
000ae2fc   _APP_SD_au8Turkish_ta_phone_no_answer
000ae0bc   _APP_SD_au8Turkish_ta_phone_search
000adddc   _APP_SD_au8Turkish_ta_private_call
000ae0f8   _APP_SD_au8Turkish_ta_query_connect
000ad2ac   _APP_SD_au8Turkish_ta_query_del_act_device
000ad2bc   _APP_SD_au8Turkish_ta_query_del_act_user
000adb7c   _APP_SD_au8Turkish_ta_query_del_device
000ad324   _APP_SD_au8Turkish_ta_query_delete_log
000adbf8   _APP_SD_au8Turkish_ta_query_delete_sms
000adb80   _APP_SD_au8Turkish_ta_query_delete_user
000ad580   _APP_SD_au8Turkish_ta_query_new_user
000ad310   _APP_SD_au8Turkish_ta_query_terminate_conn
000ade88   _APP_SD_au8Turkish_ta_query_visibility
000ae180   _APP_SD_au8Turkish_ta_read_out_sms
000ad830   _APP_SD_au8Turkish_ta_replace
000adf64   _APP_SD_au8Turkish_ta_search
000adea0   _APP_SD_au8Turkish_ta_setting_signals
000ade30   _APP_SD_au8Turkish_ta_setting_tone
000addfc   _APP_SD_au8Turkish_ta_sms_call
000ade38   _APP_SD_au8Turkish_ta_sms_concatenated
000ade50   _APP_SD_au8Turkish_ta_sms_time
000adec8   _APP_SD_au8Turkish_ta_sorting_order
000adb1c   _APP_SD_au8Turkish_ta_stack_clear
000adb14   _APP_SD_au8Turkish_ta_stack_dialled
000ad3b8   _APP_SD_au8Turkish_ta_stack_missed
000ad374   _APP_SD_au8Turkish_ta_stack_received
000add2c   _APP_SD_au8Turkish_ta_supp_not_possible
000ad4e0   _APP_SD_au8Turkish_ta_sw_info
000ae0e8   _APP_SD_au8Turkish_ta_switch
000ae1a0   _APP_SD_au8Turkish_ta_tag_play
000ad514   _APP_SD_au8Turkish_ta_tag_record
000ad230   _APP_SD_au8Turkish_ta_time_am
000ad6cc   _APP_SD_au8Turkish_ta_time_format
000ad240   _APP_SD_au8Turkish_ta_time_pm
000ad260   _APP_SD_au8Turkish_ta_time_standard
000ad880   _APP_SD_au8Turkish_ta_time_value
000ad4f0   _APP_SD_au8Turkish_ta_voice_tag_reset
000ae1c0   _APP_SD_au8Turkish_ta_wait_bt_acc_search
000ad614   _APP_SD_au8Turkish_ta_wait_general
000a75e0   _APP_SD_au8USEnglish_call_head_register
000a766c   _APP_SD_au8USEnglish_head_audio_mode
000a7774   _APP_SD_au8USEnglish_head_bluetooth
000a7920   _APP_SD_au8USEnglish_head_device_list
000a795c   _APP_SD_au8USEnglish_head_headset
000a7c74   _APP_SD_au8USEnglish_head_messages
000a7818   _APP_SD_au8USEnglish_head_settings
000a76a0   _APP_SD_au8USEnglish_head_user
000a7cec   _APP_SD_au8USEnglish_new_sms
000a78d0   _APP_SD_au8USEnglish_paired_head_devices
000a7970   _APP_SD_au8USEnglish_ta_always
000a7660   _APP_SD_au8USEnglish_ta_audio_mode
000a7ee0   _APP_SD_au8USEnglish_ta_backspace
000a8120   _APP_SD_au8USEnglish_ta_bt_accessory
000a74ac   _APP_SD_au8USEnglish_ta_bt_active_device
000a8058   _APP_SD_au8USEnglish_ta_bt_disconnect
000a7954   _APP_SD_au8USEnglish_ta_bt_headset
000a7780   _APP_SD_au8USEnglish_ta_bt_no_conn_headset
000a8034   _APP_SD_au8USEnglish_ta_bt_own_name
000a78c0   _APP_SD_au8USEnglish_ta_bt_paired_devices
000a8064   _APP_SD_au8USEnglish_ta_bt_rename
000a7e68   _APP_SD_au8USEnglish_ta_bt_visibility
000a7540   _APP_SD_au8USEnglish_ta_call_accept
000a7578   _APP_SD_au8USEnglish_ta_call_call1
000a7588   _APP_SD_au8USEnglish_ta_call_call2
000a7420   _APP_SD_au8USEnglish_ta_call_diverted
000a7804   _APP_SD_au8USEnglish_ta_call_dtmf
000a7678   _APP_SD_au8USEnglish_ta_call_end
000a7934   _APP_SD_au8USEnglish_ta_call_end_active
000a750c   _APP_SD_au8USEnglish_ta_call_end_all
000a7828   _APP_SD_au8USEnglish_ta_call_handsfree
000a7950   _APP_SD_au8USEnglish_ta_call_hold
000a7978   _APP_SD_au8USEnglish_ta_call_info
000a7bfc   _APP_SD_au8USEnglish_ta_call_micro_off
000a7c00   _APP_SD_au8USEnglish_ta_call_micro_on
000a7444   _APP_SD_au8USEnglish_ta_call_reject
000a74bc   _APP_SD_au8USEnglish_ta_call_resume
000a7d84   _APP_SD_au8USEnglish_ta_call_service
000a7b44   _APP_SD_au8USEnglish_ta_call_silent
000a7d90   _APP_SD_au8USEnglish_ta_call_sos
000a7bdc   _APP_SD_au8USEnglish_ta_call_swap
000a7acc   _APP_SD_au8USEnglish_ta_call_waiting
000a7d74   _APP_SD_au8USEnglish_ta_calls_only
000a7b0c   _APP_SD_au8USEnglish_ta_conference
000a826c   _APP_SD_au8USEnglish_ta_confirm_pw_in_device
000a8250   _APP_SD_au8USEnglish_ta_confirm_pw_with_OK
000a8074   _APP_SD_au8USEnglish_ta_connect
000a77f8   _APP_SD_au8USEnglish_ta_date_value
000a7944   _APP_SD_au8USEnglish_ta_disconnected
000a7598   _APP_SD_au8USEnglish_ta_end_call
000a7b2c   _APP_SD_au8USEnglish_ta_err_load_phonebook
000bfba8   _APP_SD_au8USEnglish_ta_find_mailbox_1
000bfbb4   _APP_SD_au8USEnglish_ta_find_mailbox_2
000bfbbc   _APP_SD_au8USEnglish_ta_find_mailbox_3
000bfbcc   _APP_SD_au8USEnglish_ta_find_mailbox_4
000a7834   _APP_SD_au8USEnglish_ta_function_restriction
000a7498   _APP_SD_au8USEnglish_ta_head_active_tone
000a7570   _APP_SD_au8USEnglish_ta_head_call
000a7580   _APP_SD_au8USEnglish_ta_head_call1
000a7590   _APP_SD_au8USEnglish_ta_head_call2
000a748c   _APP_SD_au8USEnglish_ta_head_call_active
000a75a0   _APP_SD_au8USEnglish_ta_head_call_hold
000a7e00   _APP_SD_au8USEnglish_ta_head_call_setup
000a75bc   _APP_SD_au8USEnglish_ta_head_call_waiting
000a75c8   _APP_SD_au8USEnglish_ta_head_calls
000a7ad4   _APP_SD_au8USEnglish_ta_head_conference
000a7ae0   _APP_SD_au8USEnglish_ta_head_conference_hold
000a77ec   _APP_SD_au8USEnglish_ta_head_datacall
000a76a4   _APP_SD_au8USEnglish_ta_head_delete_user
000a7d5c   _APP_SD_au8USEnglish_ta_head_dial_nbr
000a7808   _APP_SD_au8USEnglish_ta_head_dtmf
000a7820   _APP_SD_au8USEnglish_ta_head_faxcall
000a7574   _APP_SD_au8USEnglish_ta_head_incoming_call
000a7f2c   _APP_SD_au8USEnglish_ta_head_mailbox
000a7bec   _APP_SD_au8USEnglish_ta_head_media_player
000a7600   _APP_SD_au8USEnglish_ta_head_nametag
000a7e1c   _APP_SD_au8USEnglish_ta_head_number
000a768c   _APP_SD_au8USEnglish_ta_head_options
000a7d98   _APP_SD_au8USEnglish_ta_head_passkey
000a7f60   _APP_SD_au8USEnglish_ta_head_phone
000a7fb0   _APP_SD_au8USEnglish_ta_head_phone_book
000a8040   _APP_SD_au8USEnglish_ta_head_phone_name
000a7dec   _APP_SD_au8USEnglish_ta_head_private_call
000a763c   _APP_SD_au8USEnglish_ta_head_reset_voice_tag
000a7e98   _APP_SD_au8USEnglish_ta_head_setting_signals
000a7c08   _APP_SD_au8USEnglish_ta_head_sms
000a7c48   _APP_SD_au8USEnglish_ta_head_sms_from
000a7ea8   _APP_SD_au8USEnglish_ta_head_sorting_order
000a7b4c   _APP_SD_au8USEnglish_ta_head_stack_dialled
000a7558   _APP_SD_au8USEnglish_ta_head_stack_missed
000a7548   _APP_SD_au8USEnglish_ta_head_stack_received
000a76c0   _APP_SD_au8USEnglish_ta_head_user
000a8148   _APP_SD_au8USEnglish_ta_help_text
000a8230   _APP_SD_au8USEnglish_ta_list_back
000a7768   _APP_SD_au8USEnglish_ta_main_bluetooth
000a75d4   _APP_SD_au8USEnglish_ta_main_callstacks
000a7d68   _APP_SD_au8USEnglish_ta_main_dial
000a7f1c   _APP_SD_au8USEnglish_ta_main_mailbox
000a7bf8   _APP_SD_au8USEnglish_ta_main_menu
000a7c6c   _APP_SD_au8USEnglish_ta_main_messages
000a7810   _APP_SD_au8USEnglish_ta_main_settings
000a7be0   _APP_SD_au8USEnglish_ta_media_player
000a796c   _APP_SD_au8USEnglish_ta_menu_bt_help
000a75d0   _APP_SD_au8USEnglish_ta_menu_call
000a743c   _APP_SD_au8USEnglish_ta_menu_cancel
000a7b78   _APP_SD_au8USEnglish_ta_menu_delete
000a7694   _APP_SD_au8USEnglish_ta_menu_end
000a7d10   _APP_SD_au8USEnglish_ta_menu_new_user
000a7a7c   _APP_SD_au8USEnglish_ta_menu_no_nbr
000a7d80   _APP_SD_au8USEnglish_ta_menu_ok
000a7edc   _APP_SD_au8USEnglish_ta_menu_save
000a7654   _APP_SD_au8USEnglish_ta_menu_show
000a769c   _APP_SD_au8USEnglish_ta_menu_user
000a811c   _APP_SD_au8USEnglish_ta_menu_view
000a74f8   _APP_SD_au8USEnglish_ta_music_paused
000a7aac   _APP_SD_au8USEnglish_ta_no_media_player_found
000a80d0   _APP_SD_au8USEnglish_ta_note_bt_acc_conn
000a77b4   _APP_SD_au8USEnglish_ta_note_bt_conn_impos
000a80b0   _APP_SD_au8USEnglish_ta_note_bt_conn_setup
000a8098   _APP_SD_au8USEnglish_ta_note_bt_no_conn
000a752c   _APP_SD_au8USEnglish_ta_note_bt_passkey_err
000a7fd8   _APP_SD_au8USEnglish_ta_note_call_estab_failed
000a7af4   _APP_SD_au8USEnglish_ta_note_conf_not_poss
000a7cf8   _APP_SD_au8USEnglish_ta_note_conn_err
000a808c   _APP_SD_au8USEnglish_ta_note_conn_terminated
000a80c0   _APP_SD_au8USEnglish_ta_note_connected
000a7dc8   _APP_SD_au8USEnglish_ta_note_connecting_player
000a7b18   _APP_SD_au8USEnglish_ta_note_copy_sms_failed
000a7b98   _APP_SD_au8USEnglish_ta_note_delete_impos_phone_active
000a790c   _APP_SD_au8USEnglish_ta_note_deleted
000a7f68   _APP_SD_au8USEnglish_ta_note_enter_cradle
000a7754   _APP_SD_au8USEnglish_ta_note_enter_number
000a744c   _APP_SD_au8USEnglish_ta_note_ignition
000a7874   _APP_SD_au8USEnglish_ta_note_info_call
000a7e08   _APP_SD_au8USEnglish_ta_note_invalid_number
000a7a90   _APP_SD_au8USEnglish_ta_note_mailbox_no
000a76fc   _APP_SD_au8USEnglish_ta_note_max_users
000a75b0   _APP_SD_au8USEnglish_ta_note_missed_call
000a7cc8   _APP_SD_au8USEnglish_ta_note_name_exists
000a7cd4   _APP_SD_au8USEnglish_ta_note_name_stored
000a7ce0   _APP_SD_au8USEnglish_ta_note_network_busy
000a7d30   _APP_SD_au8USEnglish_ta_note_new_pb_available
000a7d1c   _APP_SD_au8USEnglish_ta_note_new_phone_found
000a7d04   _APP_SD_au8USEnglish_ta_note_new_sms
000a76dc   _APP_SD_au8USEnglish_ta_note_new_user
000a79ec   _APP_SD_au8USEnglish_ta_note_no_accessory
000a79bc   _APP_SD_au8USEnglish_ta_note_no_act_device
000a79fc   _APP_SD_au8USEnglish_ta_note_no_bt_conn_acc
000a7a18   _APP_SD_au8USEnglish_ta_note_no_bt_conn_rsap
000a79a8   _APP_SD_au8USEnglish_ta_note_no_bt_phone
000a7a38   _APP_SD_au8USEnglish_ta_note_no_entries
000a7a84   _APP_SD_au8USEnglish_ta_note_no_nbr
000a7a70   _APP_SD_au8USEnglish_ta_note_no_network
000a7a4c   _APP_SD_au8USEnglish_ta_note_no_paired_dev
000a79cc   _APP_SD_au8USEnglish_ta_note_no_phone
000a7c7c   _APP_SD_au8USEnglish_ta_note_no_rsap
000a7a5c   _APP_SD_au8USEnglish_ta_note_no_sms
000a7984   _APP_SD_au8USEnglish_ta_note_no_user
000a772c   _APP_SD_au8USEnglish_ta_note_number_busy
000a7fbc   _APP_SD_au8USEnglish_ta_note_pb_load_error
000a8020   _APP_SD_au8USEnglish_ta_note_pb_loading_all
000a7fe8   _APP_SD_au8USEnglish_ta_note_pb_not_complete
000a7f44   _APP_SD_au8USEnglish_ta_note_pb_refresh_impos
000a8004   _APP_SD_au8USEnglish_ta_note_pbook_loading
000a7f80   _APP_SD_au8USEnglish_ta_note_phone_initiated
000a7618   _APP_SD_au8USEnglish_ta_note_read_voice_tag
000a7c54   _APP_SD_au8USEnglish_ta_note_reading_sms
000a7c98   _APP_SD_au8USEnglish_ta_note_search_phones
000a76b0   _APP_SD_au8USEnglish_ta_note_search_user
000a7da4   _APP_SD_au8USEnglish_ta_note_searching_players
000a7898   _APP_SD_au8USEnglish_ta_note_service_call
000a7e50   _APP_SD_au8USEnglish_ta_note_service_not_supp
000a7c10   _APP_SD_au8USEnglish_ta_note_sms_deleted
000a7c20   _APP_SD_au8USEnglish_ta_note_sms_no_read
000a7b80   _APP_SD_au8USEnglish_ta_note_sms_not_deleted
000a78e0   _APP_SD_au8USEnglish_ta_note_sos_call
000a75ec   _APP_SD_au8USEnglish_ta_note_stacks_cleared
000a7ec0   _APP_SD_au8USEnglish_ta_note_tag_no_memory
000a7714   _APP_SD_au8USEnglish_ta_note_user_connected
000a7914   _APP_SD_au8USEnglish_ta_note_user_deleted
000a7730   _APP_SD_au8USEnglish_ta_note_user_not_created
000a7860   _APP_SD_au8USEnglish_ta_note_visible
000a7f04   _APP_SD_au8USEnglish_ta_note_voice_active
000a7ee8   _APP_SD_au8USEnglish_ta_note_voice_not_ready
000a762c   _APP_SD_au8USEnglish_ta_note_voice_tag_reset
000a8100   _APP_SD_au8USEnglish_ta_note_wait_reply
000a7d54   _APP_SD_au8USEnglish_ta_number
000a7688   _APP_SD_au8USEnglish_ta_off
000a780c   _APP_SD_au8USEnglish_ta_on
000a74c4   _APP_SD_au8USEnglish_ta_pb_download
000a760c   _APP_SD_au8USEnglish_ta_pb_nametag
000a80f4   _APP_SD_au8USEnglish_ta_pb_sort_firstname
000a7cbc   _APP_SD_au8USEnglish_ta_pb_sort_lastname
000a7fa4   _APP_SD_au8USEnglish_ta_phone_book
000a8234   _APP_SD_au8USEnglish_ta_phone_no_answer
000a804c   _APP_SD_au8USEnglish_ta_phone_search
000a7ddc   _APP_SD_au8USEnglish_ta_private_call
000a807c   _APP_SD_au8USEnglish_ta_query_connect
000a746c   _APP_SD_au8USEnglish_ta_query_del_act_device
000a747c   _APP_SD_au8USEnglish_ta_query_del_act_user
000a7bc8   _APP_SD_au8USEnglish_ta_query_del_device
000a74e4   _APP_SD_au8USEnglish_ta_query_delete_log
000a7c38   _APP_SD_au8USEnglish_ta_query_delete_sms
000a7bd0   _APP_SD_au8USEnglish_ta_query_delete_user
000a76c8   _APP_SD_au8USEnglish_ta_query_new_user
000a74cc   _APP_SD_au8USEnglish_ta_query_terminate_conn
000a7e74   _APP_SD_au8USEnglish_ta_query_visibility
000a80ec   _APP_SD_au8USEnglish_ta_read_out_sms
000a792c   _APP_SD_au8USEnglish_ta_replace
000a7f3c   _APP_SD_au8USEnglish_ta_search
000a7e88   _APP_SD_au8USEnglish_ta_setting_signals
000a7e24   _APP_SD_au8USEnglish_ta_setting_tone
000a7df8   _APP_SD_au8USEnglish_ta_sms_call
000a7e30   _APP_SD_au8USEnglish_ta_sms_concatenated
000a7e44   _APP_SD_au8USEnglish_ta_sms_time
000a7eb4   _APP_SD_au8USEnglish_ta_sorting_order
000a7b6c   _APP_SD_au8USEnglish_ta_stack_clear
000a7b5c   _APP_SD_au8USEnglish_ta_stack_dialled
000a7564   _APP_SD_au8USEnglish_ta_stack_missed
000a751c   _APP_SD_au8USEnglish_ta_stack_received
000a7d48   _APP_SD_au8USEnglish_ta_supp_not_possible
000a764c   _APP_SD_au8USEnglish_ta_sw_info
000a806c   _APP_SD_au8USEnglish_ta_switch
000a8114   _APP_SD_au8USEnglish_ta_tag_play
000a7680   _APP_SD_au8USEnglish_ta_tag_record
000a7400   _APP_SD_au8USEnglish_ta_time_am
000a77e4   _APP_SD_au8USEnglish_ta_time_format
000a7410   _APP_SD_au8USEnglish_ta_time_pm
000a742c   _APP_SD_au8USEnglish_ta_time_standard
000a7964   _APP_SD_au8USEnglish_ta_time_value
000a7658   _APP_SD_au8USEnglish_ta_voice_tag_reset
000a8128   _APP_SD_au8USEnglish_ta_wait_bt_acc_search
000a7748   _APP_SD_au8USEnglish_ta_wait_general
000b07a8   _APP_SD_au8USSpanish_call_head_register
000b084c   _APP_SD_au8USSpanish_head_audio_mode
000b0988   _APP_SD_au8USSpanish_head_bluetooth
000b0b64   _APP_SD_au8USSpanish_head_device_list
000b0bb4   _APP_SD_au8USSpanish_head_headset
000b0f94   _APP_SD_au8USSpanish_head_messages
000b0a30   _APP_SD_au8USSpanish_head_settings
000b0890   _APP_SD_au8USSpanish_head_user
000b101c   _APP_SD_au8USSpanish_new_sms
000b0b08   _APP_SD_au8USSpanish_paired_head_devices
000b0bd0   _APP_SD_au8USSpanish_ta_always
000b0840   _APP_SD_au8USSpanish_ta_audio_mode
000b1258   _APP_SD_au8USSpanish_ta_backspace
000b1524   _APP_SD_au8USSpanish_ta_bt_accessory
000b062c   _APP_SD_au8USSpanish_ta_bt_active_device
000b143c   _APP_SD_au8USSpanish_ta_bt_disconnect
000b0ba8   _APP_SD_au8USSpanish_ta_bt_headset
000b0994   _APP_SD_au8USSpanish_ta_bt_no_conn_headset
000b140c   _APP_SD_au8USSpanish_ta_bt_own_name
000b0af8   _APP_SD_au8USSpanish_ta_bt_paired_devices
000b1448   _APP_SD_au8USSpanish_ta_bt_rename
000b11dc   _APP_SD_au8USSpanish_ta_bt_visibility
000b06cc   _APP_SD_au8USSpanish_ta_call_accept
000b0720   _APP_SD_au8USSpanish_ta_call_call1
000b0738   _APP_SD_au8USSpanish_ta_call_call2
000b0584   _APP_SD_au8USSpanish_ta_call_diverted
000b0a14   _APP_SD_au8USSpanish_ta_call_dtmf
000b0858   _APP_SD_au8USSpanish_ta_call_end
000b0b80   _APP_SD_au8USSpanish_ta_call_end_active
000b069c   _APP_SD_au8USSpanish_ta_call_end_all
000b0a3c   _APP_SD_au8USSpanish_ta_call_handsfree
000b0ba0   _APP_SD_au8USSpanish_ta_call_hold
000b0bd8   _APP_SD_au8USSpanish_ta_call_info
000b0f00   _APP_SD_au8USSpanish_ta_call_micro_off
000b0f14   _APP_SD_au8USSpanish_ta_call_micro_on
000b05a8   _APP_SD_au8USSpanish_ta_call_reject
000b063c   _APP_SD_au8USSpanish_ta_call_resume
000b10c8   _APP_SD_au8USSpanish_ta_call_service
000b0e2c   _APP_SD_au8USSpanish_ta_call_silent
000b10dc   _APP_SD_au8USSpanish_ta_call_sos
000b0ec8   _APP_SD_au8USSpanish_ta_call_swap
000b0d88   _APP_SD_au8USSpanish_ta_call_waiting
000b10b4   _APP_SD_au8USSpanish_ta_calls_only
000b0de0   _APP_SD_au8USSpanish_ta_conference
000b1670   _APP_SD_au8USSpanish_ta_confirm_pw_in_device
000b1658   _APP_SD_au8USSpanish_ta_confirm_pw_with_OK
000b145c   _APP_SD_au8USSpanish_ta_connect
000b0a08   _APP_SD_au8USSpanish_ta_date_value
000b0b88   _APP_SD_au8USSpanish_ta_disconnected
000b0750   _APP_SD_au8USSpanish_ta_end_call
000b0e08   _APP_SD_au8USSpanish_ta_err_load_phonebook
000bfd2c   _APP_SD_au8USSpanish_ta_find_mailbox_1
000bfd3c   _APP_SD_au8USSpanish_ta_find_mailbox_2
000b0a48   _APP_SD_au8USSpanish_ta_function_restriction
000b061c   _APP_SD_au8USSpanish_ta_head_active_tone
000b0708   _APP_SD_au8USSpanish_ta_head_call
000b072c   _APP_SD_au8USSpanish_ta_head_call1
000b0744   _APP_SD_au8USSpanish_ta_head_call2
000b060c   _APP_SD_au8USSpanish_ta_head_call_active
000b0758   _APP_SD_au8USSpanish_ta_head_call_hold
000b115c   _APP_SD_au8USSpanish_ta_head_call_setup
000b0778   _APP_SD_au8USSpanish_ta_head_call_waiting
000b0788   _APP_SD_au8USSpanish_ta_head_calls
000b0d94   _APP_SD_au8USSpanish_ta_head_conference
000b0da4   _APP_SD_au8USSpanish_ta_head_conference_hold
000b09f8   _APP_SD_au8USSpanish_ta_head_datacall
000b0898   _APP_SD_au8USSpanish_ta_head_delete_user
000b109c   _APP_SD_au8USSpanish_ta_head_dial_nbr
000b0a18   _APP_SD_au8USSpanish_ta_head_dtmf
000b0a38   _APP_SD_au8USSpanish_ta_head_faxcall
000b0710   _APP_SD_au8USSpanish_ta_head_incoming_call
000b12b0   _APP_SD_au8USSpanish_ta_head_mailbox
000b0ee8   _APP_SD_au8USSpanish_ta_head_media_player
000b07d4   _APP_SD_au8USSpanish_ta_head_nametag
000b1184   _APP_SD_au8USSpanish_ta_head_number
000b0874   _APP_SD_au8USSpanish_ta_head_options
000b10ec   _APP_SD_au8USSpanish_ta_head_passkey
000b12f4   _APP_SD_au8USSpanish_ta_head_phone
000b135c   _APP_SD_au8USSpanish_ta_head_phone_book
000b141c   _APP_SD_au8USSpanish_ta_head_phone_name
000b1144   _APP_SD_au8USSpanish_ta_head_private_call
000b0818   _APP_SD_au8USSpanish_ta_head_reset_voice_tag
000b1210   _APP_SD_au8USSpanish_ta_head_setting_signals
000b0f24   _APP_SD_au8USSpanish_ta_head_sms
000b0f68   _APP_SD_au8USSpanish_ta_head_sms_from
000b1220   _APP_SD_au8USSpanish_ta_head_sorting_order
000b0e34   _APP_SD_au8USSpanish_ta_head_stack_dialled
000b06e8   _APP_SD_au8USSpanish_ta_head_stack_missed
000b06d8   _APP_SD_au8USSpanish_ta_head_stack_received
000b08bc   _APP_SD_au8USSpanish_ta_head_user
000b1550   _APP_SD_au8USSpanish_ta_help_text
000b1634   _APP_SD_au8USSpanish_ta_list_back
000b097c   _APP_SD_au8USSpanish_ta_main_bluetooth
000b0798   _APP_SD_au8USSpanish_ta_main_callstacks
000b10a8   _APP_SD_au8USSpanish_ta_main_dial
000b12a0   _APP_SD_au8USSpanish_ta_main_mailbox
000b0ef8   _APP_SD_au8USSpanish_ta_main_menu
000b0f8c   _APP_SD_au8USSpanish_ta_main_messages
000b0a28   _APP_SD_au8USSpanish_ta_main_settings
000b0ed8   _APP_SD_au8USSpanish_ta_media_player
000b0bc8   _APP_SD_au8USSpanish_ta_menu_bt_help
000b0790   _APP_SD_au8USSpanish_ta_menu_call
000b05a0   _APP_SD_au8USSpanish_ta_menu_cancel
000b0e64   _APP_SD_au8USSpanish_ta_menu_delete
000b087c   _APP_SD_au8USSpanish_ta_menu_end
000b1048   _APP_SD_au8USSpanish_ta_menu_new_user
000b0d20   _APP_SD_au8USSpanish_ta_menu_no_nbr
000b10c4   _APP_SD_au8USSpanish_ta_menu_ok
000b1250   _APP_SD_au8USSpanish_ta_menu_save
000b0830   _APP_SD_au8USSpanish_ta_menu_show
000b0888   _APP_SD_au8USSpanish_ta_menu_user
000b151c   _APP_SD_au8USSpanish_ta_menu_view
000b067c   _APP_SD_au8USSpanish_ta_music_paused
000b0d60   _APP_SD_au8USSpanish_ta_no_media_player_found
000b14c4   _APP_SD_au8USSpanish_ta_note_bt_acc_conn
000b09c0   _APP_SD_au8USSpanish_ta_note_bt_conn_impos
000b14a4   _APP_SD_au8USSpanish_ta_note_bt_conn_setup
000b1490   _APP_SD_au8USSpanish_ta_note_bt_no_conn
000b06bc   _APP_SD_au8USSpanish_ta_note_bt_passkey_err
000b1388   _APP_SD_au8USSpanish_ta_note_call_estab_failed
000b0dbc   _APP_SD_au8USSpanish_ta_note_conf_not_poss
000b1028   _APP_SD_au8USSpanish_ta_note_conn_err
000b1478   _APP_SD_au8USSpanish_ta_note_conn_terminated
000b14b4   _APP_SD_au8USSpanish_ta_note_connected
000b1118   _APP_SD_au8USSpanish_ta_note_connecting_player
000b0df0   _APP_SD_au8USSpanish_ta_note_copy_sms_failed
000b0e84   _APP_SD_au8USSpanish_ta_note_delete_impos_phone_active
000b0b50   _APP_SD_au8USSpanish_ta_note_deleted
000b1300   _APP_SD_au8USSpanish_ta_note_enter_cradle
000b095c   _APP_SD_au8USSpanish_ta_note_enter_number
000b05b0   _APP_SD_au8USSpanish_ta_note_ignition
000b0a88   _APP_SD_au8USSpanish_ta_note_info_call
000b1164   _APP_SD_au8USSpanish_ta_note_invalid_number
000b0d38   _APP_SD_au8USSpanish_ta_note_mailbox_no
000b0900   _APP_SD_au8USSpanish_ta_note_max_users
000b0768   _APP_SD_au8USSpanish_ta_note_missed_call
000b0fec   _APP_SD_au8USSpanish_ta_note_name_exists
000b1000   _APP_SD_au8USSpanish_ta_note_name_stored
000b1010   _APP_SD_au8USSpanish_ta_note_network_busy
000b1070   _APP_SD_au8USSpanish_ta_note_new_pb_available
000b1058   _APP_SD_au8USSpanish_ta_note_new_phone_found
000b1038   _APP_SD_au8USSpanish_ta_note_new_sms
000b08dc   _APP_SD_au8USSpanish_ta_note_new_user
000b0c6c   _APP_SD_au8USSpanish_ta_note_no_accessory
000b0c38   _APP_SD_au8USSpanish_ta_note_no_act_device
000b0c80   _APP_SD_au8USSpanish_ta_note_no_bt_conn_acc
000b0c9c   _APP_SD_au8USSpanish_ta_note_no_bt_conn_rsap
000b0c1c   _APP_SD_au8USSpanish_ta_note_no_bt_phone
000b0ccc   _APP_SD_au8USSpanish_ta_note_no_entries
000b0d2c   _APP_SD_au8USSpanish_ta_note_no_nbr
000b0d0c   _APP_SD_au8USSpanish_ta_note_no_network
000b0ce4   _APP_SD_au8USSpanish_ta_note_no_paired_dev
000b0c50   _APP_SD_au8USSpanish_ta_note_no_phone
000b0f9c   _APP_SD_au8USSpanish_ta_note_no_rsap
000b0cfc   _APP_SD_au8USSpanish_ta_note_no_sms
000b0be8   _APP_SD_au8USSpanish_ta_note_no_user
000b0934   _APP_SD_au8USSpanish_ta_note_number_busy
000b1364   _APP_SD_au8USSpanish_ta_note_pb_load_error
000b13f0   _APP_SD_au8USSpanish_ta_note_pb_loading_all
000b13a8   _APP_SD_au8USSpanish_ta_note_pb_not_complete
000b12cc   _APP_SD_au8USSpanish_ta_note_pb_refresh_impos
000b13d0   _APP_SD_au8USSpanish_ta_note_pbook_loading
000b1330   _APP_SD_au8USSpanish_ta_note_phone_initiated
000b07f4   _APP_SD_au8USSpanish_ta_note_read_voice_tag
000b0f74   _APP_SD_au8USSpanish_ta_note_reading_sms
000b0fbc   _APP_SD_au8USSpanish_ta_note_search_phones
000b08a8   _APP_SD_au8USSpanish_ta_note_search_user
000b10f8   _APP_SD_au8USSpanish_ta_note_searching_players
000b0ac0   _APP_SD_au8USSpanish_ta_note_service_call
000b11c4   _APP_SD_au8USSpanish_ta_note_service_not_supp
000b0f2c   _APP_SD_au8USSpanish_ta_note_sms_deleted
000b0f3c   _APP_SD_au8USSpanish_ta_note_sms_no_read
000b0e6c   _APP_SD_au8USSpanish_ta_note_sms_not_deleted
000b0b18   _APP_SD_au8USSpanish_ta_note_sos_call
000b07b8   _APP_SD_au8USSpanish_ta_note_stacks_cleared
000b1230   _APP_SD_au8USSpanish_ta_note_tag_no_memory
000b0924   _APP_SD_au8USSpanish_ta_note_user_connected
000b0b58   _APP_SD_au8USSpanish_ta_note_user_deleted
000b093c   _APP_SD_au8USSpanish_ta_note_user_not_created
000b0a70   _APP_SD_au8USSpanish_ta_note_visible
000b1284   _APP_SD_au8USSpanish_ta_note_voice_active
000b1260   _APP_SD_au8USSpanish_ta_note_voice_not_ready
000b0808   _APP_SD_au8USSpanish_ta_note_voice_tag_reset
000b14fc   _APP_SD_au8USSpanish_ta_note_wait_reply
000b1094   _APP_SD_au8USSpanish_ta_number
000b0868   _APP_SD_au8USSpanish_ta_off
000b0a1c   _APP_SD_au8USSpanish_ta_on
000b0644   _APP_SD_au8USSpanish_ta_pb_download
000b07e4   _APP_SD_au8USSpanish_ta_pb_nametag
000b14f4   _APP_SD_au8USSpanish_ta_pb_sort_firstname
000b0fe0   _APP_SD_au8USSpanish_ta_pb_sort_lastname
000b1350   _APP_SD_au8USSpanish_ta_phone_book
000b163c   _APP_SD_au8USSpanish_ta_phone_no_answer
000b142c   _APP_SD_au8USSpanish_ta_phone_search
000b1134   _APP_SD_au8USSpanish_ta_private_call
000b1464   _APP_SD_au8USSpanish_ta_query_connect
000b05e4   _APP_SD_au8USSpanish_ta_query_del_act_device
000b05f8   _APP_SD_au8USSpanish_ta_query_del_act_user
000b0eb0   _APP_SD_au8USSpanish_ta_query_del_device
000b0660   _APP_SD_au8USSpanish_ta_query_delete_log
000b0f58   _APP_SD_au8USSpanish_ta_query_delete_sms
000b0ebc   _APP_SD_au8USSpanish_ta_query_delete_user
000b08c4   _APP_SD_au8USSpanish_ta_query_new_user
000b0650   _APP_SD_au8USSpanish_ta_query_terminate_conn
000b11e8   _APP_SD_au8USSpanish_ta_query_visibility
000b14e8   _APP_SD_au8USSpanish_ta_read_out_sms
000b0b74   _APP_SD_au8USSpanish_ta_replace
000b12c0   _APP_SD_au8USSpanish_ta_search
000b1200   _APP_SD_au8USSpanish_ta_setting_signals
000b118c   _APP_SD_au8USSpanish_ta_setting_tone
000b1154   _APP_SD_au8USSpanish_ta_sms_call
000b119c   _APP_SD_au8USSpanish_ta_sms_concatenated
000b11b4   _APP_SD_au8USSpanish_ta_sms_time
000b1228   _APP_SD_au8USSpanish_ta_sorting_order
000b0e54   _APP_SD_au8USSpanish_ta_stack_clear
000b0e44   _APP_SD_au8USSpanish_ta_stack_dialled
000b06f8   _APP_SD_au8USSpanish_ta_stack_missed
000b06ac   _APP_SD_au8USSpanish_ta_stack_received
000b1088   _APP_SD_au8USSpanish_ta_supp_not_possible
000b0828   _APP_SD_au8USSpanish_ta_sw_info
000b1454   _APP_SD_au8USSpanish_ta_switch
000b1514   _APP_SD_au8USSpanish_ta_tag_play
000b0860   _APP_SD_au8USSpanish_ta_tag_record
000b0564   _APP_SD_au8USSpanish_ta_time_am
000b09f0   _APP_SD_au8USSpanish_ta_time_format
000b0574   _APP_SD_au8USSpanish_ta_time_pm
000b0590   _APP_SD_au8USSpanish_ta_time_standard
000b0bc0   _APP_SD_au8USSpanish_ta_time_value
000b0838   _APP_SD_au8USSpanish_ta_voice_tag_reset
000b1530   _APP_SD_au8USSpanish_ta_wait_bt_acc_search
000b094c   _APP_SD_au8USSpanish_ta_wait_general
00008124   _APP_SD_bHapticalInterfaceAvailable
00021298   _APP_SD_bIsCallScreenActive
000211dc   _APP_SD_bIsIdleScreenActive
000203e4   _APP_SD_cbFrameTimeout
00021ab0   _APP_SD_getCurrentCtx
000212f8   _APP_SD_sfGetTextForNumberType
00008128   _APP_SD_sfInitApp
000771cc   _APP_SD_stGetListBuffer
0001a318   _APP_SD_u8GetContextId
000081d8   _APP_SD_vDiagLanguagesChanged
0001fd28   _APP_SD_vFrameDataTransfered
00008ae8   _APP_SD_vHandleEvents
0001a33c   _APP_SD_vListDataRequest
0001fd74   _APP_SD_vOnAppCanLangNotification
0001fd9c   _APP_SD_vOnAppCanSpeedNotification
0001fe88   _APP_SD_vOnAppCshdlNotification
00020178   _APP_SD_vOnAppDeviceNotification
0001ff04   _APP_SD_vOnAppPhoneBookNotification
0001fdd0   _APP_SD_vOnAppPhoneNotification
0001ffac   _APP_SD_vOnAppSmsNotification
0001fff8   _APP_SD_vOnErmNotification
000201e8   _APP_SD_vOnKpbNotification
0002026c   _APP_SD_vOnMflButton
000200ac   _APP_SD_vOnVcrNotification
0001a328   _APP_SD_vSetVcrIsActive
0008c4c8   _APP_SMS_ERM_vHandleErmStateChange
000715dc   _APP_SMS_bIsSmsInitialized
00071600   _APP_SMS_enGetSmsSupportState
0007160c   _APP_SMS_enGetSmsType
00071680   _APP_SMS_pGetPmrdContext
000715cc   _APP_SMS_rcDeleteSms
000715d4   _APP_SMS_rcMarkAsRead
000715bc   _APP_SMS_rcReadSms
000715c4   _APP_SMS_rcReadSmsPreview
000715b4   _APP_SMS_rcSendConcSms
000715ac   _APP_SMS_rcSendSms
00070cac   _APP_SMS_sfInitApp
000715e8   _APP_SMS_u16GetNumReadSms
000715f4   _APP_SMS_u16GetNumUnreadSms
00071644   _APP_SMS_u16GetSmsTypeIndex
00089020   _APP_SMS_vHandleATResponse
0008c4b0   _APP_SMS_vHandleErmATError
0008c498   _APP_SMS_vHandleErmATOk
0008c408   _APP_SMS_vHandleErmAtResult
00070d64   _APP_SMS_vHandleEvents
0008c4d8   _APP_SMS_vOnErmNotification
000716ec   _APP_SMS_vOnPhoneNotification
0006f56c   _ASR_sfInit
0006f680   _ASR_sfSendCyclicASRMessage
0006fc40   _ASR_vSetPerfMeasOnOff
00094208   _AT2BapCallStateMatrix
00071800   _ATCMD_bPCheckPbRequestIsVCR
000378e8   _ATParserTask
00089678   _AT_Cmd_Handler_Device
000569d4   _AT_Cmd_Handler_ERM
00080570   _AT_Cmd_Handler_MDI
00081f58   _AT_Cmd_Handler_Phonebook
00085894   _AT_Cmd_Handler_Sms
0008295c   _AT_Cmd_Handler_Tel
000718ec   _AT_Cmd_Handler_VCR
00088ad4   _AppTask_event_100ms
0008bf78   _AppTask_vClearAlarm
0008bf48   _AppTask_vSetAlarm
0008b578   _App_BapDiagnoseSwitch
0008b5b4   _App_SysInfoSwitch
0008b4c4   _ApplCanAddCanInterruptDisable
0008b4d8   _ApplCanAddCanInterruptRestore
0008b5b8   _ApplCanFatalError
0008b514   _ApplCanFullCanOverrun
0008b518   _ApplCanMsgDlcFailed
0008b508   _ApplCanMsgReceived
0008b510   _ApplCanOverrun
0007e020   _ApplCheckLimphome
0007e1e4   _ApplHandleBusOffWaitingTime
0008d874   _ApplInterruptFlagMask
0007dfac   _ApplNmBusOff
0007df90   _ApplNmBusOffEnd
0007e2e0   _ApplNmBusStart
0007df44   _ApplNmCanBusSleep
0007dee0   _ApplNmCanNormal
0007df04   _ApplNmCanSleep
0007e2b8   _ApplNmWaitBusSleep
0007e2c0   _ApplNmWaitBusSleepCancel
0007dd40   _ApplNmWriteUserData
00094100   _AsamOdxFileVersion
000914cc   _AudiBt
000914f8   _AudiPin
00079aa4   _AvoidEEPROMWrite
0040b9e0   _BAPIsShutDown
0040bba0   _BAP_ASG_03
0040bba2   _BAP_ASG_06
0040bba4   _BAP_ASG_07
000749d0   _BAP_Acknowledge
0008174c   _BAP_BAL_CheckDataReceived
00081948   _BAP_BAL_CheckIfFunctionIsValid
000815f8   _BAP_BAL_CheckRequest
000818d4   _BAP_BAL_DataStreamToInt16
0008191c   _BAP_BAL_DataStreamToInt32
00081998   _BAP_BAL_FsgDataReceived
00081a2c   _BAP_BAL_GetAcknowledge
00081818   _BAP_BAL_InitFSGBuffers
000818c4   _BAP_BAL_Int16toDataStream
000818fc   _BAP_BAL_Int32toDataStream
00090070   _BAP_BAPConfigTable
00083fe0   _BAP_BCL_Acknowledge
0007f3b4   _BAP_BCL_BufferSet
00066aa0   _BAP_BCL_CanReceiveTask
0008b57c   _BAP_BCL_CanRxPreCopy
000667f8   _BAP_BCL_CanSendTask
00083e04   _BAP_BCL_DataReceived
00083e00   _BAP_BCL_ErrorIndication
00088f3c   _BAP_BCL_InhibitTimerTask
0007f3bc   _BAP_BCL_Init
00066a00   _BAP_BCL_InitCanDrvTxConfirmationFlags
00088f98   _BAP_BCL_InitLsgRamAreas
00088f60   _BAP_BCL_InterTelegramTimerTask
0007f498   _BAP_BCL_ReadRingbuffer
0007f390   _BAP_BCL_ResendWithOpCode
0007f388   _BAP_BCL_Send
0007f380   _BAP_BCL_SendError
0007f3d8   _BAP_BCL_Start
0007f49c   _BAP_BCL_TaskRxNotify
0007f488   _BAP_BCL_TaskSend
00076780   _BAP_BPL_Acknowledge
00094218   _BAP_BPL_BufferSet
0007665c   _BAP_BPL_DataReceived
0007677c   _BAP_BPL_ErrorIndication
00083cac   _BAP_BPL_Init
0008bbcc   _BAP_BPL_InitializeHeartbeat
00083b98   _BAP_BPL_ResendStatus
0008bbb4   _BAP_BPL_RetriggerHeartbeat
00083bc4   _BAP_BPL_Send
00083c58   _BAP_BPL_SendError
0008badc   _BAP_BPL_SetNextFctIndex
00083cf4   _BAP_BPL_Start
0008bb50   _BAP_BPL_StopRetries
00083d40   _BAP_BPL_TaskHeartbeatDispatcher
00083e4c   _BAP_BPL_TaskProcessingDispatcher
0040007c   _BAP_BplHeartbeatTimerTable
0040003c   _BAP_BplRamTable
0008ef94   _BAP_BusIndRxTable
0008ead4   _BAP_BusIndTxTable
0008c8ac   _BAP_CANUBS_InitReadyForTx
0008c884   _BAP_CANUBS_IsReadyForTx
00066b58   _BAP_CANUBS_RxData
0008c800   _BAP_CANUBS_TxData
0008db60   _BAP_CanRxMsgIdToSegChannelMappingTable
00402ad4   _BAP_CanRxRingBuffer
0008e284   _BAP_CanRxRomTable
00402aa4   _BAP_CanRxSegmentationChannels
0008db58   _BAP_CanTxMsgIdToSegChannelMappingTable
0008db64   _BAP_CanTxRomTable
00402a54   _BAP_CanTxSegmentationChannels
0040bad8   _BAP_DBG_DebugInfoTable
0008b71c   _BAP_DBG_Task
00085c28   _BAP_DISP_GetAckQueueCtrl
000741b0   _BAP_DISP_HandleEvent
0007b5b8   _BAP_DISP_InitSendbuffer
00074314   _BAP_DISP_Initialization
00085da4   _BAP_DISP_RemoveAllQueueElements
00085d40   _BAP_DISP_RemoveQueueElement
000748c4   _BAP_DISP_SendMessage
00085ed4   _BAP_DISP_SendMessageWithAck
00074474   _BAP_DISP_ShutDown
000743cc   _BAP_DISP_Start
0040bb9e   _BAP_Debug_Cmd
0040bb58   _BAP_Debug_Data
0008f490   _BAP_FctRomTables
0008cc1c   _BAP_GetLsgFctRomRow
0008cbc0   _BAP_GetLsgRomRow
00074628   _BAP_IndicationByteSequence
0007475c   _BAP_IndicationError
000745a0   _BAP_IndicationInt16
000745e4   _BAP_IndicationInt32
0007455c   _BAP_IndicationInt8
0007451c   _BAP_IndicationVoid
00402944   _BAP_InhibitRamTable
0008db00   _BAP_InhibitRomTable
00076564   _BAP_Init
0008cc8c   _BAP_InitInternalParameters
00076478   _BAP_InitSendBufferByteSequence
000763a0   _BAP_InitSendBufferInt16
0007640c   _BAP_InitSendBufferInt32
00076344   _BAP_InitSendBufferInt8
0008db3c   _BAP_InterTelegramTimerMappingTable
00400004   _BAP_LsgRamTable
00090088   _BAP_LsgRomTables
0040bb86   _BAP_MDI_02
0008f360   _BAP_MapCanIdByLsgToCanTxRomRowTable
0008f324   _BAP_MapCanIdToLsgRomRowTable
00094068   _BAP_OpCode2AcknowledgeMatrix
0009404c   _BAP_OpCode2IndicationMatrix
0008b7b8   _BAP_ProcessDebugControl
00094024   _BAP_Request2OpCodeMatrix
000761d0   _BAP_RequestByteSequence
00076290   _BAP_RequestError
00076098   _BAP_RequestInt16
00076134   _BAP_RequestInt32
00076004   _BAP_RequestInt8
00075f80   _BAP_RequestVoid
000744ec   _BAP_SD_ShutDown
00074444   _BAP_SD_Start
00074ac8   _BAP_SendDebugInfo
00076650   _BAP_Shutdown
00076570   _BAP_Start
0008d9b0   _BAP_Task
0040bb67   _BAP_Telefon_01
0040bb5f   _BAP_Telefon_02
0040bb7e   _BAP_Telefon_03
0040bb6f   _BAP_Telefon_04
0040b2cb   _BAP_bInterTelegramTimerRunning
00402b30   _BAP_pLsgRomTable
00402a1c   _BAP_u16CanRxSegmentationTable
00402980   _BAP_u16CanTxSegmentationTable
00402964   _BAP_u16InterTelegramTimerTable
00409c1a   _BAP_u16TaskTimeCounter
00402b2c   _BAP_u8CanRxRingBufferReadOffset
00402b2d   _BAP_u8CanRxRingBufferWriteOffset
00400084   _BCL_RxBuffer1
004001c8   _BCL_RxBuffer10
00400202   _BCL_RxBuffer11
00400230   _BCL_RxBuffer12
0040023a   _BCL_RxBuffer13
00400248   _BCL_RxBuffer14
00400598   _BCL_RxBuffer15
004005a0   _BCL_RxBuffer16
004005a8   _BCL_RxBuffer17
004005b6   _BCL_RxBuffer18
004005c2   _BCL_RxBuffer19
00400090   _BCL_RxBuffer2
004005cc   _BCL_RxBuffer20
004005d6   _BCL_RxBuffer21
004005de   _BCL_RxBuffer22
0040009c   _BCL_RxBuffer3
00400160   _BCL_RxBuffer4
0040018e   _BCL_RxBuffer5
00400198   _BCL_RxBuffer6
004001a4   _BCL_RxBuffer7
004001b0   _BCL_RxBuffer8
004001bc   _BCL_RxBuffer9
004005e6   _BCL_TxBuffer1
004009a8   _BCL_TxBuffer10
004009b0   _BCL_TxBuffer11
004009b8   _BCL_TxBuffer12
004009e6   _BCL_TxBuffer13
004009ee   _BCL_TxBuffer14
004009f6   _BCL_TxBuffer15
00400a04   _BCL_TxBuffer16
00400de4   _BCL_TxBuffer17
00400dea   _BCL_TxBuffer18
00400df0   _BCL_TxBuffer19
004006ca   _BCL_TxBuffer2
00400df6   _BCL_TxBuffer20
00400dfc   _BCL_TxBuffer21
00400e02   _BCL_TxBuffer22
00400e0a   _BCL_TxBuffer23
00400e12   _BCL_TxBuffer24
00400e18   _BCL_TxBuffer25
00400e1e   _BCL_TxBuffer26
00400e24   _BCL_TxBuffer27
00400e2a   _BCL_TxBuffer28
00400e30   _BCL_TxBuffer29
004006d6   _BCL_TxBuffer3
00400e36   _BCL_TxBuffer30
00400e8c   _BCL_TxBuffer31
00400e98   _BCL_TxBuffer32
00400ea6   _BCL_TxBuffer33
00400eae   _BCL_TxBuffer34
00400eb6   _BCL_TxBuffer35
00400ebe   _BCL_TxBuffer36
00400ecc   _BCL_TxBuffer37
00400ed6   _BCL_TxBuffer38
004011be   _BCL_TxBuffer39
004006e4   _BCL_TxBuffer4
004014a6   _BCL_TxBuffer40
0040178e   _BCL_TxBuffer41
00401798   _BCL_TxBuffer42
00401da8   _BCL_TxBuffer43
00401db2   _BCL_TxBuffer44
00401de0   _BCL_TxBuffer45
00401de6   _BCL_TxBuffer46
00401df0   _BCL_TxBuffer47
004021aa   _BCL_TxBuffer48
004021b0   _BCL_TxBuffer49
004006ec   _BCL_TxBuffer5
004021e2   _BCL_TxBuffer50
004021ee   _BCL_TxBuffer51
004021fc   _BCL_TxBuffer52
00402204   _BCL_TxBuffer53
0040220c   _BCL_TxBuffer54
00402214   _BCL_TxBuffer55
0040221c   _BCL_TxBuffer56
0040222a   _BCL_TxBuffer57
00402236   _BCL_TxBuffer58
004024ea   _BCL_TxBuffer59
004006f6   _BCL_TxBuffer6
004024f2   _BCL_TxBuffer60
004024fc   _BCL_TxBuffer61
00402504   _BCL_TxBuffer62
004026fe   _BCL_TxBuffer63
0040270a   _BCL_TxBuffer64
00402718   _BCL_TxBuffer65
00402720   _BCL_TxBuffer66
00402728   _BCL_TxBuffer67
00402730   _BCL_TxBuffer68
0040273e   _BCL_TxBuffer69
004006fe   _BCL_TxBuffer7
00402764   _BCL_TxBuffer70
0040276c   _BCL_TxBuffer71
00402774   _BCL_TxBuffer72
0040277e   _BCL_TxBuffer73
00402786   _BCL_TxBuffer74
0040278e   _BCL_TxBuffer75
0040282c   _BCL_TxBuffer76
0040070c   _BCL_TxBuffer8
00400920   _BCL_TxBuffer9
0040b9e1   _BusOffDebounceTimeCounter
0008b51c   _BusTransceiverToNormal
0008b554   _BusTransceiverToPowerOn
0008b544   _BusTransceiverToSleep
0008b540   _BusTransceiverToStandby
00087f40   _CAN_vPortClear
00087fa0   _CAN_vPortRead
00087ee0   _CAN_vPortSet
00050170   _CONTEXT_MANAGER_sfResolveFunctionCall
000514b4   _CONTEXT_MAN_sfGetFahrzeugTyp
0004fe4c   _CONTEXT_MAN_sfGetInfoCallNumber
0004fec4   _CONTEXT_MAN_sfGetInfoCallNumberRoaming
0004fe9c   _CONTEXT_MAN_sfGetSOSCallNumber
0004fe74   _CONTEXT_MAN_sfGetServiceCallNumber
0004feec   _CONTEXT_MAN_sfGetServiceCallNumberRoaming
00050104   _CONTEXT_MAN_sfInit
00051490   _CONTEXT_MAN_sfSetFahrzeugTyp
0004ff14   _CONTEXT_MAN_sfSetInfoCallNumber
0004ff98   _CONTEXT_MAN_sfSetInfoCallNumberRoaming
0004ff6c   _CONTEXT_MAN_sfSetSOSCallNumber
0004ff40   _CONTEXT_MAN_sfSetServiceCallNumber
0004ffc4   _CONTEXT_MAN_sfSetServiceCallNumberRoaming
0004fff4   _CONTEXT_MAN_vHandleEvents
000516f0   _CONTEXT_MAN_vOnContextManNotification
000514cc   _CONTEXT_MAN_vOnKpbNotification
0007f630   _CRCIsAnyJobPending
0007f578   _CRC_sfManagerInit
0005e1a0   _CSHDL_PrintDebug
0005ed70   _CSHDL_bGetBuetoothUpdateActive
0005f560   _CSHDL_bIsKl15On
0005f570   _CSHDL_bIsUHVOnConditionSatisfied
0005edd0   _CSHDL_enGetIgnitionOFFDelayState
0005e0f0   _CSHDL_init
0005e2c8   _CSHDL_manager
0005edb4   _CSHDL_u8GetBluetoothUpdateTrigger
0005f538   _CSHDL_vCK5050_PowerOFF_ACK
0005f54c   _CSHDL_vCK5050_Startup
0005edc0   _CSHDL_vDiagnoseResetSimulation
0005e0e4   _CSHDL_vGetCkOnOffStatus
0005ed8c   _CSHDL_vTriggerBluetoothUpdate
00067dd8   _Can0Interrupt
00068a98   _CanCanInterruptDisable
00068ad4   _CanCanInterruptRestore
000680dc   _CanCancelTransmit
0040b5b4   _CanConfirmationFlags
00092704   _CanConfirmationMask
000926f4   _CanConfirmationOffset
0008daf4   _CanGetCpsr
0006893c   _CanGetPartMode
00068948   _CanGetStatus
00068a2c   _CanGlobalInterruptDisable
00068a64   _CanGlobalInterruptRestore
0040b5b6   _CanIndicationFlags
00092894   _CanIndicationMask
0009287c   _CanIndicationOffset
00067ddc   _CanInit
000928bc   _CanInitBTC
000928c0   _CanInitLAM0
000928c4   _CanInitMID1
00067fec   _CanInitPowerOn
00067d2c   _CanMessageIsr
000688ac   _CanOffline
00068880   _CanOnline
00092828   _CanRxApplIndicationPtr
000927d4   _CanRxApplPrecopyPtr
00092768   _CanRxDataLen
00092780   _CanRxDataPtr
00092714   _CanRxId0
000688dc   _CanSetPartOffline
0006890c   _CanSetPartOnline
0006895c   _CanSleep
000689bc   _CanStart
0006896c   _CanStop
00067dd4   _CanSystemIsr
0006816c   _CanTransmit
00068160   _CanTransmitVarDLC
000926a8   _CanTxApplConfirmationPtr
0009265c   _CanTxDLC
0009266c   _CanTxDataPtr
000928ac   _CanTxHwObj
00092620   _CanTxId0
000926e4   _CanTxSendMask
00068964   _CanWakeUp
0007f708   _CompleteEECrcCheckDone
00094108   _Copyright
0008d828   _Crc32Reset
0008d834   _Crc32Update
0007f698   _CrcManager
00085438   _DEH_AdditionalReportEvent
00047720   _DEH_ClearDiagnosticInformation
00047958   _DEH_ClearEvent
00047884   _DEH_ControlDTCSetting
0040aee4   _DEH_EventBuffer
00092b60   _DEH_EventPathParameter
0040b590   _DEH_FreezeFrameTable
00049344   _DEH_GetVersionInfo
00048500   _DEH_Init
00085100   _DEH_InitEEPROM
00049090   _DEH_ProcessDiagEventHandler
00049378   _DEH_ReadDTCByStatus
000494ec   _DEH_ReadDTCExtDataRecord
000485d0   _DEH_SetDiagnosticSession
00048684   _DEH_StM_Event
00049870   _DEH_StoreStatusOfDTCInfos
0040af4a   _DEH_stCANEventBit_mb
0040af4b   _DEH_stWarnLamp_mu8
00093e38   _DTC_Mask
0040b200   _DTC_Maskiert
0008d170   _DatabaseTask_event
00076dd8   _Debug_State1
00076f00   _Debug_State2
00076dd4   _Debug_String
00076944   _Debug_Text
00076a5c   _Debug_Value1
00076b84   _Debug_Value2
00076cac   _Debug_Value4
00078618   _DisableAllInterrupts
0008b494   _DisableIrq
0008d5a4   _DriverTask_1ms
0040b9fc   _EEAppTaskControl
0040b9c8   _EEHostControl
0040b990   _EEMonitorControl
0040b864   _EEPROM_LAYOUT_bAllBlocksEmpty
00079b20   _EEPROM_LAYOUT_rcWrite
00079c88   _EEPROM_LAYOUT_vCheckPendingFlags
000849b0   _EEPROM_LAYOUT_vGetAntennaDiag
000848b4   _EEPROM_LAYOUT_vGetAudioParameterSet
000849ec   _EEPROM_LAYOUT_vGetBaseplateDiag
00084a98   _EEPROM_LAYOUT_vGetCDMADetection
00084a78   _EEPROM_LAYOUT_vGetCooperativeMuteType
00084a18   _EEPROM_LAYOUT_vGetCradleProtection
00084894   _EEPROM_LAYOUT_vGetFallbackLanguage
00084934   _EEPROM_LAYOUT_vGetPhonebookSortOrder
000848d4   _EEPROM_LAYOUT_vGetPlayerEnabled
00084990   _EEPROM_LAYOUT_vGetRooflineMode
00084910   _EEPROM_LAYOUT_vGetVoiceControl
000938a4   _EEPROM_astBlockTable
00409ff8   _EEPROM_au8DataBlock
000938e4   _EEPROM_au8RamMirrorTable
00084ab8   _EEPROM_enGetBluetoothPin
00087e7c   _EEPROM_enGetByteSequenceFromRamMirror
00084b68   _EEPROM_enGetEepromLayoutVersionNumber
00087d2c   _EEPROM_enGetEepromValues
00084958   _EEPROM_enGetMaskingLanguage
00084a44   _EEPROM_enGetMuteDelay
00087e4c   _EEPROM_enGetSingleByteFromRamMirror
00087e64   _EEPROM_enGetU16FromRamMirror
00087e70   _EEPROM_enGetU32FromRamMirror
00087e58   _EEPROM_enGetU8FromRamMirror
0008480c   _EEPROM_flagIsEEFree
00084550   _EEPROM_rcWrite
0008c9ec   _EEPROM_sfHwInit
0008ca8c   _EEPROM_sfHwReadBlock
0008ca1c   _EEPROM_sfHwWriteBlock
00084424   _EEPROM_sfInit
00079900   _EEPROM_sfRamWriteOnly
0008447c   _EEPROM_sfRead
00084858   _EEPROM_vLayoutCfgInit
00079828   _EEPROM_vLayoutInit
0008464c   _EEPROM_vManager
0040b4fc   _EE_EventMemoryBlockArray
0002b970   _ERM_BTVisibilityBarringOn
0002e620   _ERM_CheckUartOwnership
00034754   _ERM_DeleteDeviceIfPpdeTimeout
0008a378   _ERM_Execute_HW_Reset
0002b9b4   _ERM_FlashErase
00034730   _ERM_GetActiveBTDeviceId
00070960   _ERM_GetAlcVolume
00035458   _ERM_GetBTDevice
00035908   _ERM_GetBTDeviceName
0002d9f4   _ERM_GetBTPinCodeAsChar
0002e648   _ERM_GetCK5050SWVersion
00070954   _ERM_GetCommVolume
00035914   _ERM_GetDeviceIdOfBtAddr
000354f0   _ERM_GetDeviceIdOfUmpteenthHeadset
00035484   _ERM_GetDeviceIdOfUmpteenthPhone
00035568   _ERM_GetDeviceIdOfUmpteenthPlayer
00035848   _ERM_GetIndexForRingtone
0002fad0   _ERM_GetJingleState
000363cc   _ERM_GetLastActiveProfileId
000358f0   _ERM_GetLastPairedDeviceId
000358fc   _ERM_GetLastServiceDeviceId
00070688   _ERM_GetMicGain
000707ec   _ERM_GetPromptVolume
00070970   _ERM_GetStreamVolume
0002e614   _ERM_GetUartForDevice
0002e5e0   _ERM_GetUartForERM
0002e5f8   _ERM_GetUartForMDI
0002e60c   _ERM_GetUartForPhonebook
0002e604   _ERM_GetUartForSMS
0002e5e8   _ERM_GetUartForTel
0002e5f0   _ERM_GetUartForVCR
0002da4c   _ERM_Manager
0008a394   _ERM_PWNG4_Execute_HW_Reset
0002e5c0   _ERM_ReleaseUartForDevice
0002e5d8   _ERM_ReleaseUartForErm
0002e5b8   _ERM_ReleaseUartForMDI
0002e5d0   _ERM_ReleaseUartForPhonebook
0002e5c8   _ERM_ReleaseUartForSMS
0002e5a8   _ERM_ReleaseUartForTel
0002e5b0   _ERM_ReleaseUartForVCR
0002b7ec   _ERM_Shutdown
0002b89c   _ERM_Shutdown_BTUpdate
0002b7b4   _ERM_Startup
0008a35c   _ERM_UartSupervision
00034374   _ERM_bDevConnectedOnBtLevel
00035bd4   _ERM_bDeviceAlreadyKnownAsHeadset
00035c10   _ERM_bDeviceAlreadyKnownAsPlayer
00036728   _ERM_bDeviceInUserProfiles
0002bc30   _ERM_bGetBTAckSignalActive
00035724   _ERM_bGetDisconnectWillFollow
0004512c   _ERM_bIsBluetoothVisible
0002fcd4   _ERM_bIsCDMAPhone
00035998   _ERM_bIsHeadset
00035a14   _ERM_bIsPhone
000359d4   _ERM_bIsPlayer
0002d6a4   _ERM_bIsSSPActive
00045118   _ERM_bIsSecurityCheckOK
0002ea38   _ERM_bIsStartupDone
0003670c   _ERM_bMaxNumberOfHeadsetProfilesReached
000366bc   _ERM_bMaxNumberOfPlayerHeadsetProfilesReached
000366ec   _ERM_bMaxNumberOfPlayerProfilesReached
000366a0   _ERM_bMaxNumberOfUserProfilesReached
00036488   _ERM_bMaxVoiceTagsForUserRecorder
0002d8fc   _ERM_bPhoneAvailable
0003641c   _ERM_bPlayerIdIsInphoneList
00035a50   _ERM_bSdpReceived
0003632c   _ERM_bSetDeviceName
00045144   _ERM_bgetActiveCallFlagForSettingWithoutCI
0002fae4   _ERM_cbMuteGetAck
0002fd94   _ERM_cbPauseSuhutdownDelaytimeOut
0002d8d8   _ERM_eGetExtRevision
00035798   _ERM_eGetUmpteenthRingtone
0002bf20   _ERM_ePlayRingtone
0002bebc   _ERM_eSetActiveDeviceRingtone
0002bfbc   _ERM_eSetActiveDeviceRingtoneAlternate
0002d870   _ERM_eSetAudioChannel
0002d820   _ERM_eSetAudioLoopTest
0002be24   _ERM_eSetMediaDeviceBasicVolume
0002d580   _ERM_eSetMicrophoneSensitivity
0002bd3c   _ERM_eSetTelephoneBasicVolumeAlc
0002bcb4   _ERM_eSetTelephoneBasicVolumeComm
0002bdd8   _ERM_eSetVoiceOutputBasicVolume
0002d7cc   _ERM_eTestSetLoopback
0002d764   _ERM_eTestSetMicAdcGain
0002d70c   _ERM_eTestSetMicAdcMode
0002d48c   _ERM_enGetActiveUserAudioMode
0002b9fc   _ERM_enGetBTAddress
0002ed2c   _ERM_enGetBluetoothUpdateRequest
0002d91c   _ERM_enIsVcrSupported
000365c4   _ERM_pGetActiveHeadsetProfile
000365b4   _ERM_pGetActivePlayerProfile
000365d4   _ERM_pGetActiveUserProfile
00036520   _ERM_pGetDevice
0002d69c   _ERM_pGetPairRequest
0002d9c4   _ERM_pGetPgirContext
00036538   _ERM_pGetPhyDevice
00036618   _ERM_pGetPlayerHeadsetProfile
0003662c   _ERM_pGetPlayerHeadsetProfile_DevId
0002d690   _ERM_pGetSspRequest
0003654c   _ERM_pGetUserProfile
00036560   _ERM_pGetUserProfile_DevId
0002c1c8   _ERM_rcAcceptPairing
0002caec   _ERM_rcAddHeadsetProfile_InEeprom
0002cb0c   _ERM_rcAddPlayerProfile_InEeprom
0002c834   _ERM_rcAddUserProfile_InEeprom
0002bb40   _ERM_rcBTSWUpdateCK5050
0002c068   _ERM_rcCancelInquiry
0002d14c   _ERM_rcChangeDeviceName_InEeprom
0002d308   _ERM_rcChangeNumVoiceTagsForActiveUser_InEeprom
0002c4e4   _ERM_rcConnectDevice
0002c58c   _ERM_rcDeactivatePhoneServiceAutoConn
0002c60c   _ERM_rcDeleteDevice
0002cca0   _ERM_rcDeleteHeadsetProfile_InEeprom
0002cc98   _ERM_rcDeletePlayerProfile_InEeprom
0002c9b0   _ERM_rcDeleteUserProfile_InEeprom
0002c524   _ERM_rcDisconnectDevice
0002d660   _ERM_rcGetBtChipVersion
0002d5f8   _ERM_rcGetCKSWVersionString
0002c098   _ERM_rcGetInquiryResult
0002d62c   _ERM_rcGetPF_CodeString
0002c140   _ERM_rcInitiatePairing
0002c26c   _ERM_rcRejectPairing
0002d3d4   _ERM_rcResetNumVoiceTagsForActiveUser_InEeprom
0002ba38   _ERM_rcResetToFactorySetting
0002d6c4   _ERM_rcSendSSPSupportedRequest
0002d268   _ERM_rcSetAudioMode_InEeprom
0002c5bc   _ERM_rcSetAutoConnMode
0002bb64   _ERM_rcSetConnectionAuthorization
0002d4b4   _ERM_rcSetHeadsetAuthMode_InEeprom
0002d1dc   _ERM_rcSetPbCompletelyLoaded_InEeprom
0002c64c   _ERM_rcSetPlayCallerNameMode
0002d4a4   _ERM_rcSetPlayerAuthMode_InEeprom
0002cea4   _ERM_rcSetRingtoneAlternate_InEeprom
0002d0b8   _ERM_rcSetRingtone_InEeprom
0002d008   _ERM_rcSetUserAssociatedHeadset_InEeprom
0002cf44   _ERM_rcSetUserAssociatedPlayer_InEeprom
0002ce08   _ERM_rcSetVoiceMailboxNumber_InEeprom
0002c4a4   _ERM_rcStartHeadsetService
0002c020   _ERM_rcStartInquiry
0002c324   _ERM_rcStartPhoneService
0002c424   _ERM_rcStartPlayerA2dpService
0002c3a4   _ERM_rcStartPlayerAvrcpService
0002c464   _ERM_rcStopHeadsetService
0002c2e4   _ERM_rcStopPhoneService
0002c3e4   _ERM_rcStopPlayerA2dpSinkService
0002c364   _ERM_rcStopPlayerAvrcpService
0002c6b4   _ERM_rcUpdateHeadsetActiveProfileList
0002c6dc   _ERM_rcUpdatePhoneActiveProfileList
0002c68c   _ERM_rcUpdatePlayerActiveProfileList
00070598   _ERM_sFSetAudioParameterSet
0002bc08   _ERM_sFSetBluetoothAcknowledgementSignal
0002ba5c   _ERM_sFSetBluetoothSetPINCode
0002bafc   _ERM_sFSetBluetoothSetPINCodeDiagnose
0002bc3c   _ERM_sFSetReferenceChannelDelay
0002bb88   _ERM_sFSetUniversalPreparationForMobileTelephone
0002fd74   _ERM_set_AutoConnectionMode
0002b7e0   _ERM_sysPerfResetStartUpEventTraceDone
0003596c   _ERM_u16GetDeviceCount
00035ab8   _ERM_u16GetNumberOfHeadsetProfiles
00035a80   _ERM_u16GetNumberOfPairedHeadSets
00035b70   _ERM_u16GetNumberOfPairedPhones
00035af4   _ERM_u16GetNumberOfPairedPlayer
00035b38   _ERM_u16GetNumberOfPlayerProfiles
000358e8   _ERM_u16GetNumberOfRingtones
00035ba8   _ERM_u16GetNumberOfUserProfiles
00035680   _ERM_u8GetActiveDeviceAVRCP
000355d8   _ERM_u8GetActiveHeadSet
000356d4   _ERM_u8GetActivePhone
00035628   _ERM_u8GetActivePlayer
0002ed38   _ERM_u8GetBluetoothUpdateActive
0002d984   _ERM_u8GetInquiryResult
00035730   _ERM_u8GetLastActiveHeadSet
0003576c   _ERM_u8GetLastActivePhone
00035750   _ERM_u8GetLastActivePlayer
0003778c   _ERM_u8GetOldestHeadsetProfileId
000376b0   _ERM_u8GetOldestNoActiveUserProfileId
00037714   _ERM_u8GetOldestPlayerProfileId
000376f0   _ERM_u8GetOldestUserProfileId
00037658   _ERM_u8GetPlayerHeadsetProfileId
0003666c   _ERM_u8GetPlayerHeadsetProfileIndexForDeviceId
0002d974   _ERM_u8GetTotalInquiryResult
00037624   _ERM_u8GetUserProfileId
000365e4   _ERM_u8GetUserProfileIndexForDeviceId
0002fd88   _ERM_uGetLastExtendedErrorCode
0002b994   _ERM_vBTVisibilityOff
0002f23c   _ERM_vBluetoothUpdateProcessCK5050Status
0002f528   _ERM_vBluetoothUpdateSecurityCheck
0002edbc   _ERM_vBluetoothUpdateStateMachine
0002b93c   _ERM_vCb3BM_BTVisibility
000377b8   _ERM_vCheckforprofileId
0002df08   _ERM_vHandleATResponse
0002ec08   _ERM_vOnAppCshdlNotification
0002eac0   _ERM_vOnAppDeviceNotification
0002eab8   _ERM_vOnAppMdiNotification
0002eba4   _ERM_vOnAppPhoneNotification
0002f2b8   _ERM_vOnErmNotification
0002eb64   _ERM_vOnPhonebookNotification
0002eb4c   _ERM_vOnVcrNotification
000701b4   _ERM_vReInitAudioParameterSet
0002fb2c   _ERM_vSetDeviceTypeForPairing
00035718   _ERM_vSetDisconnectWillFollow
00045138   _ERM_vsetActiveCallFlagForSettingWithoutCI
000785c4   _EnableAllInterrupts
0008b4ac   _EnableIrq
0008b430   _ErrorHook
0008b054   _FBLDATA_sfUpdateAfterReflash
0040bafc   _FatalOsekErrorCode
0040baf8   _FatalOsekErrorOccured
0040bafe   _FatalOsekguiError
00089a44   _GIO_IntGlobalInit_V
00089928   _GIO_u32PortRead
00089948   _GIO_u8PinRead
00089a2c   _GIO_vIntDisable
000899e4   _GIO_vIntEnable
00089888   _GIO_vPinModify
00089974   _GIO_vPinWrite
000899c8   _GIO_vPortClear
000899ac   _GIO_vPortSet
0006a6e8   _GetStatus
0006a6a4   _GotoMode
00089f14   _HostTask_10ms
00078018   _I2V_ubCanDataPrecopy
00078014   _I2V_vCanDataCon
000940c4   _INT8_INIT_DEFAULT_ZERO
000940c8   _INT8_INIT_MDI_FSG_SETUP
000940c5   _INT8_INIT_NOT_SUPPORTED
000940c9   _INT8_INIT_PB_FSG_SETUP
000940c6   _INT8_INIT_TEL_HANDSFREE_ON_OFF
000940c7   _INT8_INIT_TEL_MICROMUTE_ON_OFF
0040bb24   _ISO_Telefon_Resp
00088944   _InitAppTask
000850ac   _InitDEHFaultData
0008d12c   _InitDatabaseTask
0008d584   _InitDriverTaskCyclic
00089e5c   _InitHostTask
0008c30c   _InitMonitorTask
0008d788   _InitSystemTask
0007e2a0   _IsBusOff
00067a54   _IsCK5050ResponseStillOngoing
0007e2ac   _IsCanActive
00079a6c   _IsElemInBlock
00093f54   _KPB_BATTERY_LEVEL
00093f8c   _KPB_BLUETOOTH_SYMBOL
00093f90   _KPB_BLUETOOTH_VISIBLE_SYMBOL
00093f98   _KPB_HEADSET_CONNECTED_SYMBOL
00093f6c   _KPB_MISSED_CALLS_SYMBOLD
00093f68   _KPB_NEW_SMS_SYMBOL
00093f88   _KPB_PHONE_CAT_GENERAL_SYMBOL
00093f7c   _KPB_PHONE_CAT_HOME_SYMBOL
00093f80   _KPB_PHONE_CAT_MOBILE_SYMBOL
00093f78   _KPB_PHONE_CAT_OFFICE_SYMBOL
00093f84   _KPB_PHONE_CAT_OTHER_SYMBOL
00093f94   _KPB_PLAYER_CONNECTED_SYMBOL
00093f70   _KPB_READ_SMS_SYMBOL
00093f9c   _KPB_ROAMING_SYMBOL
00093ef8   _KPB_SIGNAL_STRENGTH
00093f74   _KPB_UNREAD_SMS_SYMBOL
00042db4   _KPB_bGetLastCradleRestriction
00042918   _KPB_bIsAsgAvailable
000427a0   _KPB_bIsAsgPresentation
00042da0   _KPB_bIsFsgQueuedUp
000427e4   _KPB_bIsKeyAssigned
0008d4e4   _KPB_cbDisplayStatusOff
0008d4d8   _KPB_cbFrameDataAckTimeout
000427bc   _KPB_enGetAsgState
00042794   _KPB_enGetKpbVersionNumber
00042d30   _KPB_sfAllocFrameBuffer
00042d7c   _KPB_sfFreeFrameBuffer
00040998   _KPB_sfInitApp
000425bc   _KPB_sfSendFrameData
00042288   _KPB_sfShutdown
00042924   _KPB_u16GetNumChar
0004293c   _KPB_u16GetVisListElements
00040c0c   _KPB_vHandleEvents
00042984   _KPB_vOnAppCshdlNotification
00042760   _KPB_vReleaseFrameDataElement
000426d4   _KPB_vSendFrameStatusPresReqOff
000427ac   _KPB_vSetAsgPresentationOff
0008d6d0   _LOGI_BUT_MAN_3BM_sfInit
0008d66c   _LOGI_BUT_MAN_CRADLE_sfInit
0008d6b4   _LOGI_BUT_MAN_bGetAntennaDiagnose
0008d68c   _LOGI_BUT_MAN_bGetBasePlateConnectivity
0008d6a0   _LOGI_BUT_MAN_bGetCradleProtection
0008d704   _LOGI_BUT_MAN_bGetRooflineModuleState
0007b454   _LOGI_BUT_MAN_sfGetFailureValue
0007aec8   _LOGI_BUT_MAN_sfInit
0007b494   _LOGI_BUT_MAN_u8GetButtonStatus
0008d6f0   _LOGI_BUT_MAN_u8GetMode_Roofline
0007b170   _LOGI_BUT_MAN_vHandleEvents
0008d724   _LOGI_BUT_MAN_vInit3BM
0008d6c8   _LOGI_BUT_MAN_vInitBaseplateAndAntenna
0007b510   _LOGI_BUT_MAN_vRollRadDebouncingFunction
00067ba4   _MDI_vOnAppCshdlNotification
0040bbc4   _MFL_Tasten_Kon_01
000854c4   _MFL_vParameterAnalysis
004070d4   _MOD_KPB_Protocol_ErrorCounter
0007edf4   _MONITOR_ADC_sfInit
0007ec18   _MONITOR_ADC_sfReadADCValueForDTCs
0007ef04   _MONITOR_ADC_u16GetMovingAverageADCValue3BM
0007ef1c   _MONITOR_ADC_u16GetMovingAverageADCValueAntenna
0007eee0   _MONITOR_ADC_u16GetMovingAverageADCValueAudioLeftMinus
0007eed4   _MONITOR_ADC_u16GetMovingAverageADCValueAudioLeftPlus
0007eef8   _MONITOR_ADC_u16GetMovingAverageADCValueAudioRightMinus
0007eeec   _MONITOR_ADC_u16GetMovingAverageADCValueAudioRightPlus
0007ef10   _MONITOR_ADC_u16GetMovingAverageADCValueBaseplate
0007ee88   _MONITOR_ADC_u16GetMovingAverageADCValueMikrophoneMinus
0007ee7c   _MONITOR_ADC_u16GetMovingAverageADCValueMikrophonePlus
0007ee64   _MONITOR_ADC_u16GetMovingAverageADCValueRadioMute
0007ef28   _MONITOR_ADC_u16GetMovingAverageADCValueTemperature
0007ee70   _MONITOR_ADC_u16GetMovingAverageADCValueU7V5
0007ef34   _MONITOR_ADC_u16GetMovingAverageADCValueUBatt
0007ee94   _MONITOR_ADC_u8GetMikrophoneCurrentDrain
0007ef40   _MONITOR_ADC_u8GetValidSignalForErrorDetection
0008dae0   _MessageInit
0008c348   _MonitorTask_50ms
0040af60   _MsgBuf
00069a3c   _NmCanError
00069ad0   _NmConfirmation
0006a6f8   _NmGetStatus
0006a754   _NmGetUdStartAddress
00069ec8   _NmOsekInit
00069c14   _NmPrecopy
0006a75c   _NmReadRecvSourceAddress
00069fd4   _NmTask
0008d260   _OSEK_TaskStackStatistic
0008dabc   _OnmExtConfirmation
0008daa8   _OnmExtInit
0008dac0   _OnmExtPrecopy
0008daac   _OnmExtTask
0008ba4c   _OsAppTask_event_100msfunc
0008ba74   _OsDatabaseTask_eventfunc
0008ba14   _OsDriverTask_1msfunc
0008b9a4   _OsHostTask_10msfunc
0008b9dc   _OsMonitorTask_50msfunc
0008ba9c   _OsSystemTask_eventfunc
0007d4ac   _PHY_BUT_DRV_bGetBasePlateConnectivity
0007d4a0   _PHY_BUT_DRV_bGetCradleConnectivity
0007d464   _PHY_BUT_DRV_bGetTelephoneConnectivity
0008d5fc   _PHY_BUT_DRV_sfInit
0008bd44   _PHY_BUT_DRV_sfPL_3BM_Init
0007d07c   _PHY_BUT_DRV_sfPL_Cradle_Init
0008c0c4   _PHY_BUT_DRV_sfPL_Init
0007d5f8   _PHY_BUT_DRV_sfSwitchBasePlateVoltageDiagnostics
0007d69c   _PHY_BUT_DRV_u8GetVariantType
0007d4c8   _PHY_BUT_DRV_vOnAppCshdlNotification
0008c140   _PHY_BUT_DRV_vPL_handle
0007d690   _PHY_BUT_DRV_vStartup
0008d628   _PHY_BUT_DRV_vhandle
00080dc0   _POOL_enGetAllocateErrorCode
00080f78   _POOL_enGetFreeErrorCode
00080f84   _POOL_enGetInitErrorCode
00080c38   _POOL_sfAllocate
00080dcc   _POOL_sfFree
00080f3c   _POOL_sfGetCurrentPoolSize
00080f50   _POOL_sfGetMaximumPoolSize
00080f64   _POOL_sfGetPoolElementSize
00080ae0   _POOL_sfInit
00080be8   _POOL_sfRestorePoolId
00080f90   _POOL_sfSetAllocateCallback
00080fa0   _POOL_sfSetFreeCallback
00080fb0   _POOL_sfSetInitCallback
00402b40   _POOL_stATRspAllType
00402ce8   _POOL_stATRspCallStatValType
00402dd8   _POOL_stAppSdEventQueueType
00402e50   _POOL_stBapArrayHeader
00402e74   _POOL_stBapDispAckQueueElem
00402ec4   _POOL_stBapDispAckQueuePayloadType
00403e44   _POOL_stBapIndDataTypeAppMdi
00403f20   _POOL_stBapIndDataTypeAppPB
00404060   _POOL_stBapIndDataTypeAppPBLarge
004043b8   _POOL_stBapIndDataTypeAppPhone
004045c0   _POOL_stBapIndDataTypeKpb
00404610   _POOL_stBapReqDataType
00404c20   _POOL_stVCRPerfMeasCmdType
00087fbc   _PORT_vInit
000941c4   _ProgramInfoReset
00087614   _Pwrmgr_GetCurrentScope
00087620   _Pwrmgr_GetCurrentScopeEigenDiag
00087608   _Pwrmgr_GetPowerManagerState
00087638   _Pwrmgr_GetRapidPwrmgrVoltage
0008762c   _Pwrmgr_GetVoltageState
00087510   _Pwrmgr_Handler_Init_For_Rapid_Voltage_Changes
000874f8   _Pwrmgr_Init
00087354   _Pwrmgr_Manager
00087478   _Pwrmgr_Manager_Handler_For_Rapid_Voltage_Changes
0040baa8   _RandomCounter
0040807a   _RecAppDiagReq
00407e40   _RecAppDiagResp
004081a0   _RecApplATResponse
00407e04   _RecBSGmessageType
00407e1c   _RecBapIndicationQueue
00407e28   _RecBapReqQueue
0040819c   _RecCSHDL_enSystemStates
00407d60   _RecLogiButMan_ButtonInfo
00407dd8   _RecMdiBapIndQueue
00407de4   _RecMdiBapReqQueue
0040813d   _RecMflKeyCodeType
00407dfc   _RecPWMGR_enVoltageStates
00407d78   _RecPhoneBapIndQueue
00407d84   _RecPhoneBapReqQueue
00407da8   _RecPhoneBookBapIndQueue
00407db4   _RecPhoneBookBapReqQueue
00408142   _RecTelMuteBehaviorType
0040818c   _RecVCRPerfMeasStatusMsgType
0007873c   _ResumeAllInterrupts
00078664   _ResumeOSInterrupts
00079784   _SDS_UDS_GetAdditionalDataDownloadStatus
0006e0ec   _SDS_UDS_RetryMechanismR2FS
0006c944   _SDS_UDS_Wait_DEH_Write_Finish
00089248   _SDS_UDS_u16CalculateDtcMaskierung
0040b2c8   _SDS_UDS_u8DTC_Mask_Counter
000863c0   _SDS_UDS_u8GetBootloaderTimeLockState
000893ac   _SDS_UDS_u8GetKundenDienstBit
00078fe4   _SDS_UDS_u8GetStatusActuatorTest
00088bb0   _SDS_UDS_u8ProcessorStartUpDiagnoseSequence
0008b870   _SDS_UDS_ubDiagService23
00079080   _SDS_UDS_vChecksumStart
0006e094   _SDS_UDS_vDiagTimeout
0006e870   _SDS_UDS_vInitialiseService22
00068bf0   _SDS_UDS_vInitialiseService2E
00078898   _SDS_UDS_vInitialiseService2F
00080ff8   _SDS_UDS_vInitialiseService31
00089244   _SDS_UDS_vInitialiseServiceDTC
00079070   _SDS_UDS_vInitialiseServiceDataDownload
00086314   _SDS_UDS_vInitialiseServiceSecurityCheck
000863dc   _SDS_UDS_vSetBootloaderTimeLockState
00078e5c   _SDS_UDS_vTimerHandlingStellgliedTests
0008b5d4   _SDS_vGetVersionInfo
0008b5f8   _SDS_vInit
0008b608   _SDS_vTask
0006dfa4   _SDSext_DIAG_vHandleEvents
0008a594   _SDSext_EEPReadUniversalData
0008a5f0   _SDSext_EEPWriteUniversalData
0008a648   _SDSext_EEPWriteUniversalData_WithRetryMechanism
0006e08c   _SDSext_GetUhvInRestrictedMode
0006e1a0   _SDSext_eReadUserAndIOData
0008a0b8   _SDSext_ubComCtrl
000863f0   _SDSext_ubDiagService27
0008a0b0   _SDSext_ubPowerDown
0008a060   _SDSext_ubZeroVehicleOrEngineSpeed
0008a150   _SDSext_vDoReset
0006c3a0   _SDSext_vInit
0008a030   _SDSext_vResetSecurityAccessEffected
0008a044   _SDSext_vSetProgRequest
0006c400   _SDSext_vTask
000940cc   _SEND_BUFFER_DEFAULT_ZERO
000940e0   _SEND_BUFFER_MDI_TIME_POSITION
000940d8   _SEND_BUFFER_SD_FRAME_STATUS
0008b30c   _SPI_bPinRead
000882cc   _SPI_sfExchangeBlock
0008817c   _SPI_sfInit
000883f8   _SPI_sfIsDeviceReady
00088360   _SPI_sfWriteBlock
0008b27c   _SPI_vConfigureBaudRate
0008b2cc   _SPI_vConfigureInterrupt
0008b1c4   _SPI_vPinModify
0008b2fc   _SPI_vPortClear
0008b304   _SPI_vPortSet
0008b25c   _SPI_vResetEnter
0008b26c   _SPI_vResetExit
0008b2ac   _SPI_vSetCharLength
0008b2bc   _SPI_vSetMode
0008aedc   _SYSINIT_sfHwInit
0008b004   _SYSINIT_sfInit
0008aef0   _SYSINIT_sfPeripheralsInit
0008af64   _SYSINIT_sfSwInit
000914ac   _SeatBt
000914f4   _SeatPin
00407e08   _SentAPP_CAN_MsgStates
00407fbc   _SentAppDiagReq
00407efe   _SentAppDiagResp
004081a8   _SentApplATResponse
00407e00   _SentBSGmessageType
00407e10   _SentBapIndicationQueue
00407e34   _SentBapRequestQueue
0040819d   _SentCSHDL_enSystemStates
00407dcc   _SentMdiBapIndQueue
00407df0   _SentMdiBapReqQueue
00408138   _SentMflKeyCodeType
00407dfd   _SentPWMGR_enVoltageStates
00407d6c   _SentPhoneBapIndQueue
00407d90   _SentPhoneBapReqQueue
00407d9c   _SentPhoneBookBapIndQueue
00407dc0   _SentPhoneBookBapReqQueue
00407d65   _SentPhyButDriver_ButtonInfo
00408166   _SentTelMuteBehaviorType
00408194   _SentVCRPerfMeasStatusMsgType
00400000   _Set_FlashRequest_Paddern
0006a734   _SilentNM
0009148c   _SkodaBt
000914f0   _SkodaPin
000940f8   _SoftwareVersion
0007f6f8   _StartCRCJob
0006a704   _StartNM
0008b450   _StartupHook
0006a70c   _StopNM
000787ac   _SuspendAllInterrupts
000786d0   _SuspendOSInterrupts
000941c5   _SysProgrammed
0008d7bc   _SystemTask_event
0008cfcc   _TEMPERATURE_sfInit
0008cfdc   _TEMPERATURE_sfManager
0008d068   _TEMPERATURE_u8GetTemperature
00077bcc   _TP_eGetApplState
00077b68   _TP_ubApplDataReq
00077bd8   _TP_uwApplDataInd
00077c04   _TP_vCancelRequest
000778b4   _TP_vGetVersionInfo
000778e0   _TP_vInit
00077930   _TP_vInitChannel
00077940   _TP_vTask
0006a714   _TalkNM
0040baa4   _TimerSecurity
00076810   _Trace_PrintStatistic
000767b0   _Trace_vInit
00073340   _UART1_RxISR
000732b8   _UART1_TxISR
0007346c   _UART2_RxISR
000733e8   _UART2_TxISR
00073514   _UART_ErrorISR
000735a8   _UART_PrintStatistic
000736ec   _UART_bGetUartHardwareErrorStatus
000730e0   _UART_sfInit
00072ff8   _UART_sfReInitialiseBuffer
00073230   _UART_sfWriteByte
000731b8   _UART_u16WriteBlock
000730b4   _UART_u8GetBufferStatus
00087bd8   _UART_u8GetRxStatus
00087b98   _UART_u8HWReceiveByte
00073238   _UART_u8ReadBlock
00073234   _UART_u8ReadByte
00073294   _UART_u8RxGetCount
00087be8   _UART_vClearErrors
00087a14   _UART_vConfigureBaudRate
000879d4   _UART_vConfigureCommControlReg
00087a44   _UART_vConfigureInterrupt
00087ba0   _UART_vConfigurePeripheral
00087b90   _UART_vHWTransmitByte
00087acc   _UART_vPinModify
00087950   _UART_vResetEnter
000879b4   _UART_vResetExit
000879c4   _UART_vSetClockModeSource
0006c6ec   _UDS_ubDiagService10
0006c818   _UDS_ubDiagService11
0006c88c   _UDS_ubDiagService14
0006c954   _UDS_ubDiagService19
0006cbcc   _UDS_ubDiagService22
0008b920   _UDS_ubDiagService27
0008b60c   _UDS_ubDiagService28
00068cbc   _UDS_ubDiagService2E
00078c24   _UDS_ubDiagService2F
00081024   _UDS_ubDiagService31
00079444   _UDS_ubDiagService34
0007918c   _UDS_ubDiagService35
00079214   _UDS_ubDiagService36
000795e0   _UDS_ubDiagService37
0006dcf8   _UDS_ubDiagService3D
0008b674   _UDS_ubDiagService3E
0008b698   _UDS_ubDiagService85
0006de9c   _UDS_ubDiagService86
00081eb4   _UDS_ubGetSession
00081ad0   _UDS_ubIgnoreFuncReq
00081a4c   _UDS_ubIsActive
00081efc   _UDS_ubIsIdle
00081f24   _UDS_ubSendMsg
00081e78   _UDS_ubSetSession
0008b860   _UDS_vDiagTimeout
00081a70   _UDS_vGetVersionInfo
00081a98   _UDS_vInit
00081ac4   _UDS_vInitClient
00081a64   _UDS_vSetReady
00081b2c   _UDS_vTask
0005cc18   _VCR_bCheckIsCALLPressed
0005cc0c   _VCR_bCheckIsPTTPressed
0005cc84   _VCR_bCheckSIVRIsActive
0005dbf8   _VCR_bGetInstrumentClusterAvailable
0005dfc4   _VCR_cbMuteGetAck
0005cc78   _VCR_eGetHapticTrigTypeStatus
0005cc6c   _VCR_eGetVoiceRecognitionStatus
0005def4   _VCR_rcPlayTestPrompt
0005d540   _VCR_sFChangeLanguage
0005d758   _VCR_sFChangeLanguageExecute
0005da4c   _VCR_sFChangeLanguageViaCan
0005db24   _VCR_sFGetCurrentPhoneNumberforDial
0003e5a8   _VCR_sFHandleATMessage
0005ccec   _VCR_sFHapticTrigger
0005dab0   _VCR_sFSetFallbackLanguage
0005dab8   _VCR_sFSetVoiceControlSupport
0005dc6c   _VCR_sfEnablePerformanceMeasures
0005d53c   _VCR_sfErmIndicationCk5050
0005dc18   _VCR_sfInitApp
0005decc   _VCR_stGetContactAmb
0005ded4   _VCR_stGetContactUni
0005cf3c   _VCR_vCBAddContact
0005d060   _VCR_vCBDecNumVoiceTagForActiveUser
0005cf1c   _VCR_vCBDeleteSMS
0005d4bc   _VCR_vCBGetPBIndexEntryCallStack
000406a0   _VCR_vCBGetPBInfoASR
0005d330   _VCR_vCBGetPBInfoSingleEntryCallStack
0005d0cc   _VCR_vCBGetPBInfoSingleEntryUserPB
0005d03c   _VCR_vCBIncNumVoiceTagForActiveUser
0005ce08   _VCR_vCBMarkSMSRead
0005cd8c   _VCR_vCBPBSyncOK
0005ce74   _VCR_vCBReadSMS
0005d084   _VCR_vCBResetStartVoiceTagForActiveUser
0005d0a8   _VCR_vCBResetStopVoiceTagForActiveUser
0005cdb0   _VCR_vCBRestoreFactory
0005d02c   _VCR_vCBSendMsgViaAPP
0005cdd4   _VCR_vCBSetBTPin
0005cadc   _VCR_vCb3BM_PTT
0005cc24   _VCR_vEventCall
0005dd1c   _VCR_vHandleEvents
0005dbd0   _VCR_vInstrumentClusterAvailable
0005cf6c   _VCR_vNotifyPBEntryAdded
0005cfc4   _VCR_vOnAppCshdlNotification
0005cff0   _VCR_vOnAppDeviceNotification
0005dfa4   _VCR_vStatusResetForRestoreFactorySettings
0005ccd4   _VCR_vStopSIVRForCK5050PowerOff
0005ccbc   _VCR_vStopSIVRForCall
00094138   _VERSION_VALUES
0009146c   _VwBt
000914ec   _VwPin
0008d7d8   _WD_u8Init
0008d7f4   _WD_u8ToggleWD
0040b784   _WatchMessageTimer
0008b480   _WriteProtReg
00054314   __APP_DEVICE_Connection_bMdActivateFinished
000543b8   __APP_DEVICE_Connection_bMdDeactivateFinished
0005440c   __APP_DEVICE_Connection_bPhoneActivateFinished
00054230   __APP_DEVICE_Connection_vHandleA2dpNotification
00054278   __APP_DEVICE_Connection_vHandleAvrcpNotification
000542c0   __APP_DEVICE_Connection_vHandleBtConnectionNotification
000542fc   __APP_DEVICE_Connection_vHandlePairingNotification
00054c94   __APP_DEVICE_Connection_vHandlePhoneNotification
00054310   __APP_DEVICE_Connection_vHandleServiceSupportNotification
0007fe50   __APP_DEVICE_Connection_vOnErmNotification
000910ac   __APP_DEVICE_Default_UserTable
00053a5c   __APP_DEVICE_DisconnectDevice_Cb
0007ff64   __APP_DEVICE_E2P_Backup_R2FS_vOnErmNotification
000538b0   __APP_DEVICE_GetMuteRingtone_Cb
00053960   __APP_DEVICE_PlayRingtone_Cb
00047440   __APP_DEVICE_Profiles_vHandlePhoneStateChanged
0004753c   __APP_DEVICE_Profiles_vHandlePlayerStateChanged
0007fee0   __APP_DEVICE_Profiles_vOnErmNotification
000538f0   __APP_DEVICE_StopBeforePlayRingtone_Cb
000539d0   __APP_DEVICE_StopRingtone_Cb
00045be8   __APP_DEVICE_rcAssociateHeadsetToUser
00045c90   __APP_DEVICE_rcAssociatePlayerToUser
00045ce4   __APP_DEVICE_rcUpdatedeletedPlayerInUserProfiles
00045acc   __APP_DEVICE_sfAddMissingPlayerProfile
00045a14   __APP_DEVICE_sfAddMissingUserProfile
00089b84   __APP_DEVICE_sfConnectDeviceATRequest
00089bb8   __APP_DEVICE_sfDisconnectDeviceATRequest
00053abc   __APP_DEVICE_sfHandlePendingActivate
00045e08   __APP_DEVICE_sfHandlePendingAddMissingPlayerProfile
00045f48   __APP_DEVICE_sfHandlePendingAddMissingUserProfile
0004613c   __APP_DEVICE_sfHandlePendingAddProfile
000461ec   __APP_DEVICE_sfHandlePendingAssociateHeadsetToUser
0004631c   __APP_DEVICE_sfHandlePendingAssociatePlayerToUser
000466a8   __APP_DEVICE_sfHandlePendingChangeAuthMode
00046740   __APP_DEVICE_sfHandlePendingChangeDeviceName
00046898   __APP_DEVICE_sfHandlePendingChangeMailbox
000467b4   __APP_DEVICE_sfHandlePendingChangeRingtone
000464a4   __APP_DEVICE_sfHandlePendingChangeRingtoneMode
000462a8   __APP_DEVICE_sfHandlePendingChangeSortingOrderForNewUser
00054128   __APP_DEVICE_sfHandlePendingDeactivate
00046a18   __APP_DEVICE_sfHandlePendingDeleteAllProfiles
0004690c   __APP_DEVICE_sfHandlePendingDeleteProfile
000537bc   __APP_DEVICE_sfHandlePendingDisconnectDevice
00046540   __APP_DEVICE_sfHandlePendingInitCK5050ForUser
00053e78   __APP_DEVICE_sfHandlePendingMdActivate
00053c40   __APP_DEVICE_sfHandlePendingMdDeactivate
0007c588   __APP_DEVICE_sfHandlePendingResetToFactorySetting
00046ccc   __APP_DEVICE_sfHandlePendingSaveBtName
000541b8   __APP_DEVICE_sfHandlePendingSetAutoConnMode
00046614   __APP_DEVICE_sfHandlePendingSetPbCompletelyLoaded
00053824   __APP_DEVICE_sfHandlePendingStartRingtoneNonBlock
0005378c   __APP_DEVICE_sfHandlePendingStopRingtoneNonBlock
00046034   __APP_DEVICE_sfHandlePendingUpdateActiveProfileList
0007c48c   __APP_DEVICE_sfHandlePendingUpdateBackupAreaEeprom
000463e0   __APP_DEVICE_sfHandlePendingUpdateDeletedPlayerInProfiles
00045b94   __APP_DEVICE_sfInitCK5050ForUserProfile
00089bec   __APP_DEVICE_sfSendALCKATRequest
00089c18   __APP_DEVICE_sfSendGetImsiRequest
00089c3c   __APP_DEVICE_sfSendPbsvATRequest
00089b08   __APP_DEVICE_sfStartServiceATRequest
00089b44   __APP_DEVICE_sfStopServiceATRequest
00045db4   __APP_DEVICE_sfUpdateErmActiveProfileTable
00045c3c   __APP_DEVICE_vChangePBSortingOrder
00053a64   __APP_DEVICE_vDeactivateMdiFromAvrcpStarted_Cb
0007c914   __APP_DEVICE_vDisconnectProfile_Cb
00054ce8   __APP_DEVICE_vHandleHeadsetStateChanged
000472f8   __APP_DEVICE_vHandleNoHeadsetProfileAvailable
000472b8   __APP_DEVICE_vHandleNoPlayerProfileAvailable
0004726c   __APP_DEVICE_vHandleNoUserProfileAvailable
00054d60   __APP_DEVICE_vHandlePlayerDisconnected
00046e70   __APP_DEVICE_vHandlePlayerProfileAdded
00075e28   __APP_DEVICE_vNotifyApps
00046d68   __APP_DEVICE_vOnAddActiveProfileToEeprom_Cb
00046f84   __APP_DEVICE_vOnAddMissingProfile_Cb
00046dac   __APP_DEVICE_vOnAddProfileToEeprom_Cb
00047074   __APP_DEVICE_vOnChangeAssociatedHeadset_Cb
00047028   __APP_DEVICE_vOnChangeAssociatedPlayerAfterDeletedPlayer_Cb
00047018   __APP_DEVICE_vOnChangeAssociatedPlayer_Cb
00047140   __APP_DEVICE_vOnChangeAuthMode_Cb
00047150   __APP_DEVICE_vOnChangeDeviceName_Cb
000471d0   __APP_DEVICE_vOnChangeMailboxInEeprom_Cb
0004706c   __APP_DEVICE_vOnChangePBSortingOrder_Cb
0004707c   __APP_DEVICE_vOnChangeRingtoneMode_Cb
00047174   __APP_DEVICE_vOnChangeRingtone_Cb
00046c74   __APP_DEVICE_vOnDeleteAllDevice_Cb
00046be4   __APP_DEVICE_vOnDeleteAllProfilesInEeprom_Cb
0007c8e8   __APP_DEVICE_vOnDeleteAllUserProfileCK5050p_Cb
000471f0   __APP_DEVICE_vOnDeleteDevice_Cb
00046f14   __APP_DEVICE_vOnDeleteProfileInEeprom_Cb
000470d0   __APP_DEVICE_vOnInitCK5050ForUser_Cb
0007fc60   __APP_DEVICE_vOnPhoneServiceActivationResult
0007fdac   __APP_DEVICE_vOnPhoneServiceDeactivationResult
00046d5c   __APP_DEVICE_vOnSaveBtName_Cb
0007fb68   __APP_DEVICE_vOnServiceActivationResult
0007fd2c   __APP_DEVICE_vOnServiceDeactivationResult
00054228   __APP_DEVICE_vOnServiceStartCb
000470c8   __APP_DEVICE_vOnSetPbCompletelyLoaded_Cb
0007c8c4   __APP_DEVICE_vOnWriteDefaultInEeprom_Cb
0007560c   __APP_DEVICE_vReleaseContext
0007561c   __APP_DEVICE_vSendResultReleaseContext
0005680c   __APP_DIAG_vMediaPlayerIsDisconnected_Cb
00065ac0   __APP_MDI_cbActiveMediaPlayer
00082f70   __APP_MDI_sfGetNextJob
00083000   __APP_MDI_sfHandlePendingFunction
00072c5c   __APP_MDI_sfSendALCKATRequest
00072b50   __APP_MDI_sfSendAutomaticPlayerNotificationATRequest
00072be4   __APP_MDI_sfSendDgedATRequest
00072ba8   __APP_MDI_sfSendDgpsATRequest
00072b7c   __APP_MDI_sfSendGetMetadataTypeATRequest
00072a50   __APP_MDI_sfSendKeyboardEventATRequest
00072c88   __APP_MDI_sfSendPbsvATRequest
00072ac0   __APP_MDI_sfSendPlayerStateATRequest
00072a80   __APP_MDI_sfSendRandomModeATRequest
00072b10   __APP_MDI_sfSendRepeatModeATRequest
00082edc   __APP_MDI_vJobManager
00066f4c   __APP_MDI_vNotifyApps
00082e50   __APP_MDI_vReInitApp
00082e70   __APP_MDI_vReleaseContext
00082eac   __APP_MDI_vSendResultReleaseContext
0006b01c   __APP_PHONEBOOK_AT_sfHandlePbSearchResponse
0006b294   __APP_PHONEBOOK_AT_sfSendActivatePpds
0006b3f0   __APP_PHONEBOOK_AT_sfSendAddPbEntryATRequest
0006b388   __APP_PHONEBOOK_AT_sfSendGetPhonebookUpdateStatus
0006b46c   __APP_PHONEBOOK_AT_sfSendNumVoiceTagsATRequest
0006b4b0   __APP_PHONEBOOK_AT_sfSendPbCallStackResetATRequest
0006b4d8   __APP_PHONEBOOK_AT_sfSendPbEntriesATRequest
0006b540   __APP_PHONEBOOK_AT_sfSendPbNumbersATRequest
0006b2b8   __APP_PHONEBOOK_AT_sfSendPbSearchATRequest
0006b308   __APP_PHONEBOOK_AT_sfSendPbSearchExtendedATRequest
0006b5a0   __APP_PHONEBOOK_AT_sfSendPbSizeATRequest
0006b3b8   __APP_PHONEBOOK_AT_sfSendPbSortOrderATRequest
0006b358   __APP_PHONEBOOK_AT_sfSendPbSyncATRequest
0006b220   __APP_PHONEBOOK_AT_sfSendSelectPbATRequest
000522a8   __APP_PHONEBOOK_BAP_REQUEST_sfHandleSmsDeleted
00052464   __APP_PHONEBOOK_BAP_REQUEST_sfHandleSmsMarkedAsRead
00051e70   __APP_PHONEBOOK_BAP_REQUEST_sfHandleSmsRequestFinished
00052624   __APP_PHONEBOOK_BAP_REQUEST_sfSendCallListStatusArray
000532cc   __APP_PHONEBOOK_BAP_REQUEST_sfSendDialledCallListChangedArray
00052980   __APP_PHONEBOOK_BAP_REQUEST_sfSendEmptyCallListStatusArray
000531c8   __APP_PHONEBOOK_BAP_REQUEST_sfSendMissedCallListChangedArray
0005191c   __APP_PHONEBOOK_BAP_REQUEST_sfSendMissedCallsIndication
0005312c   __APP_PHONEBOOK_BAP_REQUEST_sfSendMobServSupp
00052a9c   __APP_PHONEBOOK_BAP_REQUEST_sfSendNewPbEntryChangedArray
00052210   __APP_PHONEBOOK_BAP_REQUEST_sfSendNewSmsChangedArray
00052b54   __APP_PHONEBOOK_BAP_REQUEST_sfSendPbChangedArray
00052570   __APP_PHONEBOOK_BAP_REQUEST_sfSendPbSpellerResult
000519c4   __APP_PHONEBOOK_BAP_REQUEST_sfSendPbState
00052bcc   __APP_PHONEBOOK_BAP_REQUEST_sfSendPhonebookPosOnlyStatusArray
00052d60   __APP_PHONEBOOK_BAP_REQUEST_sfSendPhonebookStatusArray
00053248   __APP_PHONEBOOK_BAP_REQUEST_sfSendReceivedCallListChangedArray
00051b34   __APP_PHONEBOOK_BAP_REQUEST_sfSendSmsAttribOnly
0005219c   __APP_PHONEBOOK_BAP_REQUEST_sfSendSmsChangedArray
000523a8   __APP_PHONEBOOK_BAP_REQUEST_sfSendSmsDeletedChangedArray
00051b38   __APP_PHONEBOOK_BAP_REQUEST_sfSendSmsPosOnly
00051ccc   __APP_PHONEBOOK_BAP_REQUEST_sfSendSmsReceivedNoSmsForIndex
00051d84   __APP_PHONEBOOK_BAP_REQUEST_sfSendSmsState
00051a94   __APP_PHONEBOOK_BAP_REQUEST_sfSendVoiceMailBox
0007a43c   __APP_PHONEBOOK_BAP_sfUpdatePbDwldState
0007a61c   __APP_PHONEBOOK_BAP_vOnHandleDeleteSmsCb
0007a604   __APP_PHONEBOOK_BAP_vOnMarkSmsAsReadCb
0007a6b4   __APP_PHONEBOOK_BAP_vOnPbStartDownloadCb
0007a6ec   __APP_PHONEBOOK_BAP_vOnReadDialedListCb
0007a6e4   __APP_PHONEBOOK_BAP_vOnReadMissedCallsCb
0007a6f4   __APP_PHONEBOOK_BAP_vOnReadRecvCallsListCb
0007a5dc   __APP_PHONEBOOK_BAP_vOnReadSmsCb
0007a6fc   __APP_PHONEBOOK_BAP_vOnReadUsersPbCb
0007a644   __APP_PHONEBOOK_BAP_vOnSearchPbCb
0007a5a4   __APP_PHONEBOOK_BAP_vOnSendSmsCb
0006ea88   __APP_PHONEBOOK_BAP_vReleaseContext
0006ea60   __APP_PHONEBOOK_BAP_vRetryContext
0006f138   __APP_PHONEBOOK_BAP_vSetBasicPbMobileServiceSupport
0005ad0c   __APP_PHONEBOOK_sfActivatePpds
0005ab50   __APP_PHONEBOOK_sfUpdatePbSizes
0005abdc   __APP_PHONEBOOK_sfUpdateSinglePbSize
0005ad74   __APP_PHONEBOOK_vNotifyApps
0005ab10   __APP_PHONEBOOK_vOnActivatePpdsResult
0005a838   __APP_PHONEBOOK_vOnAddPbEntryResult
0005a698   __APP_PHONEBOOK_vOnCallStackResetResult
0005a894   __APP_PHONEBOOK_vOnPbSortOrderResult
0005a9b4   __APP_PHONEBOOK_vOnReadCompletePbResult
0005a7ac   __APP_PHONEBOOK_vOnReqNumTagsResult
0005a750   __APP_PHONEBOOK_vOnSearchPbResult
0005a6f4   __APP_PHONEBOOK_vOnSyncPbResult
0005a4c4   __APP_PHONEBOOK_vOnUpdatePbResult
0005a594   __APP_PHONEBOOK_vOnUpdateSinglePbSize
00059de4   __APP_PHONEBOOK_vReInitApp
00059e1c   __APP_PHONEBOOK_vReleaseFctContext
00059e48   __APP_PHONEBOOK_vSendResultReleaseContext
0006c034   __APP_PHONE_AT_PNCC_GetCurrentActiveCallIndex
0006b6bc   __APP_PHONE_AT_PNCC_sfHandleCallStatusCount
0006b730   __APP_PHONE_AT_PNCC_sfHandleCallStatusIndex
0006b6a0   __APP_PHONE_AT_PNCC_sfInit
0006bf84   __APP_PHONE_AT_PNCC_sfSetPnccDefault
0006bfa8   __APP_PHONE_AT_PNCC_u16GetValidPlccNumber
00083858   __APP_PHONE_AT_REQUEST_sfAcceptCall
0008396c   __APP_PHONE_AT_REQUEST_sfCallHold
000839a0   __APP_PHONE_AT_REQUEST_sfCallReplace
000838cc   __APP_PHONE_AT_REQUEST_sfCallState
000837c0   __APP_PHONE_AT_REQUEST_sfDialIndex
00083734   __APP_PHONE_AT_REQUEST_sfDialNumber
00083828   __APP_PHONE_AT_REQUEST_sfDialNumberType
000838f0   __APP_PHONE_AT_REQUEST_sfHandleCallInfo
00083a38   __APP_PHONE_AT_REQUEST_sfHandsFreeOnOff
0008387c   __APP_PHONE_AT_REQUEST_sfHangUp
00083a0c   __APP_PHONE_AT_REQUEST_sfHeadsetOnOff
00083ab4   __APP_PHONE_AT_REQUEST_sfJoinToConference
00083a64   __APP_PHONE_AT_REQUEST_sfMicroMuteOnOff
000838a8   __APP_PHONE_AT_REQUEST_sfPhoneStatus
00083940   __APP_PHONE_AT_REQUEST_sfPlpdRequest
00083b24   __APP_PHONE_AT_REQUEST_sfPutCallsThrough
00083804   __APP_PHONE_AT_REQUEST_sfRedial
00083b58   __APP_PHONE_AT_REQUEST_sfRequestHfpVersion
000839d0   __APP_PHONE_AT_REQUEST_sfResumeCall
00083914   __APP_PHONE_AT_REQUEST_sfSendDTMF
00083ae8   __APP_PHONE_AT_REQUEST_sfSplitCallFromConference
00083a90   __APP_PHONE_AT_REQUEST_sfSwitchCalls
000607a0   __APP_PHONE_BAP_REQUEST_sfDeactiveUser
0006064c   __APP_PHONE_BAP_REQUEST_sfSendActiveUser
00060160   __APP_PHONE_BAP_REQUEST_sfSendAllCallStatesIdle
0005fe78   __APP_PHONE_BAP_REQUEST_sfSendCallInfoStatus
000601f0   __APP_PHONE_BAP_REQUEST_sfSendCallState
0005fb8c   __APP_PHONE_BAP_REQUEST_sfSendFsgOperationState
0005fbd8   __APP_PHONE_BAP_REQUEST_sfSendFsgSetup
0005fa58   __APP_PHONE_BAP_REQUEST_sfSendHandsFreeOnOff
000600bc   __APP_PHONE_BAP_REQUEST_sfSendLineState
0005fab0   __APP_PHONE_BAP_REQUEST_sfSendMicroMuteOnOff
0005fb08   __APP_PHONE_BAP_REQUEST_sfSendMobServSupp
00060b48   __APP_PHONE_BAP_REQUEST_sfSendNetworkProvider
00060af4   __APP_PHONE_BAP_REQUEST_sfSendRegisterState
00060aa0   __APP_PHONE_BAP_REQUEST_sfSendSignalQuality
000609f0   __APP_PHONE_BAP_REQUEST_sfSendUserListChanged
00060870   __APP_PHONE_BAP_REQUEST_sfSendUserListStatus
000647c4   __APP_PHONE_BAP_cbAcceptCallTimeOut
0006486c   __APP_PHONE_BAP_cbCCJoinTimeOut
00064834   __APP_PHONE_BAP_cbCallHoldTimeOut
000647ac   __APP_PHONE_BAP_cbDialNumberTimeOut
000647e4   __APP_PHONE_BAP_cbHangUpCallTimeOut
00064800   __APP_PHONE_BAP_cbMPCallHoldAcceptWaitingCallTimeOut
00064884   __APP_PHONE_BAP_cbMPReleaseActiveCallAcceptWaitingCallTimeOut
0006481c   __APP_PHONE_BAP_cbMPSwapTimeOut
00064850   __APP_PHONE_BAP_cbResumeCallTimeOut
0005f92c   __APP_PHONE_BAP_sfUpdateAndSendMobileServiceSupport
0007c208   __APP_PHONE_BAP_vDelayUserActivation_Cb
0007c1a4   __APP_PHONE_BAP_vDisconnectActiveUserOnCK5050ShutDown
0006368c   __APP_PHONE_BAP_vHandleBAPIndication
0005f928   __APP_PHONE_BAP_vHandleHfpVersionChanged
0005f794   __APP_PHONE_BAP_vInternalNotification
000645ac   __APP_PHONE_BAP_vOnAcceptCallCb
000646ec   __APP_PHONE_BAP_vOnCCJoinCb
00064684   __APP_PHONE_BAP_vOnCallHoldCb
00064578   __APP_PHONE_BAP_vOnDialNumberCb
000645e0   __APP_PHONE_BAP_vOnHangUpCallCb
00064618   __APP_PHONE_BAP_vOnMPCallHoldAcceptWaitingCallCb
00064720   __APP_PHONE_BAP_vOnMPReleaseActiveCallAcceptWaitingCallCb
00064650   __APP_PHONE_BAP_vOnMPSwapCb
00064784   __APP_PHONE_BAP_vOnMicroMuteOnOffCb
00064548   __APP_PHONE_BAP_vOnRestoreFactorySettingsCb
000646b8   __APP_PHONE_BAP_vOnResumeCallCb
00064754   __APP_PHONE_BAP_vOnSendDtmfCb
00063670   __APP_PHONE_BAP_vReleaseContext
0006363c   __APP_PHONE_BAP_vRetryContext
0007c0f8   __APP_PHONE_BAP_vSetBasicMobileServiceSupport
00088640   __APP_PHONE_CAN_DATA_vMapAndSendRegisterState
000885d0   __APP_PHONE_CAN_DATA_vSendFieldStrength
000884f8   __APP_PHONE_CAN_DATA_vSendPhoneActiveCall
000884c0   __APP_PHONE_CAN_DATA_vSendPhoneOn
00088530   __APP_PHONE_CAN_DATA_vSendPhoneRing
00088568   __APP_PHONE_CAN_DATA_vSendProvider
00088608   __APP_PHONE_CAN_DATA_vSendRegisterState
00058c30   __APP_PHONE_Execute_HangUp
00059c90   __APP_PHONE_MuteAck_Cb
000586e8   __APP_PHONE_sfRequestHfpVersion
00058584   __APP_PHONE_vNotifyApp
00058410   __APP_PHONE_vReInitApp
00058448   __APP_PHONE_vReleaseFctContext
00058458   __APP_PHONE_vSendResultReleaseContext
000204d0   __APP_SD_AddHeadsetProfile_Cb
00020598   __APP_SD_AddPlayerProfile_Cb
0002041c   __APP_SD_AddUserProfile_Cb
00021e9c   __APP_SD_FB_sfSendAndActivateFrame
0002b784   __APP_SD_FB_vPresReqOff
00020500   __APP_SD_HandlePendingButtonS542_Cb
00021b88   __APP_SD_bCurrentFrameStaysActiveWhenNotInPhoneContext
0000d9bc   __APP_SD_bHandleButtonS521
00021b14   __APP_SD_bIsA2dpAlreadyForUserProfileStarted
000211ac   __APP_SD_bIsKl15On
00021ac8   __APP_SD_bRemoteControlAvailable
00021d18   __APP_SD_blastRingtonestate
00021a60   __APP_SD_setPlayerVisibleIfEncoded
000089f4   __APP_SD_sfGetNextEvent
0001ec30   __APP_SD_vButtonPendingS104_Cb
0001ee74   __APP_SD_vButtonPendingS104_Cb2
0001eedc   __APP_SD_vButtonPendingS306_Cb
0001ef68   __APP_SD_vButtonPendingS413_Cb
0001efd0   __APP_SD_vButtonPendingS512_Cb
0001f028   __APP_SD_vButtonPendingS515_Cb
0001f084   __APP_SD_vButtonPendingS51D_Cb
0001f0dc   __APP_SD_vButtonPendingS520_Cb
0001f118   __APP_SD_vButtonPendingS522_Cb
0001f174   __APP_SD_vButtonPendingS52C_Cb
0001f3bc   __APP_SD_vButtonPendingS536_Cb
0001f244   __APP_SD_vButtonPendingS556_Cb
0001f290   __APP_SD_vButtonPendingS563_Cb
0001f2e8   __APP_SD_vButtonPendingS572_Cb
0001f40c   __APP_SD_vButtonPendingS575_Cb
0001f464   __APP_SD_vButtonPendingS581_Cb
0001efa4   __APP_SD_vButtonPendingS642_Cb
0001f4b4   __APP_SD_vButtonPendingS661_Cb
0001f4fc   __APP_SD_vButtonPendingS669_Cb
0001f54c   __APP_SD_vButtonPendingS812_Cb
0001f1d4   __APP_SD_vButtonPendingS933_Cb
0001f5a4   __APP_SD_vButtonPendingSC13_Cb
0001f5f4   __APP_SD_vButtonPendingSC24_Cb
0000881c   __APP_SD_vEventManager
00014454   __APP_SD_vInitFrameSC24
0001de24   __APP_SD_vInitPendingS105_Cb
0001defc   __APP_SD_vInitPendingS117_Cb
0001e07c   __APP_SD_vInitPendingS212_Cb
0001e184   __APP_SD_vInitPendingS213_Cb
0001e36c   __APP_SD_vInitPendingS306_Cb
0001e28c   __APP_SD_vInitPendingS405_Cb
0001e5a0   __APP_SD_vInitPendingS406_MarkAsRead_Cb
0001e4d8   __APP_SD_vInitPendingS406_Msg_Cb
0001e624   __APP_SD_vInitPendingS407_Cb
0001f648   __APP_SD_vInitPendingS408_Cb
0001e668   __APP_SD_vInitPendingS517_Cb
0001e6b4   __APP_SD_vInitPendingS520_Cb
0001e718   __APP_SD_vInitPendingS581_Cb
0001e77c   __APP_SD_vInitPendingS669_Cb
0001e914   __APP_SD_vInitPendingS801_Dial_Cb
0001e804   __APP_SD_vInitPendingS801_ReqNumber_Cb
0001e968   __APP_SD_vInitPendingS945_Dial_Cb
0001e9c0   __APP_SD_vInitPendingSC12_Cb
0001ebbc   __APP_SD_vInitPendingSC13_Cb
0001d4bc   __APP_SD_vListDataRequest_S104_Cb
0001d6a0   __APP_SD_vListDataRequest_S105_Cb
0001d8a8   __APP_SD_vListDataRequest_S211_Cb
0001da70   __APP_SD_vListDataRequest_S404_Cb
0001dba4   __APP_SD_vListDataRequest_S515_Cb
0001dcf8   __APP_SD_vListDataRequest_SC01_Cb
00021108   __APP_SD_vSetCtxHistoryState
00021d28   __APP_SD_vnotifiedRingtonestate
0008904c   __APP_SMS_enGetNextInitState
00089148   __APP_SMS_sfRequestSms
000891c8   __APP_SMS_sfRequestSmsPreview
000890b0   __APP_SMS_sfSendSetCharsetATRequest
0008920c   __APP_SMS_sfSendSmsDeleteATRequest
00089118   __APP_SMS_sfSendSmsFolderSizeATRequest
000890e8   __APP_SMS_sfSendStartSynchroATRequest
000716c4   __APP_SMS_vNotifyApps
0007146c   __APP_SMS_vOnDeleteSmsResult
00071520   __APP_SMS_vOnMarkAsReadResult
0007135c   __APP_SMS_vOnReadSmsPreviewResult
000712e8   __APP_SMS_vOnReadSmsResult
000713e0   __APP_SMS_vOnSendConcSmsResult
000713d0   __APP_SMS_vOnSendSmsResult
00071258   __APP_SMS_vOnSmsInitResult
00070ce4   __APP_SMS_vReInitApp
00070d1c   __APP_SMS_vReleaseFctContext
004070d7   __ATCMD_bPbRequestIsVCR
000339dc   __ATParser_CheckNumberParam
000328d8   __ATParser_ExtBTAddress
00032be0   __ATParser_ExtBool
00032b7c   __ATParser_ExtBoolSpecial
00032c3c   __ATParser_ExtCallState
00032468   __ATParser_ExtCallerID
000329ac   __ATParser_ExtCoD
0003210c   __ATParser_ExtDeviceId
00032174   __ATParser_ExtDeviceIdType
000317d4   __ATParser_ExtDged
00031654   __ATParser_ExtDgps
00032870   __ATParser_ExtLastBTAddress
00032b30   __ATParser_ExtLastBool
00032324   __ATParser_ExtLastCallerID
00032940   __ATParser_ExtLastCoD
0003229c   __ATParser_ExtLastName
00032a8c   __ATParser_ExtLastSupport
00031ebc   __ATParser_ExtMicGain
000323ac   __ATParser_ExtName
000321fc   __ATParser_ExtPairingDeviceIdType
00031f14   __ATParser_ExtPalgoAEC
000320b4   __ATParser_ExtPalgoSetMic
00031e64   __ATParser_ExtPalgoselect
00031564   __ATParser_ExtPamu
000318a8   __ATParser_ExtPasa
00030df4   __ATParser_ExtPbcd
00033a84   __ATParser_ExtPbdi
0003136c   __ATParser_ExtPbsc
000314d0   __ATParser_ExtPbsn
00031900   __ATParser_ExtPcms
00033c1c   __ATParser_ExtPgir
00031464   __ATParser_ExtPgmt
000309e8   __ATParser_ExtPievInfo
000308f0   __ATParser_ExtPindSup
000307b8   __ATParser_ExtPindVal
00030248   __ATParser_ExtPlccInfo
0003008c   __ATParser_ExtPlpdInfo
00030f6c   __ATParser_ExtPmrdMsg
00030ec0   __ATParser_ExtPmrdNum
00031020   __ATParser_ExtPmsdexMsg
0003108c   __ATParser_ExtPpbp
0003113c   __ATParser_ExtPpbr
00033ed0   __ATParser_ExtPprq
00031d6c   __ATParser_ExtPprs
000315d4   __ATParser_ExtPsbd
00030718   __ATParser_ExtPwng
00031a6c   __ATParser_ExtRgsl
00031b44   __ATParser_ExtRres
00031958   __ATParser_ExtRscl
000319f8   __ATParser_ExtRsrf
000340b0   __ATParser_ExtRstu
00032a18   __ATParser_ExtSSPPin
00032ad8   __ATParser_ExtSupport
00031f88   __ATParser_ExtVolumeSet
0002ff08   __ATParser_FirstToken
00030024   __ATParser_GetDeviceAndValue
0002ff68   __ATParser_OtherToken
000332e4   __ATParser_sFExtASourceActStateValue
00033660   __ATParser_sFExtATSupportedValue
00033268   __ATParser_sFExtAutoConnStatusValue
00033568   __ATParser_sFExtBTServiceResultValue
000334e8   __ATParser_sFExtBTServiceValue
000338dc   __ATParser_sFExtCodProfileValue
00033464   __ATParser_sFExtDeviceStatusValue
000333e4   __ATParser_sFExtDeviceplayerCodedValue
0003375c   __ATParser_sFExtDiscoverModeValue
00033364   __ATParser_sFExtEntryFieldMaskValue
000336dc   __ATParser_sFExtKeyRangeValue
00032d08   __ATParser_sFExtLastPNTypeValue
00032720   __ATParser_sFExtLastQuotedString
00032ec4   __ATParser_sFExtLastu32RangeValue
000335e4   __ATParser_sFExtMetadataTypeValue
00032f8c   __ATParser_sFExtMicAlgoValue
00032c94   __ATParser_sFExtPNTypeSpecialValue
00032d4c   __ATParser_sFExtPNTypeValue
00033008   __ATParser_sFExtPairingResultValue
000325ec   __ATParser_sFExtQuotedLeftPosition
000327a4   __ATParser_sFExtQuotedString
0003385c   __ATParser_sFExtRintoneModeValue
00033088   __ATParser_sFExtSIVRCmdValue
000337d8   __ATParser_sFExtSIVREngStatusValue
000331e8   __ATParser_sFExtSIVRLanguageValue
00033188   __ATParser_sFExtSIVRPromptValue
0003310c   __ATParser_sFExtSIVRResultValue
00032548   __ATParser_sFExtUnquotedString
0003395c   __ATParser_sFExtVTResultValue
00032e50   __ATParser_sFExtu16RangeValue
00032f20   __ATParser_sFExtu32RangeValue
00032dd0   __ATParser_sFExtu8RangeValue
00034198   __ATParser_sfExtPbcv
00030d38   __ATParser_sfExtPbsfInfo
00030b20   __ATParser_sfExtPsprInfo
00030c20   __ATParser_sfExtPsspInfo
00030004   __ATParser_u8GetFromAsciiAndCheck
0008d2fc   __AT_CheckDTMFValue
0008d2ec   __AT_CheckPhoneNumer
0008d33c   __AT_sFCmdReInitialiseUart
0008be84   __AppTask_vHandleAlarm
0008be74   __AppTask_vInitAlarm
00085c5c   __BAP_DISP_GetQueueSize
00087c9c   __EEPROM_LAYOUT_vLengthMasking_0_31
00087d1c   __EEPROM_LAYOUT_vLengthMasking_32_63
00087c38   __EEPROM_LAYOUT_vOffsetMasking_0_31
00087d14   __EEPROM_LAYOUT_vOffsetMasking_32_63
0002fd0c   __ERM_ForceDisconnect_Cb
00070448   __ERM_GetAECDelay
000707a0   __ERM_GetAECMaxAtt
000707bc   __ERM_GetAECSwitchTime
00070b10   __ERM_GetAlcVolumeFromALCtoSLMappingTable
0007097c   __ERM_GetComfortNoise
00070784   __ERM_GetHPFilter
00070650   __ERM_GetMicAlgotype
0007066c   __ERM_GetMicChoice
00070704   __ERM_GetMicDirection
00070720   __ERM_GetMicGainADC
000706e8   __ERM_GetMicInputGain
000706cc   __ERM_GetMicMaxAtt
00070a24   __ERM_GetRXAlcMode
00070a18   __ERM_GetRXAlcTarget
0007073c   __ERM_GetRXAlgo
000706b0   __ERM_GetRXGain
00070ac0   __ERM_GetRXSLLevel
000707d8   __ERM_GetRingVolume
00070768   __ERM_GetSpeakerLimit
00070694   __ERM_GetTXGain
00070af4   __ERM_GetTXSLLevel
00070acc   __ERM_GetTXSLMode
0008a270   __ERM_GetUart
0007090c   __ERM_InitAecDelay
00070a30   __ERM_InitAlcMode
000708a8   __ERM_InitCommVolume
00070860   __ERM_InitMicGain
000707f8   __ERM_InitPromptVolume
000709a4   __ERM_InitRXAlcTarget
00070a4c   __ERM_InitRXSLLevel
000708c4   __ERM_InitStreamVolume
00034d28   __ERM_OnConsistencyCheckCb
00042ee0   __ERM_ProcessMsg
00045154   __ERM_RINGTONE_sfHandleOkErrorRsp
0008a20c   __ERM_ReleaseUart
00043eac   __ERM_SendMessage
000362bc   __ERM_bUserListWasInitialized
0002ecc0   __ERM_cbGetOperaterDelay
00034674   __ERM_eGetActiveDeviceRingtone
000346e0   __ERM_eGetActiveDeviceRingtoneAlternate
00034698   __ERM_eIntSetActiveDeviceRingtone
00034704   __ERM_eIntSetActiveDeviceRingtoneAlternate
00409c30   __ERM_gContext
000365a0   __ERM_pGetUserProfileForEdit
000373f4   __ERM_rcPrepare_AddActivePhoneProfileWhenNotConnectedAsPhone
0003726c   __ERM_rcPrepare_AddActiveProfile
000371c0   __ERM_rcPrepare_AddPhysicalDevice
00037064   __ERM_rcPrepare_AddPlayerHeadsetProfile
0003689c   __ERM_rcPrepare_AddUserProfile
00036b58   __ERM_rcPrepare_ChangePhyTable_Name
00036dd8   __ERM_rcPrepare_ChangePhyTable_Voicetags
00036f38   __ERM_rcPrepare_ChangePlayerHeadsetProfile_AuthMode
00036a40   __ERM_rcPrepare_ChangeUserProfile_AssociatedHeadset
0003697c   __ERM_rcPrepare_ChangeUserProfile_AssociatedPlayer
00036d3c   __ERM_rcPrepare_ChangeUserProfile_AudioMode
00036e74   __ERM_rcPrepare_ChangeUserProfile_Mailboxnumber
00036c10   __ERM_rcPrepare_ChangeUserProfile_PbCompletelyLoaded
00036ad0   __ERM_rcPrepare_ChangeUserProfile_Ringtone
00036cac   __ERM_rcPrepare_ChangeUserProfile_RingtoneAlternate
000374cc   __ERM_rcPrepare_DeleteActiveProfile
00037138   __ERM_rcPrepare_DeletePhysicalDevice
00036fcc   __ERM_rcPrepare_DeletePlayerHeadsetProfile
00036810   __ERM_rcPrepare_DeleteUserProfile
000367c8   __ERM_rcPrepare_EepromUpdate
0003617c   __ERM_rcWritePersistentActiveProfileList
00035fac   __ERM_rcWritePersistentPhysicalDevice
00035e48   __ERM_rcWritePersistentPlayerHsProfile
00035ce8   __ERM_rcWritePersistentUserProfile
00034778   __ERM_sFBTDeviceConnectionUpdate
00034a24   __ERM_sFBTDeviceServiceUpdate
0003494c   __ERM_sFBTFillDeviceInfo
00034874   __ERM_sFBTSdpUpdate
000348bc   __ERM_sFBTSupportedServiceUpdate
000345a8   __ERM_sFInitBTDeviceValues
000703f0   __ERM_sFSetAECDelay
0007039c   __ERM_sFSetMicSensitivity
0007022c   __ERM_sFSetVolumes
00034c14   __ERM_sfConsistencyCheck
0003542c   __ERM_sfDeleteDevice
00044ed8   __ERM_sfHandleOkErrorRsp
000360e0   __ERM_sfReadPersistentActiveProfiles
00035f24   __ERM_sfReadPersistentPhysicalDevice
00035dc0   __ERM_sfReadPersistentPlayerHsProfile
00036258   __ERM_sfReadPersistentUserList
00035c64   __ERM_sfReadPersistentUserProfile
000344dc   __ERM_sfSetPhysicalDeviceEntryToDefault
000344b4   __ERM_sfSetPlayerHeadsetProfileEntryToDefault
0003441c   __ERM_sfSetUserProfileEntryToDefault
00408fa4   __ERM_stActiveProfileList
00092138   __ERM_stAudioTable
00408904   __ERM_stBTDeviceTable
00408bfc   __ERM_stPhyDevTable
00408f7c   __ERM_stPlayerHeadsetTable
00408e7c   __ERM_stUserTable
0003679c   __ERM_u8GetFreePlayerHeadsetProfileSlot
00036770   __ERM_u8GetFreeUserProfileSlot
0002e9a8   __ERM_vChangeState
00034bac   __ERM_vCheckDeviceTable
00036140   __ERM_vCopyTmpActProfileListToRam
0003603c   __ERM_vCopyTmpPhyDeviceToRam
00035edc   __ERM_vCopyTmpPlayerHsProfileToRam
00035d74   __ERM_vCopyTmpUserProfileToRam
0002e328   __ERM_vEepromWriteFinished_Cb
000343a0   __ERM_vInitActiveProfileList
00070124   __ERM_vInitAudioValues
00034588   __ERM_vInitBTDeviceTable
000343b0   __ERM_vInitPhysicalDeviceTable
00034480   __ERM_vInitPlayerHeadsetProfileTable
000342ec   __ERM_vInitTmpEpromData
000343e8   __ERM_vInitUserProfileTable
00034b3c   __ERM_vNotifyApplication
0002ecdc   __ERM_vOnCk5050PowerOff_Cb
000342b8   __ERM_vPrintTableSize
0008a344   __ERM_vStartUartSupervision
0008a354   __ERM_vStopUartSupervision
00034838   __ERM_vUpdateCANBTConnectionState
00042dd0   __KPB_bGetVisbilitySetOnOff
00042dcc   __KPB_cbStartASGSupervision
0006da80   __KPB_sfBapSendFrameData
0006d940   __KPB_sfBapSendFrameDataEmpty
0006d058   __KPB_sfParseBapIndication
0006d630   __KPB_vBapSendAsgCapabilities
0006d6a8   __KPB_vBapSendAsgConfig
0006d804   __KPB_vBapSendFrameStatus
0006d748   __KPB_vBapSendLsgStatus
0006d784   __KPB_vBapSendMflBlockDefinition
0006d5f4   __KPB_vBapSendOperationState
0006d8b0   __KPB_vBapSendScrollBar
00041fec   __KPB_vChangeAsgState
00042174   __KPB_vSetAsgAvailable
0008d47c   __KPB_vStartAsgSupervision
0008d4c0   __KPB_vStartFrameDataAckTimer
0008d4a4   __KPB_vStopAsgSupervision
0008d4d0   __KPB_vStopFrameDataAckTimer
0002fb68   __NetworkOperatorCodeIsVerizonOrAlltelOrSprint
0008bd68   __PHY_BUT_DRV_enGetState_3BM
0007d0cc   __PHY_BUT_DRV_enGetState_Cradle
0040ba2c   __SDS_UDS_au8FingerprintValue
0040ba34   __SDS_UDS_au8ProgrammingDate
0040a43e   __SDS_UDS_bResetOfAdaptionValuesState
0006e118   __SDS_UDS_bResetOfAdaptionValuesStatus
0040b1fd   __SDS_UDS_bStopCommunicationMessages
0040a380   __SDS_UDS_stRequestPacketFromVas
0040a2c2   __SDS_UDS_stResponsePacketToVas
0040a444   __SDS_UDS_u16TimerBasicSettings
0006e194   __SDS_UDS_u8GetStatusBasicSettings
0040b1fe   __SDS_UDS_u8ResetToFactory
0040a442   __SDS_UDS_u8Service31_BasicSettingsStatus
0040a2c0   __SDS_UDS_u8UserProfile
000790e0   __SDS_UDS_ubChecksumStatus
0006e124   __SDS_UDS_vResetOfAdaptionValues
000788d0   __SDS_UDS_vService2F_CallApp_Diag
0003ddec   __VCR_PlayError
0003b1c8   __VCR_bCheckLangChangeReq
0003b6c8   __VCR_bFCheckMDINeedToBePaused
0003dfb4   __VCR_bGetMusicMenuAvailable
0003dfe0   __VCR_bGetSmsMenuAvailable
0003e048   __VCR_bGetVoiceFeedback
0003b1c0   __VCR_bNumberOrCallStackAvail
0040ab15   __VCR_eDefaultLanguage
0003b0d8   __VCR_eGetDefaultReqLanguage
0003b0e4   __VCR_eSetDefaultReqLanguage
0003e08c   __VCR_eUserPhonebookStatusGet
0040964a   __VCR_gData
0003bdf8   __VCR_sFBuildPrompt
0003ba1c   __VCR_sFCheckResultAvailable
000621c4   __VCR_sFHandleEvent
0003e534   __VCR_sFHandleResult
0003f8b4   __VCR_sFMessageToBeSend
0003b6e4   __VCR_sFProcResultsUnique
00073be8   __VCR_sfHandleBluetoothOptionsEvent
00073e40   __VCR_sfHandleBluetoothPinCorrectEvent
00073cc0   __VCR_sfHandleBluetoothPinEvent
0004d6fc   __VCR_sfHandleCallBackSMSConfirmEvent
0004cd1c   __VCR_sfHandleCallStackOptionsEvent
0004ce50   __VCR_sfHandleCallStackResetConfirmEvent
0004c76c   __VCR_sfHandleCallStacksEvent
0004b9e0   __VCR_sfHandleCallbackMissedCallsEvent
00086d28   __VCR_sfHandleDeleteAllVTConfirmEvent
0004d5d0   __VCR_sfHandleDeleteSMSConfirmEvent
0004a128   __VCR_sfHandleDialNameConfCatEvent
00049b24   __VCR_sfHandleDialNameConfEvent
0004a440   __VCR_sfHandleDialNameResAmbiEvent
0004af48   __VCR_sfHandleDialNumberCorrectEvent
0004abd8   __VCR_sfHandleDialNumberEvent
0007378c   __VCR_sfHandleMoreOptionsEvent
0008ad64   __VCR_sfHandleMusicEvent
0004c020   __VCR_sfHandlePlayAddressbookEntryEvent
0004bd08   __VCR_sfHandlePlayAddressbookEvent
0004c3f8   __VCR_sfHandlePlayAddressbookOptionsEvent
0004c908   __VCR_sfHandleReadCallStacksEvent
0004cf64   __VCR_sfHandleReadSMSEvent
0004d434   __VCR_sfHandleReadSMSOptionsEvent
0004dc9c   __VCR_sfHandleResetNameConfirmEvent
0004b58c   __VCR_sfHandleResolveMultipleNumCatEvent
00073ae0   __VCR_sfHandleRestoreFactorySettingsEvent
00073910   __VCR_sfHandleSettingsEvent
0004d888   __VCR_sfHandleStorenameEvent
00086fd8   __VCR_sfHandleVoiceMemosConfDeleteAllEvent
00086f94   __VCR_sfHandleVoiceMemosConfDeleteEvent
00086ec8   __VCR_sfHandleVoiceMemosEvent
00086f0c   __VCR_sfHandleVoiceMemosPlayEvent
00086f50   __VCR_sfHandleVoiceMemosPlayOptionsEvent
0003b01c   __VCR_sfInitMenuValues
0003b068   __VCR_sfInitMsgResultValues
0003b044   __VCR_sfInitResultValues
0003e008   __VCR_sfSetVoiceFeedback
0004ada0   __VCR_u8GetSumLengthDBlocks
000405cc   __VCR_vASRGetPbInfo
0003b440   __VCR_vCancelGotoMain
0003b3f8   __VCR_vCancelStopFor3rdError
0003b360   __VCR_vChangeMenuToIdle
0003b3b8   __VCR_vChangeMenuToMain
0003b38c   __VCR_vChangeState
0003f798   __VCR_vCheckAndSendATMessage
0003b5f4   __VCR_vConnectPrompt
0003b63c   __VCR_vConnectPromptCategory
0004add8   __VCR_vDebugDBlocks
0003b4c0   __VCR_vFunctionNotAvailableMain
0003b47c   __VCR_vFunctionNotAvailableStop
0003b5b0   __VCR_vFunctionNotSupportedStop
0003e348   __VCR_vHandleErmOkErrorEvent
0003e2f4   __VCR_vInitLanguageData
0003e2e4   __VCR_vInitMsgCtrlData
0003af14   __VCR_vInitStateData
0003df04   __VCR_vNotifyApplication
0003b4fc   __VCR_vNumberNotAvailableMain
0003b570   __VCR_vPhoneNotAvailableStop
00040230   __VCR_vPrepareASRCmdMessage
00049aa8   __VCR_vRedial
00074104   __VCR_vResetNotRecogCmdErrFlags
000407a4   __VCR_vSendASRMessage
0003b9d8   __VCR_vSendCmdToMainEventHandler
0003b968   __VCR_vSendTriggerToMainEventHandler
0003b0bc   __VCR_vSetCK5050Available
0003e334   __VCR_vSetRequiredLanguage
0003b6ac   __VCR_vSinglePrepare
0003b684   __VCR_vSinglePrompt
0003b538   __VCR_vSmsDeletedMain
0003df50   __VCR_vStartSupervision
0003df8c   __VCR_vStopSupervision
0003b0fc   __VCR_vSystemStopToIdle
0003b3d4   __VCR_vT1SorryRepeat
ffffffff   ___binit__
00400004   ___bss__
ffffffff   ___c_args__
0009422c   ___cinit__
00000000   ___data__
00000000   ___edata__
0040bc02   ___end__
0008db00   ___etext__
ffffffff   ___pinit__
00008124   ___text__
00093b7c   __ctypes_
0005c864   __printfi
0008d374   _atoi
0008bc14   _c_int00
0040b788   _canMsgStates
0040b624   _canRDSRxPtr
0040b628   _canRDSTxPtr
0040b5b0   _canRxHandle
0040b5a0   _canRxInfoStruct
0040b5f4   _canTempCanObj
0040b604   _canTempPreTransmitObj
00093dac   _charSet_alphaNumeric
00093d78   _charSet_digitDial
00093d94   _charSet_dtmf
00093da0   _charSet_passkey
00093d88   _charSet_voiceMail
00093de4   _controlSet_alphaNumeric
00093dd4   _controlSet_digitDial
00093ddc   _controlSet_dtmf
00093de0   _controlSet_passkey
00093dd8   _controlSet_voiceMail
00091538   _crc32tab
00091938   _cs_ReadDataIdItem
0040b7bd   _cshdlCANState
0040b7be   _cshdlCK5050State
0040b7d8   _cshdlCanSignalInfo
0040b7bc   _cshdlGesamtSystemState
0005f59c   _ctaBtTimeout_cb
0002f51c   _ctaERMStopJingle_cb
00074ad0   _disableint
0040a238   _eReadInProgress
fff7f000   _e_ADC0_ST
fff7e400   _e_CAN0_MB_PST
fff7e800   _e_CAN0_ST
fff7e600   _e_CAN1_MB_PST
fff7ea00   _e_CAN1_ST
fff7d200   _e_CAN2_MB_PST
fff7d000   _e_CAN2_ST
fffff800   _e_DMACP_PST
fffffe80   _e_DMA_ST
fff7ec00   _e_GIO_ST
fff7fc00   _e_HET0_ST
00800000   _e_HETPROGRAM0_UN
ffffff20   _e_SARCIM_ST
fff7f400   _e_SCI0_ST
fff7f500   _e_SCI1_ST
fff7f800   _e_SPI0_ST
fff7d400   _e_SPI1_ST
fff7d500   _e_SPI2_ST
fff7d600   _e_SPI3_ST
fff7d700   _e_SPI4_ST
0040bb1c   _errno
0040b8bc   _firstCANframe
0040b694   _gAppDeviceContext
0040bb02   _gAppMdiBapContext
0040a640   _gAppMdiContext
0040a7d0   _gAppMdiJobTable
0040b630   _gAppPBBapContext
00408fb8   _gAppPBContext
0040b6ec   _gAppPhoneBapContext
0040b2cc   _gAppPhoneContext
004081c4   _gAppSdContext
0040ab18   _gAppSmsContext
0040b7f8   _gAudioManagerContext
00408880   _gFrameData
00406708   _gKpbContext
00406750   _gKpbFrameBuffer
00406bf6   _gKpbLastFrameDataSent
0040a460   _gListBuffer
00093de8   _gSpellConfig
0008893c   _getEEAppTaskControl
0008d124   _getEEDBControl
00089e54   _getEEHostControl
0008c304   _getEEMonitorControl
0008b33c   _isOsStarted
00093fa2   _kCanBugFixVersion
00093fa0   _kCanMainVersion
00093fa1   _kCanSubVersion
0009261e   _kGenBugfixVersion
0009261c   _kGenMainVersion
0009261d   _kGenSubVersion
00094224   _kNmMainVersion
00094226   _kNmReleaseVersion
00094225   _kNmSubVersion
00094220   _kOnmxMainVersion
00094222   _kOnmxReleaseVersion
00094221   _kOnmxSubVersion
0040a447   _logBlockState
0008d3f8   _ltoa
0040bb54   _mASR0_Status
0040bb4c   _mASR1_TypeInfo
0040bb44   _mASR2_String0
0040bb3c   _mASR3_String1
0040bb34   _mASR4_String2
0040bb2c   _mASR5_String3
0040bb96   _mASR6_Param_Request
0040bb8e   _mASR7_Param_Feedback
0040bbde   _mAirbag_1
0040bbc9   _mBSG_2
0040bbc8   _mBSG_3
0040bbd2   _mBSG_Kombi
0040bba7   _mDiagnose_1
0040bbcf   _mGW_Kombi
0040bbb7   _mGateway_3
0040bbd9   _mLSM_1
0040bbc0   _mMFL_Tasten
0040bba6   _mRadio_4
0040bbaf   _mSollverbau_neu
0040bbb9   _mSysteminfo_1
0040bb77   _mTelefon_3
0008dafc   _main
0008da60   _memccpy
0008d97c   _memcmp
0008d084   _memset
0040b780   _missedMessages
0009207c   _msgAppCanStates
0009208c   _msgAppDiagDiagnoseRequest
00407b8e   _msgAppDiagDiagnoseRequestUsrData
00092088   _msgAppDiagDiagnoseResponse
00407ad0   _msgAppDiagDiagnoseResponseUsrData
0009209c   _msgAppTaskSystemStates
000920a0   _msgApplATResponse
00092058   _msgButtonStateInfo
0040798c   _msgButtonStateInfoUsrData
00092090   _msgButtonStateInfo_Mfl
00092078   _msgCANInfotainmentInfo
00092098   _msgHostTaskASRStatus
00407c84   _msgHostTaskASRStatusUsrData
00092080   _msgKpbBapIndication
00092084   _msgKpbBapRequest
00407ac4   _msgKpbBapRequestUsrData
0009206c   _msgMdiBapIndication
00092070   _msgMdiBapRequest
00407a60   _msgMdiBapRequestUsrData
0009205c   _msgPhoneBapIndication
00092060   _msgPhoneBapRequest
004079d0   _msgPhoneBapRequestUsrData
00092064   _msgPhoneBookBapIndication
00092068   _msgPhoneBookBapRequest
00407a18   _msgPhoneBookBapRequestUsrData
00092074   _msgPwrmgrState
00407a6c   _msgPwrmgrStateUsrData
00092094   _msgTelefonStates
00407c60   _msgTelefonStatesUsrData
0040ba84   _nmSendMess
0008cd78   _osAbortSystem
0007c9e0   _osActivateTask
0040b934   _osActiveTaskIndex
0040b930   _osActiveTaskPrio
004055d8   _osAlarmActivated
00405678   _osAlarmCycleTime
0040560c   _osAlarmHeap
0040b948   _osAlarmHeapCount
00405508   _osAlarmTime
0008cd9c   _osAssertFailed
00084340   _osCancelAlarm
0007cce4   _osChainTask
0008ce70   _osCheckInterruptsDisabled
0008ce5c   _osCheckInterruptsEnabled
000826c8   _osClearEvent
0008d54c   _osComResourcesAreTaken
000872b8   _osDataAbort
000783ec   _osDefVectWarning
000870b8   _osDirectSWIDispatcher
0008ceac   _osDisableGlobal
0008ce84   _osDisableLevel
000870bc   _osDispatcher
0008cec0   _osEnableGlobal
0008ce98   _osEnableLevel
0040b947   _osErrorFlag
0008cdb0   _osErrorHook
000872bc   _osFIQ
00078328   _osFillSystemStack
00084060   _osGetAlarm
00083fec   _osGetAlarmBase
00082778   _osGetEvent
00080404   _osGetMessageResource
0008048c   _osGetMessageStatus
000869dc   _osGetResource
00078354   _osGetStackUsage
000783b8   _osGetSystemStackUsage
0007cf6c   _osGetTaskID
0007cfbc   _osGetTaskState
0040b936   _osHighReadyTaskIndex
0040b932   _osHighReadyTaskPrio
0000810c   _osIRQHandler
00084fd8   _osInitAlarms
0008c6fc   _osInitISRprios
0008c608   _osInitTimer
00084dd0   _osInsertMinHeap
0040b93e   _osIntAPIStatus
0040b939   _osIntNestingDepth
0040b93a   _osIntSaveDisableCounter
0040b94f   _osIntSaveDisableCounterGlobal
0008d500   _osInternalStartCOM
00405970   _osIrqStack
0040b93c   _osLastActiveTaskIndex
0040b94a   _osLastError
0040b94c   _osLastErrorCode
0040b944   _osLockDispatcher
0008002c   _osMemCpy2
0008ce1c   _osMissingTerminateError
000785b0   _osOccupyInternalResource
0008b464   _osPreTaskHook
000872b4   _osPrefetchAbort
00405764   _osQReadyPrios
00405748   _osQReadyTask
00080274   _osReceiveMessage
00080450   _osReleaseMessageResource
00086b7c   _osReleaseResource
00084e44   _osRemoveItemMinHeap
004057a0   _osResActualTask
0040b93f   _osResGlobalOccupationCounter
00405798   _osResOccupationCounter
00405788   _osResSavedPrio
0007841c   _osRestoreEnableGlobal
00078550   _osRestoreEnableGlobalNested
0008ceec   _osRestoreEnableLevel
00078498   _osRestoreEnableLevelNested
0008055c   _osReturnEOK
00087280   _osSWI
00078404   _osSaveDisableGlobal
000784f4   _osSaveDisableGlobalNested
0008ced0   _osSaveDisableLevel
0007843c   _osSaveDisableLevelNested
0040b94d   _osSavedGlobalInt
0040b94e   _osSavedIntGlobalNested
0040b945   _osSavedIntLevel
0040b946   _osSavedIntLevelNested
0007ce90   _osSchedule
000780ec   _osSchedulePrio
000800ec   _osSendMessage
00084214   _osSetAbsAlarm
00082460   _osSetEvent
00084100   _osSetRelAlarm
0007831c   _osShutdownOS
00078344   _osStackOverflow
000800a8   _osStartCOM
0040b938   _osStartDispatcher
000872c4   _osStartOSasm
00078198   _osStartOSc
000800c8   _osStopCOM
004058a8   _osSupervisorStack
0007cb14   _osSysActivateTask
000825c8   _osSysSetEvent
0040b940   _osSystemCounter
004057e0   _osSystemStack
0007834c   _osSystemStackOverflow
00405aec   _osTaskStack0
00405cb8   _osTaskStack1
00406294   _osTaskStack2
00406384   _osTaskStack3
00406514   _osTaskStack4
00406640   _osTaskStack5
00405770   _osTcbSP
004057c8   _osTcbSetEventMask
00405768   _osTcbTaskState
004057b0   _osTcbWaitEventMask
0007cbec   _osTerminateTask
0008c694   _osTimerInt
0008727c   _osUndefInstruction
0008ce24   _osUnhandledException
000872c0   _osUnhandledExceptionWrapper
00082810   _osWaitEvent
00084f08   _osWorkAlarms
00090ea4   _oskAlarmAction
00091078   _oskAlarmAutoStart
00090dd4   _oskAlarmCallback
00090bbc   _oskAlarmDefinitions
00090d04   _oskAlarmEvent
00090c9c   _oskAlarmTask
00090c4c   _oskResAccessMask
00090c6c   _oskResCeilingPrio
00090c7c   _oskResCeilingPrioMask
00090fa8   _oskStaticAlarmCycleTime
00090ed8   _oskStaticAlarmTime
00090c20   _oskTcbAutoStart
00090c40   _oskTcbHomePrio
00090c28   _oskTcbReadyPrioMask
00090be0   _oskTcbStackBottom
00090bc8   _oskTcbStackTop
00090c18   _oskTcbTaskFlags
00090c10   _oskTcbTaskPreemption
00090bf8   _oskTcbTaskStartAddress
0009417c   _oskVersionVariant
0040ba6c   _pVersionInfo
0040a7f8   _parserRxMsgBuffer
0040a988   _parserRxMsgCount
0040546c   _poolGenControl
0040ba72   _psDummyVersionInfo
00400000   _r_F_REQUEST
00407e0b   _recAPP_CAN_MsgStates
0007f5bc   _resetCRCValueForAddress
00008000   _resetISR
00074ad4   _restoreint
0040b90c   _s_TpVars
0006df84   _sdsMemCpy
0008c704   _snprintf
0008d1c4   _sprintf
fffffe00   _stAddrMan
fffffd00   _stMmc
ffffff00   _stRti
ffffffd0   _stSys
0008da38   _strchr
0008da0c   _strcmp
0008dac4   _strlen
0008d944   _strncmp
0008d8c0   _strncpy
0008d9e0   _strrchr
0008a3e0   _strtoul
0040b2c0   _u8DTC_Maskierung
0040a446   _u8PhoneNumberLength
0040a240   _u8Service86DataValues
0040a244   _u8Service86DataValuesDTC
0040a23f   _u8Service86DataValuesInitStatus
0040bb18   _u8_HighSpeedBarringOn
00086358   _ubCheckKeyValid
0040ba40   _ubCounterResponseFromAppTask
0040a23e   _ubResponseFromAppTask
0040a23d   _ubSecState
0040ba3e   _ub_RequestPending
0040a448   _ub_RequestPending22
0040a23a   _uwBufSize
0040bb1a   _vehicleSpeed
0040b77a   _wakeupReason
0040b8a4   _zeroString
ffffffff   binit
0009422c   cinit
00000000   edata
0040bc02   end
0008db00   etext
00008080   osIRQTable
ffffffff   pinit


GLOBAL SYMBOLS: SORTED BY Symbol Address 

address    name
--------   ----
00000000   edata
00000000   ___data__
00000000   ___edata__
00000000   .data
00008000   _resetISR
00008080   osIRQTable
0000810c   _osIRQHandler
00008124   ___text__
00008124   _APP_SD_bHapticalInterfaceAvailable
00008124   .text
00008128   _APP_SD_sfInitApp
000081d8   _APP_SD_vDiagLanguagesChanged
0000881c   __APP_SD_vEventManager
000089f4   __APP_SD_sfGetNextEvent
00008ae8   _APP_SD_vHandleEvents
0000d9bc   __APP_SD_bHandleButtonS521
00014454   __APP_SD_vInitFrameSC24
0001a318   _APP_SD_u8GetContextId
0001a328   _APP_SD_vSetVcrIsActive
0001a33c   _APP_SD_vListDataRequest
0001d4bc   __APP_SD_vListDataRequest_S104_Cb
0001d6a0   __APP_SD_vListDataRequest_S105_Cb
0001d8a8   __APP_SD_vListDataRequest_S211_Cb
0001da70   __APP_SD_vListDataRequest_S404_Cb
0001dba4   __APP_SD_vListDataRequest_S515_Cb
0001dcf8   __APP_SD_vListDataRequest_SC01_Cb
0001de24   __APP_SD_vInitPendingS105_Cb
0001defc   __APP_SD_vInitPendingS117_Cb
0001e07c   __APP_SD_vInitPendingS212_Cb
0001e184   __APP_SD_vInitPendingS213_Cb
0001e28c   __APP_SD_vInitPendingS405_Cb
0001e36c   __APP_SD_vInitPendingS306_Cb
0001e4d8   __APP_SD_vInitPendingS406_Msg_Cb
0001e5a0   __APP_SD_vInitPendingS406_MarkAsRead_Cb
0001e624   __APP_SD_vInitPendingS407_Cb
0001e668   __APP_SD_vInitPendingS517_Cb
0001e6b4   __APP_SD_vInitPendingS520_Cb
0001e718   __APP_SD_vInitPendingS581_Cb
0001e77c   __APP_SD_vInitPendingS669_Cb
0001e804   __APP_SD_vInitPendingS801_ReqNumber_Cb
0001e914   __APP_SD_vInitPendingS801_Dial_Cb
0001e968   __APP_SD_vInitPendingS945_Dial_Cb
0001e9c0   __APP_SD_vInitPendingSC12_Cb
0001ebbc   __APP_SD_vInitPendingSC13_Cb
0001ec30   __APP_SD_vButtonPendingS104_Cb
0001ee74   __APP_SD_vButtonPendingS104_Cb2
0001eedc   __APP_SD_vButtonPendingS306_Cb
0001ef68   __APP_SD_vButtonPendingS413_Cb
0001efa4   __APP_SD_vButtonPendingS642_Cb
0001efd0   __APP_SD_vButtonPendingS512_Cb
0001f028   __APP_SD_vButtonPendingS515_Cb
0001f084   __APP_SD_vButtonPendingS51D_Cb
0001f0dc   __APP_SD_vButtonPendingS520_Cb
0001f118   __APP_SD_vButtonPendingS522_Cb
0001f174   __APP_SD_vButtonPendingS52C_Cb
0001f1d4   __APP_SD_vButtonPendingS933_Cb
0001f244   __APP_SD_vButtonPendingS556_Cb
0001f290   __APP_SD_vButtonPendingS563_Cb
0001f2e8   __APP_SD_vButtonPendingS572_Cb
0001f3bc   __APP_SD_vButtonPendingS536_Cb
0001f40c   __APP_SD_vButtonPendingS575_Cb
0001f464   __APP_SD_vButtonPendingS581_Cb
0001f4b4   __APP_SD_vButtonPendingS661_Cb
0001f4fc   __APP_SD_vButtonPendingS669_Cb
0001f54c   __APP_SD_vButtonPendingS812_Cb
0001f5a4   __APP_SD_vButtonPendingSC13_Cb
0001f5f4   __APP_SD_vButtonPendingSC24_Cb
0001f648   __APP_SD_vInitPendingS408_Cb
0001fd28   _APP_SD_vFrameDataTransfered
0001fd74   _APP_SD_vOnAppCanLangNotification
0001fd9c   _APP_SD_vOnAppCanSpeedNotification
0001fdd0   _APP_SD_vOnAppPhoneNotification
0001fe88   _APP_SD_vOnAppCshdlNotification
0001ff04   _APP_SD_vOnAppPhoneBookNotification
0001ffac   _APP_SD_vOnAppSmsNotification
0001fff8   _APP_SD_vOnErmNotification
000200ac   _APP_SD_vOnVcrNotification
00020178   _APP_SD_vOnAppDeviceNotification
000201e8   _APP_SD_vOnKpbNotification
0002026c   _APP_SD_vOnMflButton
000203e4   _APP_SD_cbFrameTimeout
0002041c   __APP_SD_AddUserProfile_Cb
000204d0   __APP_SD_AddHeadsetProfile_Cb
00020500   __APP_SD_HandlePendingButtonS542_Cb
00020598   __APP_SD_AddPlayerProfile_Cb
00021108   __APP_SD_vSetCtxHistoryState
000211ac   __APP_SD_bIsKl15On
000211dc   _APP_SD_bIsIdleScreenActive
00021298   _APP_SD_bIsCallScreenActive
000212f8   _APP_SD_sfGetTextForNumberType
00021a60   __APP_SD_setPlayerVisibleIfEncoded
00021ab0   _APP_SD_getCurrentCtx
00021ac8   __APP_SD_bRemoteControlAvailable
00021b14   __APP_SD_bIsA2dpAlreadyForUserProfileStarted
00021b88   __APP_SD_bCurrentFrameStaysActiveWhenNotInPhoneContext
00021d18   __APP_SD_blastRingtonestate
00021d28   __APP_SD_vnotifiedRingtonestate
00021e9c   __APP_SD_FB_sfSendAndActivateFrame
0002b784   __APP_SD_FB_vPresReqOff
0002b7b4   _ERM_Startup
0002b7e0   _ERM_sysPerfResetStartUpEventTraceDone
0002b7ec   _ERM_Shutdown
0002b89c   _ERM_Shutdown_BTUpdate
0002b93c   _ERM_vCb3BM_BTVisibility
0002b970   _ERM_BTVisibilityBarringOn
0002b994   _ERM_vBTVisibilityOff
0002b9b4   _ERM_FlashErase
0002b9fc   _ERM_enGetBTAddress
0002ba38   _ERM_rcResetToFactorySetting
0002ba5c   _ERM_sFSetBluetoothSetPINCode
0002bafc   _ERM_sFSetBluetoothSetPINCodeDiagnose
0002bb40   _ERM_rcBTSWUpdateCK5050
0002bb64   _ERM_rcSetConnectionAuthorization
0002bb88   _ERM_sFSetUniversalPreparationForMobileTelephone
0002bc08   _ERM_sFSetBluetoothAcknowledgementSignal
0002bc30   _ERM_bGetBTAckSignalActive
0002bc3c   _ERM_sFSetReferenceChannelDelay
0002bcb4   _ERM_eSetTelephoneBasicVolumeComm
0002bd3c   _ERM_eSetTelephoneBasicVolumeAlc
0002bdd8   _ERM_eSetVoiceOutputBasicVolume
0002be24   _ERM_eSetMediaDeviceBasicVolume
0002bebc   _ERM_eSetActiveDeviceRingtone
0002bf20   _ERM_ePlayRingtone
0002bfbc   _ERM_eSetActiveDeviceRingtoneAlternate
0002c020   _ERM_rcStartInquiry
0002c068   _ERM_rcCancelInquiry
0002c098   _ERM_rcGetInquiryResult
0002c140   _ERM_rcInitiatePairing
0002c1c8   _ERM_rcAcceptPairing
0002c26c   _ERM_rcRejectPairing
0002c2e4   _ERM_rcStopPhoneService
0002c324   _ERM_rcStartPhoneService
0002c364   _ERM_rcStopPlayerAvrcpService
0002c3a4   _ERM_rcStartPlayerAvrcpService
0002c3e4   _ERM_rcStopPlayerA2dpSinkService
0002c424   _ERM_rcStartPlayerA2dpService
0002c464   _ERM_rcStopHeadsetService
0002c4a4   _ERM_rcStartHeadsetService
0002c4e4   _ERM_rcConnectDevice
0002c524   _ERM_rcDisconnectDevice
0002c58c   _ERM_rcDeactivatePhoneServiceAutoConn
0002c5bc   _ERM_rcSetAutoConnMode
0002c60c   _ERM_rcDeleteDevice
0002c64c   _ERM_rcSetPlayCallerNameMode
0002c68c   _ERM_rcUpdatePlayerActiveProfileList
0002c6b4   _ERM_rcUpdateHeadsetActiveProfileList
0002c6dc   _ERM_rcUpdatePhoneActiveProfileList
0002c834   _ERM_rcAddUserProfile_InEeprom
0002c9b0   _ERM_rcDeleteUserProfile_InEeprom
0002caec   _ERM_rcAddHeadsetProfile_InEeprom
0002cb0c   _ERM_rcAddPlayerProfile_InEeprom
0002cc98   _ERM_rcDeletePlayerProfile_InEeprom
0002cca0   _ERM_rcDeleteHeadsetProfile_InEeprom
0002ce08   _ERM_rcSetVoiceMailboxNumber_InEeprom
0002cea4   _ERM_rcSetRingtoneAlternate_InEeprom
0002cf44   _ERM_rcSetUserAssociatedPlayer_InEeprom
0002d008   _ERM_rcSetUserAssociatedHeadset_InEeprom
0002d0b8   _ERM_rcSetRingtone_InEeprom
0002d14c   _ERM_rcChangeDeviceName_InEeprom
0002d1dc   _ERM_rcSetPbCompletelyLoaded_InEeprom
0002d268   _ERM_rcSetAudioMode_InEeprom
0002d308   _ERM_rcChangeNumVoiceTagsForActiveUser_InEeprom
0002d3d4   _ERM_rcResetNumVoiceTagsForActiveUser_InEeprom
0002d48c   _ERM_enGetActiveUserAudioMode
0002d4a4   _ERM_rcSetPlayerAuthMode_InEeprom
0002d4b4   _ERM_rcSetHeadsetAuthMode_InEeprom
0002d580   _ERM_eSetMicrophoneSensitivity
0002d5f8   _ERM_rcGetCKSWVersionString
0002d62c   _ERM_rcGetPF_CodeString
0002d660   _ERM_rcGetBtChipVersion
0002d690   _ERM_pGetSspRequest
0002d69c   _ERM_pGetPairRequest
0002d6a4   _ERM_bIsSSPActive
0002d6c4   _ERM_rcSendSSPSupportedRequest
0002d70c   _ERM_eTestSetMicAdcMode
0002d764   _ERM_eTestSetMicAdcGain
0002d7cc   _ERM_eTestSetLoopback
0002d820   _ERM_eSetAudioLoopTest
0002d870   _ERM_eSetAudioChannel
0002d8d8   _ERM_eGetExtRevision
0002d8fc   _ERM_bPhoneAvailable
0002d91c   _ERM_enIsVcrSupported
0002d974   _ERM_u8GetTotalInquiryResult
0002d984   _ERM_u8GetInquiryResult
0002d9c4   _ERM_pGetPgirContext
0002d9f4   _ERM_GetBTPinCodeAsChar
0002da4c   _ERM_Manager
0002df08   _ERM_vHandleATResponse
0002e328   __ERM_vEepromWriteFinished_Cb
0002e5a8   _ERM_ReleaseUartForTel
0002e5b0   _ERM_ReleaseUartForVCR
0002e5b8   _ERM_ReleaseUartForMDI
0002e5c0   _ERM_ReleaseUartForDevice
0002e5c8   _ERM_ReleaseUartForSMS
0002e5d0   _ERM_ReleaseUartForPhonebook
0002e5d8   _ERM_ReleaseUartForErm
0002e5e0   _ERM_GetUartForERM
0002e5e8   _ERM_GetUartForTel
0002e5f0   _ERM_GetUartForVCR
0002e5f8   _ERM_GetUartForMDI
0002e604   _ERM_GetUartForSMS
0002e60c   _ERM_GetUartForPhonebook
0002e614   _ERM_GetUartForDevice
0002e620   _ERM_CheckUartOwnership
0002e648   _ERM_GetCK5050SWVersion
0002e9a8   __ERM_vChangeState
0002ea38   _ERM_bIsStartupDone
0002eab8   _ERM_vOnAppMdiNotification
0002eac0   _ERM_vOnAppDeviceNotification
0002eb4c   _ERM_vOnVcrNotification
0002eb64   _ERM_vOnPhonebookNotification
0002eba4   _ERM_vOnAppPhoneNotification
0002ec08   _ERM_vOnAppCshdlNotification
0002ecc0   __ERM_cbGetOperaterDelay
0002ecdc   __ERM_vOnCk5050PowerOff_Cb
0002ed2c   _ERM_enGetBluetoothUpdateRequest
0002ed38   _ERM_u8GetBluetoothUpdateActive
0002edbc   _ERM_vBluetoothUpdateStateMachine
0002f23c   _ERM_vBluetoothUpdateProcessCK5050Status
0002f2b8   _ERM_vOnErmNotification
0002f51c   _ctaERMStopJingle_cb
0002f528   _ERM_vBluetoothUpdateSecurityCheck
0002fad0   _ERM_GetJingleState
0002fae4   _ERM_cbMuteGetAck
0002fb2c   _ERM_vSetDeviceTypeForPairing
0002fb68   __NetworkOperatorCodeIsVerizonOrAlltelOrSprint
0002fcd4   _ERM_bIsCDMAPhone
0002fd0c   __ERM_ForceDisconnect_Cb
0002fd74   _ERM_set_AutoConnectionMode
0002fd88   _ERM_uGetLastExtendedErrorCode
0002fd94   _ERM_cbPauseSuhutdownDelaytimeOut
0002ff08   __ATParser_FirstToken
0002ff68   __ATParser_OtherToken
00030004   __ATParser_u8GetFromAsciiAndCheck
00030024   __ATParser_GetDeviceAndValue
0003008c   __ATParser_ExtPlpdInfo
00030248   __ATParser_ExtPlccInfo
00030718   __ATParser_ExtPwng
000307b8   __ATParser_ExtPindVal
000308f0   __ATParser_ExtPindSup
000309e8   __ATParser_ExtPievInfo
00030b20   __ATParser_sfExtPsprInfo
00030c20   __ATParser_sfExtPsspInfo
00030d38   __ATParser_sfExtPbsfInfo
00030df4   __ATParser_ExtPbcd
00030ec0   __ATParser_ExtPmrdNum
00030f6c   __ATParser_ExtPmrdMsg
00031020   __ATParser_ExtPmsdexMsg
0003108c   __ATParser_ExtPpbp
0003113c   __ATParser_ExtPpbr
0003136c   __ATParser_ExtPbsc
00031464   __ATParser_ExtPgmt
000314d0   __ATParser_ExtPbsn
00031564   __ATParser_ExtPamu
000315d4   __ATParser_ExtPsbd
00031654   __ATParser_ExtDgps
000317d4   __ATParser_ExtDged
000318a8   __ATParser_ExtPasa
00031900   __ATParser_ExtPcms
00031958   __ATParser_ExtRscl
000319f8   __ATParser_ExtRsrf
00031a6c   __ATParser_ExtRgsl
00031b44   __ATParser_ExtRres
00031d6c   __ATParser_ExtPprs
00031e64   __ATParser_ExtPalgoselect
00031ebc   __ATParser_ExtMicGain
00031f14   __ATParser_ExtPalgoAEC
00031f88   __ATParser_ExtVolumeSet
000320b4   __ATParser_ExtPalgoSetMic
0003210c   __ATParser_ExtDeviceId
00032174   __ATParser_ExtDeviceIdType
000321fc   __ATParser_ExtPairingDeviceIdType
0003229c   __ATParser_ExtLastName
00032324   __ATParser_ExtLastCallerID
000323ac   __ATParser_ExtName
00032468   __ATParser_ExtCallerID
00032548   __ATParser_sFExtUnquotedString
000325ec   __ATParser_sFExtQuotedLeftPosition
00032720   __ATParser_sFExtLastQuotedString
000327a4   __ATParser_sFExtQuotedString
00032870   __ATParser_ExtLastBTAddress
000328d8   __ATParser_ExtBTAddress
00032940   __ATParser_ExtLastCoD
000329ac   __ATParser_ExtCoD
00032a18   __ATParser_ExtSSPPin
00032a8c   __ATParser_ExtLastSupport
00032ad8   __ATParser_ExtSupport
00032b30   __ATParser_ExtLastBool
00032b7c   __ATParser_ExtBoolSpecial
00032be0   __ATParser_ExtBool
00032c3c   __ATParser_ExtCallState
00032c94   __ATParser_sFExtPNTypeSpecialValue
00032d08   __ATParser_sFExtLastPNTypeValue
00032d4c   __ATParser_sFExtPNTypeValue
00032dd0   __ATParser_sFExtu8RangeValue
00032e50   __ATParser_sFExtu16RangeValue
00032ec4   __ATParser_sFExtLastu32RangeValue
00032f20   __ATParser_sFExtu32RangeValue
00032f8c   __ATParser_sFExtMicAlgoValue
00033008   __ATParser_sFExtPairingResultValue
00033088   __ATParser_sFExtSIVRCmdValue
0003310c   __ATParser_sFExtSIVRResultValue
00033188   __ATParser_sFExtSIVRPromptValue
000331e8   __ATParser_sFExtSIVRLanguageValue
00033268   __ATParser_sFExtAutoConnStatusValue
000332e4   __ATParser_sFExtASourceActStateValue
00033364   __ATParser_sFExtEntryFieldMaskValue
000333e4   __ATParser_sFExtDeviceplayerCodedValue
00033464   __ATParser_sFExtDeviceStatusValue
000334e8   __ATParser_sFExtBTServiceValue
00033568   __ATParser_sFExtBTServiceResultValue
000335e4   __ATParser_sFExtMetadataTypeValue
00033660   __ATParser_sFExtATSupportedValue
000336dc   __ATParser_sFExtKeyRangeValue
0003375c   __ATParser_sFExtDiscoverModeValue
000337d8   __ATParser_sFExtSIVREngStatusValue
0003385c   __ATParser_sFExtRintoneModeValue
000338dc   __ATParser_sFExtCodProfileValue
0003395c   __ATParser_sFExtVTResultValue
000339dc   __ATParser_CheckNumberParam
00033a84   __ATParser_ExtPbdi
00033c1c   __ATParser_ExtPgir
00033ed0   __ATParser_ExtPprq
000340b0   __ATParser_ExtRstu
00034198   __ATParser_sfExtPbcv
000342b8   __ERM_vPrintTableSize
000342ec   __ERM_vInitTmpEpromData
00034374   _ERM_bDevConnectedOnBtLevel
000343a0   __ERM_vInitActiveProfileList
000343b0   __ERM_vInitPhysicalDeviceTable
000343e8   __ERM_vInitUserProfileTable
0003441c   __ERM_sfSetUserProfileEntryToDefault
00034480   __ERM_vInitPlayerHeadsetProfileTable
000344b4   __ERM_sfSetPlayerHeadsetProfileEntryToDefault
000344dc   __ERM_sfSetPhysicalDeviceEntryToDefault
00034588   __ERM_vInitBTDeviceTable
000345a8   __ERM_sFInitBTDeviceValues
00034674   __ERM_eGetActiveDeviceRingtone
00034698   __ERM_eIntSetActiveDeviceRingtone
000346e0   __ERM_eGetActiveDeviceRingtoneAlternate
00034704   __ERM_eIntSetActiveDeviceRingtoneAlternate
00034730   _ERM_GetActiveBTDeviceId
00034754   _ERM_DeleteDeviceIfPpdeTimeout
00034778   __ERM_sFBTDeviceConnectionUpdate
00034838   __ERM_vUpdateCANBTConnectionState
00034874   __ERM_sFBTSdpUpdate
000348bc   __ERM_sFBTSupportedServiceUpdate
0003494c   __ERM_sFBTFillDeviceInfo
00034a24   __ERM_sFBTDeviceServiceUpdate
00034b3c   __ERM_vNotifyApplication
00034bac   __ERM_vCheckDeviceTable
00034c14   __ERM_sfConsistencyCheck
00034d28   __ERM_OnConsistencyCheckCb
0003542c   __ERM_sfDeleteDevice
00035458   _ERM_GetBTDevice
00035484   _ERM_GetDeviceIdOfUmpteenthPhone
000354f0   _ERM_GetDeviceIdOfUmpteenthHeadset
00035568   _ERM_GetDeviceIdOfUmpteenthPlayer
000355d8   _ERM_u8GetActiveHeadSet
00035628   _ERM_u8GetActivePlayer
00035680   _ERM_u8GetActiveDeviceAVRCP
000356d4   _ERM_u8GetActivePhone
00035718   _ERM_vSetDisconnectWillFollow
00035724   _ERM_bGetDisconnectWillFollow
00035730   _ERM_u8GetLastActiveHeadSet
00035750   _ERM_u8GetLastActivePlayer
0003576c   _ERM_u8GetLastActivePhone
00035798   _ERM_eGetUmpteenthRingtone
00035848   _ERM_GetIndexForRingtone
000358e8   _ERM_u16GetNumberOfRingtones
000358f0   _ERM_GetLastPairedDeviceId
000358fc   _ERM_GetLastServiceDeviceId
00035908   _ERM_GetBTDeviceName
00035914   _ERM_GetDeviceIdOfBtAddr
0003596c   _ERM_u16GetDeviceCount
00035998   _ERM_bIsHeadset
000359d4   _ERM_bIsPlayer
00035a14   _ERM_bIsPhone
00035a50   _ERM_bSdpReceived
00035a80   _ERM_u16GetNumberOfPairedHeadSets
00035ab8   _ERM_u16GetNumberOfHeadsetProfiles
00035af4   _ERM_u16GetNumberOfPairedPlayer
00035b38   _ERM_u16GetNumberOfPlayerProfiles
00035b70   _ERM_u16GetNumberOfPairedPhones
00035ba8   _ERM_u16GetNumberOfUserProfiles
00035bd4   _ERM_bDeviceAlreadyKnownAsHeadset
00035c10   _ERM_bDeviceAlreadyKnownAsPlayer
00035c64   __ERM_sfReadPersistentUserProfile
00035ce8   __ERM_rcWritePersistentUserProfile
00035d74   __ERM_vCopyTmpUserProfileToRam
00035dc0   __ERM_sfReadPersistentPlayerHsProfile
00035e48   __ERM_rcWritePersistentPlayerHsProfile
00035edc   __ERM_vCopyTmpPlayerHsProfileToRam
00035f24   __ERM_sfReadPersistentPhysicalDevice
00035fac   __ERM_rcWritePersistentPhysicalDevice
0003603c   __ERM_vCopyTmpPhyDeviceToRam
000360e0   __ERM_sfReadPersistentActiveProfiles
00036140   __ERM_vCopyTmpActProfileListToRam
0003617c   __ERM_rcWritePersistentActiveProfileList
00036258   __ERM_sfReadPersistentUserList
000362bc   __ERM_bUserListWasInitialized
0003632c   _ERM_bSetDeviceName
000363cc   _ERM_GetLastActiveProfileId
0003641c   _ERM_bPlayerIdIsInphoneList
00036488   _ERM_bMaxVoiceTagsForUserRecorder
00036520   _ERM_pGetDevice
00036538   _ERM_pGetPhyDevice
0003654c   _ERM_pGetUserProfile
00036560   _ERM_pGetUserProfile_DevId
000365a0   __ERM_pGetUserProfileForEdit
000365b4   _ERM_pGetActivePlayerProfile
000365c4   _ERM_pGetActiveHeadsetProfile
000365d4   _ERM_pGetActiveUserProfile
000365e4   _ERM_u8GetUserProfileIndexForDeviceId
00036618   _ERM_pGetPlayerHeadsetProfile
0003662c   _ERM_pGetPlayerHeadsetProfile_DevId
0003666c   _ERM_u8GetPlayerHeadsetProfileIndexForDeviceId
000366a0   _ERM_bMaxNumberOfUserProfilesReached
000366bc   _ERM_bMaxNumberOfPlayerHeadsetProfilesReached
000366ec   _ERM_bMaxNumberOfPlayerProfilesReached
0003670c   _ERM_bMaxNumberOfHeadsetProfilesReached
00036728   _ERM_bDeviceInUserProfiles
00036770   __ERM_u8GetFreeUserProfileSlot
0003679c   __ERM_u8GetFreePlayerHeadsetProfileSlot
000367c8   __ERM_rcPrepare_EepromUpdate
00036810   __ERM_rcPrepare_DeleteUserProfile
0003689c   __ERM_rcPrepare_AddUserProfile
0003697c   __ERM_rcPrepare_ChangeUserProfile_AssociatedPlayer
00036a40   __ERM_rcPrepare_ChangeUserProfile_AssociatedHeadset
00036ad0   __ERM_rcPrepare_ChangeUserProfile_Ringtone
00036b58   __ERM_rcPrepare_ChangePhyTable_Name
00036c10   __ERM_rcPrepare_ChangeUserProfile_PbCompletelyLoaded
00036cac   __ERM_rcPrepare_ChangeUserProfile_RingtoneAlternate
00036d3c   __ERM_rcPrepare_ChangeUserProfile_AudioMode
00036dd8   __ERM_rcPrepare_ChangePhyTable_Voicetags
00036e74   __ERM_rcPrepare_ChangeUserProfile_Mailboxnumber
00036f38   __ERM_rcPrepare_ChangePlayerHeadsetProfile_AuthMode
00036fcc   __ERM_rcPrepare_DeletePlayerHeadsetProfile
00037064   __ERM_rcPrepare_AddPlayerHeadsetProfile
00037138   __ERM_rcPrepare_DeletePhysicalDevice
000371c0   __ERM_rcPrepare_AddPhysicalDevice
0003726c   __ERM_rcPrepare_AddActiveProfile
000373f4   __ERM_rcPrepare_AddActivePhoneProfileWhenNotConnectedAsPhone
000374cc   __ERM_rcPrepare_DeleteActiveProfile
00037624   _ERM_u8GetUserProfileId
00037658   _ERM_u8GetPlayerHeadsetProfileId
000376b0   _ERM_u8GetOldestNoActiveUserProfileId
000376f0   _ERM_u8GetOldestUserProfileId
00037714   _ERM_u8GetOldestPlayerProfileId
0003778c   _ERM_u8GetOldestHeadsetProfileId
000377b8   _ERM_vCheckforprofileId
000378e8   _ATParserTask
0003af14   __VCR_vInitStateData
0003b01c   __VCR_sfInitMenuValues
0003b044   __VCR_sfInitResultValues
0003b068   __VCR_sfInitMsgResultValues
0003b0bc   __VCR_vSetCK5050Available
0003b0d8   __VCR_eGetDefaultReqLanguage
0003b0e4   __VCR_eSetDefaultReqLanguage
0003b0fc   __VCR_vSystemStopToIdle
0003b1c0   __VCR_bNumberOrCallStackAvail
0003b1c8   __VCR_bCheckLangChangeReq
0003b360   __VCR_vChangeMenuToIdle
0003b38c   __VCR_vChangeState
0003b3b8   __VCR_vChangeMenuToMain
0003b3d4   __VCR_vT1SorryRepeat
0003b3f8   __VCR_vCancelStopFor3rdError
0003b440   __VCR_vCancelGotoMain
0003b47c   __VCR_vFunctionNotAvailableStop
0003b4c0   __VCR_vFunctionNotAvailableMain
0003b4fc   __VCR_vNumberNotAvailableMain
0003b538   __VCR_vSmsDeletedMain
0003b570   __VCR_vPhoneNotAvailableStop
0003b5b0   __VCR_vFunctionNotSupportedStop
0003b5f4   __VCR_vConnectPrompt
0003b63c   __VCR_vConnectPromptCategory
0003b684   __VCR_vSinglePrompt
0003b6ac   __VCR_vSinglePrepare
0003b6c8   __VCR_bFCheckMDINeedToBePaused
0003b6e4   __VCR_sFProcResultsUnique
0003b968   __VCR_vSendTriggerToMainEventHandler
0003b9d8   __VCR_vSendCmdToMainEventHandler
0003ba1c   __VCR_sFCheckResultAvailable
0003bdf8   __VCR_sFBuildPrompt
0003ddec   __VCR_PlayError
0003df04   __VCR_vNotifyApplication
0003df50   __VCR_vStartSupervision
0003df8c   __VCR_vStopSupervision
0003dfb4   __VCR_bGetMusicMenuAvailable
0003dfe0   __VCR_bGetSmsMenuAvailable
0003e008   __VCR_sfSetVoiceFeedback
0003e048   __VCR_bGetVoiceFeedback
0003e08c   __VCR_eUserPhonebookStatusGet
0003e2e4   __VCR_vInitMsgCtrlData
0003e2f4   __VCR_vInitLanguageData
0003e334   __VCR_vSetRequiredLanguage
0003e348   __VCR_vHandleErmOkErrorEvent
0003e534   __VCR_sFHandleResult
0003e5a8   _VCR_sFHandleATMessage
0003f798   __VCR_vCheckAndSendATMessage
0003f8b4   __VCR_sFMessageToBeSend
00040230   __VCR_vPrepareASRCmdMessage
000405cc   __VCR_vASRGetPbInfo
000406a0   _VCR_vCBGetPBInfoASR
000407a4   __VCR_vSendASRMessage
00040998   _KPB_sfInitApp
00040c0c   _KPB_vHandleEvents
00041fec   __KPB_vChangeAsgState
00042174   __KPB_vSetAsgAvailable
00042288   _KPB_sfShutdown
000425bc   _KPB_sfSendFrameData
000426d4   _KPB_vSendFrameStatusPresReqOff
00042760   _KPB_vReleaseFrameDataElement
00042794   _KPB_enGetKpbVersionNumber
000427a0   _KPB_bIsAsgPresentation
000427ac   _KPB_vSetAsgPresentationOff
000427bc   _KPB_enGetAsgState
000427e4   _KPB_bIsKeyAssigned
00042918   _KPB_bIsAsgAvailable
00042924   _KPB_u16GetNumChar
0004293c   _KPB_u16GetVisListElements
00042984   _KPB_vOnAppCshdlNotification
00042d30   _KPB_sfAllocFrameBuffer
00042d7c   _KPB_sfFreeFrameBuffer
00042da0   _KPB_bIsFsgQueuedUp
00042db4   _KPB_bGetLastCradleRestriction
00042dcc   __KPB_cbStartASGSupervision
00042dd0   __KPB_bGetVisbilitySetOnOff
00042ee0   __ERM_ProcessMsg
00043eac   __ERM_SendMessage
00044ed8   __ERM_sfHandleOkErrorRsp
00045118   _ERM_bIsSecurityCheckOK
0004512c   _ERM_bIsBluetoothVisible
00045138   _ERM_vsetActiveCallFlagForSettingWithoutCI
00045144   _ERM_bgetActiveCallFlagForSettingWithoutCI
00045154   __ERM_RINGTONE_sfHandleOkErrorRsp
00045334   _APP_DEVICE_rcAddPlayerProfile
00045354   _APP_DEVICE_rcAddHeadsetProfile
00045374   _APP_DEVICE_rcAddUserProfile
0004542c   _APP_DEVICE_rcSaveBtName
000454ac   _APP_DEVICE_rcDeleteUserProfile
000454e4   _APP_DEVICE_rcDeletePlayerProfile
0004552c   _APP_DEVICE_rcDeleteHeadsetProfile
000455d8   _APP_DEVICE_rcDeleteAllProfiles
00045638   _APP_DEVICE_rcSetRingtoneAlternate
00045698   _APP_DEVICE_rcSetPbCompletelyLoaded
000456f4   _APP_DEVICE_rcSetHeadsetAuthMode
0004575c   _APP_DEVICE_rcSetPlayerAuthMode
000457c4   _APP_DEVICE_rcSetPlayerHsName
00045828   _APP_DEVICE_rcSetUserName
00045920   _APP_DEVICE_rcSetRingtone
00045980   _APP_DEVICE_rcSetVoiceMailboxNumber
00045a14   __APP_DEVICE_sfAddMissingUserProfile
00045acc   __APP_DEVICE_sfAddMissingPlayerProfile
00045b94   __APP_DEVICE_sfInitCK5050ForUserProfile
00045be8   __APP_DEVICE_rcAssociateHeadsetToUser
00045c3c   __APP_DEVICE_vChangePBSortingOrder
00045c90   __APP_DEVICE_rcAssociatePlayerToUser
00045ce4   __APP_DEVICE_rcUpdatedeletedPlayerInUserProfiles
00045db4   __APP_DEVICE_sfUpdateErmActiveProfileTable
00045e08   __APP_DEVICE_sfHandlePendingAddMissingPlayerProfile
00045f48   __APP_DEVICE_sfHandlePendingAddMissingUserProfile
00046034   __APP_DEVICE_sfHandlePendingUpdateActiveProfileList
0004613c   __APP_DEVICE_sfHandlePendingAddProfile
000461ec   __APP_DEVICE_sfHandlePendingAssociateHeadsetToUser
000462a8   __APP_DEVICE_sfHandlePendingChangeSortingOrderForNewUser
0004631c   __APP_DEVICE_sfHandlePendingAssociatePlayerToUser
000463e0   __APP_DEVICE_sfHandlePendingUpdateDeletedPlayerInProfiles
000464a4   __APP_DEVICE_sfHandlePendingChangeRingtoneMode
00046540   __APP_DEVICE_sfHandlePendingInitCK5050ForUser
00046614   __APP_DEVICE_sfHandlePendingSetPbCompletelyLoaded
000466a8   __APP_DEVICE_sfHandlePendingChangeAuthMode
00046740   __APP_DEVICE_sfHandlePendingChangeDeviceName
000467b4   __APP_DEVICE_sfHandlePendingChangeRingtone
00046898   __APP_DEVICE_sfHandlePendingChangeMailbox
0004690c   __APP_DEVICE_sfHandlePendingDeleteProfile
00046a18   __APP_DEVICE_sfHandlePendingDeleteAllProfiles
00046be4   __APP_DEVICE_vOnDeleteAllProfilesInEeprom_Cb
00046c74   __APP_DEVICE_vOnDeleteAllDevice_Cb
00046ccc   __APP_DEVICE_sfHandlePendingSaveBtName
00046d5c   __APP_DEVICE_vOnSaveBtName_Cb
00046d68   __APP_DEVICE_vOnAddActiveProfileToEeprom_Cb
00046dac   __APP_DEVICE_vOnAddProfileToEeprom_Cb
00046e70   __APP_DEVICE_vHandlePlayerProfileAdded
00046f14   __APP_DEVICE_vOnDeleteProfileInEeprom_Cb
00046f84   __APP_DEVICE_vOnAddMissingProfile_Cb
00047018   __APP_DEVICE_vOnChangeAssociatedPlayer_Cb
00047028   __APP_DEVICE_vOnChangeAssociatedPlayerAfterDeletedPlayer_Cb
0004706c   __APP_DEVICE_vOnChangePBSortingOrder_Cb
00047074   __APP_DEVICE_vOnChangeAssociatedHeadset_Cb
0004707c   __APP_DEVICE_vOnChangeRingtoneMode_Cb
000470c8   __APP_DEVICE_vOnSetPbCompletelyLoaded_Cb
000470d0   __APP_DEVICE_vOnInitCK5050ForUser_Cb
00047140   __APP_DEVICE_vOnChangeAuthMode_Cb
00047150   __APP_DEVICE_vOnChangeDeviceName_Cb
00047174   __APP_DEVICE_vOnChangeRingtone_Cb
000471d0   __APP_DEVICE_vOnChangeMailboxInEeprom_Cb
000471f0   __APP_DEVICE_vOnDeleteDevice_Cb
000471f8   _APP_DEVICE_vAddMissingUserProfileImplicitlyBySD
00047234   _APP_DEVICE_vAddMissingPlayerProfileImplicitlyBySD
0004726c   __APP_DEVICE_vHandleNoUserProfileAvailable
000472b8   __APP_DEVICE_vHandleNoPlayerProfileAvailable
000472f8   __APP_DEVICE_vHandleNoHeadsetProfileAvailable
00047328   _APP_DEVICE_u8GetAddedProfileId
00047440   __APP_DEVICE_Profiles_vHandlePhoneStateChanged
0004753c   __APP_DEVICE_Profiles_vHandlePlayerStateChanged
00047720   _DEH_ClearDiagnosticInformation
00047884   _DEH_ControlDTCSetting
00047958   _DEH_ClearEvent
00048500   _DEH_Init
000485d0   _DEH_SetDiagnosticSession
00048684   _DEH_StM_Event
00049090   _DEH_ProcessDiagEventHandler
00049344   _DEH_GetVersionInfo
00049378   _DEH_ReadDTCByStatus
000494ec   _DEH_ReadDTCExtDataRecord
00049870   _DEH_StoreStatusOfDTCInfos
00049aa8   __VCR_vRedial
00049b24   __VCR_sfHandleDialNameConfEvent
0004a128   __VCR_sfHandleDialNameConfCatEvent
0004a440   __VCR_sfHandleDialNameResAmbiEvent
0004abd8   __VCR_sfHandleDialNumberEvent
0004ada0   __VCR_u8GetSumLengthDBlocks
0004add8   __VCR_vDebugDBlocks
0004af48   __VCR_sfHandleDialNumberCorrectEvent
0004b58c   __VCR_sfHandleResolveMultipleNumCatEvent
0004b9e0   __VCR_sfHandleCallbackMissedCallsEvent
0004bd08   __VCR_sfHandlePlayAddressbookEvent
0004c020   __VCR_sfHandlePlayAddressbookEntryEvent
0004c3f8   __VCR_sfHandlePlayAddressbookOptionsEvent
0004c76c   __VCR_sfHandleCallStacksEvent
0004c908   __VCR_sfHandleReadCallStacksEvent
0004cd1c   __VCR_sfHandleCallStackOptionsEvent
0004ce50   __VCR_sfHandleCallStackResetConfirmEvent
0004cf64   __VCR_sfHandleReadSMSEvent
0004d434   __VCR_sfHandleReadSMSOptionsEvent
0004d5d0   __VCR_sfHandleDeleteSMSConfirmEvent
0004d6fc   __VCR_sfHandleCallBackSMSConfirmEvent
0004d888   __VCR_sfHandleStorenameEvent
0004dc9c   __VCR_sfHandleResetNameConfirmEvent
0004de80   _APP_DTC_sfInit
0004ded8   _APP_DTC_vSoftwareDiagnostics
0004df00   _APP_DTC_vSlowRampUpPinsDiagnostics
0004df18   _APP_DTC_vFastRampUpPinsDiagnostics
0004fb28   _APP_DTC_vStartupSequence
0004fc84   _APP_DTC_u8GetStatusMikroTelefon
0004fc90   _APP_DTC_u8GetStatusAudioLeft
0004fc9c   _APP_DTC_u8GetStatusAudioRight
0004fca8   _APP_DTC_u8GetStatus3ButtonModule
0004fcb4   _APP_DTC_u8GetStatusRadioMute
0004fcc0   _APP_DTC_u8GetStatusBaseplate
0004fcd0   _APP_DTC_u8GetStatusAntenna
0004fce0   _APP_DTC_u8GetStatusTemperature
0004fcec   _APP_DTC_u8GetStatusCoding
0004fcf8   _APP_DTC_u8GetStatusUBatt
0004fd04   _APP_DTC_u8GetVariantType
0004fd14   _APP_DTC_bGetAudioAllowed
0004fe4c   _CONTEXT_MAN_sfGetInfoCallNumber
0004fe74   _CONTEXT_MAN_sfGetServiceCallNumber
0004fe9c   _CONTEXT_MAN_sfGetSOSCallNumber
0004fec4   _CONTEXT_MAN_sfGetInfoCallNumberRoaming
0004feec   _CONTEXT_MAN_sfGetServiceCallNumberRoaming
0004ff14   _CONTEXT_MAN_sfSetInfoCallNumber
0004ff40   _CONTEXT_MAN_sfSetServiceCallNumber
0004ff6c   _CONTEXT_MAN_sfSetSOSCallNumber
0004ff98   _CONTEXT_MAN_sfSetInfoCallNumberRoaming
0004ffc4   _CONTEXT_MAN_sfSetServiceCallNumberRoaming
0004fff4   _CONTEXT_MAN_vHandleEvents
00050104   _CONTEXT_MAN_sfInit
00050170   _CONTEXT_MANAGER_sfResolveFunctionCall
00051490   _CONTEXT_MAN_sfSetFahrzeugTyp
000514b4   _CONTEXT_MAN_sfGetFahrzeugTyp
000514cc   _CONTEXT_MAN_vOnKpbNotification
000516f0   _CONTEXT_MAN_vOnContextManNotification
0005191c   __APP_PHONEBOOK_BAP_REQUEST_sfSendMissedCallsIndication
000519c4   __APP_PHONEBOOK_BAP_REQUEST_sfSendPbState
00051a94   __APP_PHONEBOOK_BAP_REQUEST_sfSendVoiceMailBox
00051b34   __APP_PHONEBOOK_BAP_REQUEST_sfSendSmsAttribOnly
00051b38   __APP_PHONEBOOK_BAP_REQUEST_sfSendSmsPosOnly
00051ccc   __APP_PHONEBOOK_BAP_REQUEST_sfSendSmsReceivedNoSmsForIndex
00051d84   __APP_PHONEBOOK_BAP_REQUEST_sfSendSmsState
00051e70   __APP_PHONEBOOK_BAP_REQUEST_sfHandleSmsRequestFinished
0005219c   __APP_PHONEBOOK_BAP_REQUEST_sfSendSmsChangedArray
00052210   __APP_PHONEBOOK_BAP_REQUEST_sfSendNewSmsChangedArray
000522a8   __APP_PHONEBOOK_BAP_REQUEST_sfHandleSmsDeleted
000523a8   __APP_PHONEBOOK_BAP_REQUEST_sfSendSmsDeletedChangedArray
00052464   __APP_PHONEBOOK_BAP_REQUEST_sfHandleSmsMarkedAsRead
00052570   __APP_PHONEBOOK_BAP_REQUEST_sfSendPbSpellerResult
00052624   __APP_PHONEBOOK_BAP_REQUEST_sfSendCallListStatusArray
00052980   __APP_PHONEBOOK_BAP_REQUEST_sfSendEmptyCallListStatusArray
00052a9c   __APP_PHONEBOOK_BAP_REQUEST_sfSendNewPbEntryChangedArray
00052b54   __APP_PHONEBOOK_BAP_REQUEST_sfSendPbChangedArray
00052bcc   __APP_PHONEBOOK_BAP_REQUEST_sfSendPhonebookPosOnlyStatusArray
00052d60   __APP_PHONEBOOK_BAP_REQUEST_sfSendPhonebookStatusArray
0005312c   __APP_PHONEBOOK_BAP_REQUEST_sfSendMobServSupp
000531c8   __APP_PHONEBOOK_BAP_REQUEST_sfSendMissedCallListChangedArray
00053248   __APP_PHONEBOOK_BAP_REQUEST_sfSendReceivedCallListChangedArray
000532cc   __APP_PHONEBOOK_BAP_REQUEST_sfSendDialledCallListChangedArray
000533e8   _APP_DEVICE_sfActivatePhoneDevice
00053488   _APP_DEVICE_sfDeactivatePhoneService
000534c8   _APP_DEVICE_sfSetAutoConnectionMode
00053510   _APP_DEVICE_rcStopRingtoneNonBlock
00053560   _APP_DEVICE_rcDisconnectDevice
000535a0   _APP_DEVICE_rcStartRingtoneNonBlock
0005360c   _APP_DEVICE_rcActivateMdiDevice
0005369c   _APP_DEVICE_rcDeactivateMdiDevice
0005378c   __APP_DEVICE_sfHandlePendingStopRingtoneNonBlock
000537bc   __APP_DEVICE_sfHandlePendingDisconnectDevice
00053824   __APP_DEVICE_sfHandlePendingStartRingtoneNonBlock
000538b0   __APP_DEVICE_GetMuteRingtone_Cb
000538f0   __APP_DEVICE_StopBeforePlayRingtone_Cb
00053960   __APP_DEVICE_PlayRingtone_Cb
000539d0   __APP_DEVICE_StopRingtone_Cb
00053a5c   __APP_DEVICE_DisconnectDevice_Cb
00053a64   __APP_DEVICE_vDeactivateMdiFromAvrcpStarted_Cb
00053abc   __APP_DEVICE_sfHandlePendingActivate
00053c40   __APP_DEVICE_sfHandlePendingMdDeactivate
00053e78   __APP_DEVICE_sfHandlePendingMdActivate
00054128   __APP_DEVICE_sfHandlePendingDeactivate
000541b8   __APP_DEVICE_sfHandlePendingSetAutoConnMode
00054228   __APP_DEVICE_vOnServiceStartCb
00054230   __APP_DEVICE_Connection_vHandleA2dpNotification
00054278   __APP_DEVICE_Connection_vHandleAvrcpNotification
000542c0   __APP_DEVICE_Connection_vHandleBtConnectionNotification
000542fc   __APP_DEVICE_Connection_vHandlePairingNotification
00054310   __APP_DEVICE_Connection_vHandleServiceSupportNotification
00054314   __APP_DEVICE_Connection_bMdActivateFinished
000543b8   __APP_DEVICE_Connection_bMdDeactivateFinished
0005440c   __APP_DEVICE_Connection_bPhoneActivateFinished
00054c94   __APP_DEVICE_Connection_vHandlePhoneNotification
00054ce8   __APP_DEVICE_vHandleHeadsetStateChanged
00054d60   __APP_DEVICE_vHandlePlayerDisconnected
00054ea0   _APP_DIAG_sfInit
00055074   _APP_DIAG_vHandleEvents
00056644   _APP_DIAG_vHandlePendingResponseFromApplication
00056768   _APP_DIAG_GetDiag_PhonebookSortOrder
0005680c   __APP_DIAG_vMediaPlayerIsDisconnected_Cb
000569d4   _AT_Cmd_Handler_ERM
00058370   _APP_PHONE_u16MissedCalls
0005837c   _APP_PHONE_u16MissedNumbers
00058388   _APP_PHONE_vResetMissedCalls
000583a4   _APP_PHONE_sfInitApp
00058410   __APP_PHONE_vReInitApp
00058448   __APP_PHONE_vReleaseFctContext
00058458   __APP_PHONE_vSendResultReleaseContext
00058550   _APP_PHONE_HangUp_CallStatusChange
00058584   __APP_PHONE_vNotifyApp
000585bc   _APP_PHONE_vCbMicMute
00058600   _APP_PHONE_vHandleEvents
000586e8   __APP_PHONE_sfRequestHfpVersion
00058c30   __APP_PHONE_Execute_HangUp
000592a4   _APP_PHONE_rcDialNumber
00059318   _APP_PHONE_rcDialPbIndex
00059370   _APP_PHONE_rcSilentRinging
000593a8   _APP_PHONE_rcDialPnIndex
000593fc   _APP_PHONE_rcRedial
00059464   _APP_PHONE_rcAcceptCall
000594a8   _APP_PHONE_rcHangUp
000594f0   _APP_PHONE_rcHangUpAll
00059540   _APP_PHONE_rcPhoneStatus
00059588   _APP_PHONE_rcCallState
000595d4   _APP_PHONE_rcCallInfo
00059624   _APP_PHONE_rcSendDTMF
000596c0   _APP_PHONE_rcPlpdRequest
00059704   _APP_PHONE_rcCallHold
00059748   _APP_PHONE_rcCallReplace
00059790   _APP_PHONE_rcResumeCall
000597d4   _APP_PHONE_rcHeadsetOnOff
0005981c   _APP_PHONE_rcHandsFreeOnOff
00059890   _APP_PHONE_rcMicroMuteOnOff
000598e0   _APP_PHONE_rcSwitchCalls
00059928   _APP_PHONE_rcJoinToConference
00059970   _APP_PHONE_rcPutCallsThrough
000599b8   _APP_PHONE_rcSplitCallFromConference
00059a00   _APP_PHONE_rcToggleMicMute
00059a24   _APP_PHONE_bIsValidPhoneNumber
00059aa4   _APP_PHONE_GetNetworkProvider
00059aac   _APP_PHONE_GetSignalStrength
00059ab8   _APP_PHONE_GetBatteryLevel
00059ac4   _APP_PHONE_GetRoaming
00059ad4   _APP_PHONE_GetNetworkAvailable
00059ae0   _APP_PHONE_bNetworkAvailable
00059af8   _APP_PHONE_bRedialNumberAvailable
00059b00   _APP_PHONE_bIsMicMuted
00059b10   _APP_PHONE_bIsHeadsetOn
00059b1c   _APP_PHONE_bIsHandsFreeOff
00059b28   _APP_PHONE_enGetHfpVersion
00059b38   _APP_PHONE_bIsCDMAPhone
00059b48   _APP_PHONE_vOnAppCshdlNotification
00059b9c   _APP_PHONE_vOnAppDeviceNotification
00059bbc   _APP_PHONE_bIsUnknownCallerId
00059c54   _APP_PHONE_cbOutgoingCallIndicationTimeout
00059c70   _APP_PHONE_cbOnPatrTimeout
00059c90   __APP_PHONE_MuteAck_Cb
00059dbc   _APP_PHONEBOOK_sfInitApp
00059de4   __APP_PHONEBOOK_vReInitApp
00059e1c   __APP_PHONEBOOK_vReleaseFctContext
00059e48   __APP_PHONEBOOK_vSendResultReleaseContext
00059f6c   _APP_PHONEBOOK_vResetMissedCallsByHMI
00059f80   _APP_PHONEBOOK_vHandleEvents
0005a4c4   __APP_PHONEBOOK_vOnUpdatePbResult
0005a594   __APP_PHONEBOOK_vOnUpdateSinglePbSize
0005a698   __APP_PHONEBOOK_vOnCallStackResetResult
0005a6f4   __APP_PHONEBOOK_vOnSyncPbResult
0005a750   __APP_PHONEBOOK_vOnSearchPbResult
0005a7ac   __APP_PHONEBOOK_vOnReqNumTagsResult
0005a838   __APP_PHONEBOOK_vOnAddPbEntryResult
0005a894   __APP_PHONEBOOK_vOnPbSortOrderResult
0005a9b4   __APP_PHONEBOOK_vOnReadCompletePbResult
0005ab10   __APP_PHONEBOOK_vOnActivatePpdsResult
0005ab50   __APP_PHONEBOOK_sfUpdatePbSizes
0005abdc   __APP_PHONEBOOK_sfUpdateSinglePbSize
0005ad0c   __APP_PHONEBOOK_sfActivatePpds
0005ad64   _APP_PHONEBOOK_vOnAppDeviceNotification
0005ad74   __APP_PHONEBOOK_vNotifyApps
0005ada8   _APP_PHONEBOOK_rcRequestAddPbEntry
0005ae3c   _APP_PHONEBOOK_rcRequestManualSync
0005ae88   _APP_PHONEBOOK_rcRequestCallStackReset
0005aed0   _APP_PHONEBOOK_rcRequestCompletePbEntries
0005b010   _APP_PHONEBOOK_rcRequestPbSearch
0005b074   _APP_PHONEBOOK_rcRequestCurrentPbSortOrder
0005b0c0   _APP_PHONEBOOK_rcSetPbSortOrder
0005b114   _APP_PHONEBOOK_rcRequestNumVoiceTagsForContact
0005b184   _APP_PHONEBOOK_u16GetCurrentPBSize
0005b1cc   _APP_PHONEBOOK_enGetPBDwldState
0005b1ec   _APP_PHONEBOOK_bIsPbValid
0005b240   _APP_PHONEBOOK_pGetPpbrContext
0005b270   _APP_PHONEBOOK_GetVoiceTagNumberResponse
0005b2a4   _APP_PHONEBOOK_u8GetSortOrder
0005b2bc   _APP_PHONEBOOK_u16GetAddedPbIndex
0005b2dc   _APP_PHONEBOOK_pGetPbSearchResult
0005b350   _APP_PHONEBOOK_u16GetPbDlStatus
0005b35c   _APP_PHONEBOOK_bWasManualSync
0005b36c   _APP_PHONEBOOK_bPbUpdateInProgress
0005b398   _APP_PHONEBOOK_cbPbSortingTimeout
0005c864   __printfi
0005cadc   _VCR_vCb3BM_PTT
0005cc0c   _VCR_bCheckIsPTTPressed
0005cc18   _VCR_bCheckIsCALLPressed
0005cc24   _VCR_vEventCall
0005cc6c   _VCR_eGetVoiceRecognitionStatus
0005cc78   _VCR_eGetHapticTrigTypeStatus
0005cc84   _VCR_bCheckSIVRIsActive
0005ccbc   _VCR_vStopSIVRForCall
0005ccd4   _VCR_vStopSIVRForCK5050PowerOff
0005ccec   _VCR_sFHapticTrigger
0005cd8c   _VCR_vCBPBSyncOK
0005cdb0   _VCR_vCBRestoreFactory
0005cdd4   _VCR_vCBSetBTPin
0005ce08   _VCR_vCBMarkSMSRead
0005ce74   _VCR_vCBReadSMS
0005cf1c   _VCR_vCBDeleteSMS
0005cf3c   _VCR_vCBAddContact
0005cf6c   _VCR_vNotifyPBEntryAdded
0005cfc4   _VCR_vOnAppCshdlNotification
0005cff0   _VCR_vOnAppDeviceNotification
0005d02c   _VCR_vCBSendMsgViaAPP
0005d03c   _VCR_vCBIncNumVoiceTagForActiveUser
0005d060   _VCR_vCBDecNumVoiceTagForActiveUser
0005d084   _VCR_vCBResetStartVoiceTagForActiveUser
0005d0a8   _VCR_vCBResetStopVoiceTagForActiveUser
0005d0cc   _VCR_vCBGetPBInfoSingleEntryUserPB
0005d330   _VCR_vCBGetPBInfoSingleEntryCallStack
0005d4bc   _VCR_vCBGetPBIndexEntryCallStack
0005d53c   _VCR_sfErmIndicationCk5050
0005d540   _VCR_sFChangeLanguage
0005d758   _VCR_sFChangeLanguageExecute
0005da4c   _VCR_sFChangeLanguageViaCan
0005dab0   _VCR_sFSetFallbackLanguage
0005dab8   _VCR_sFSetVoiceControlSupport
0005db24   _VCR_sFGetCurrentPhoneNumberforDial
0005dbd0   _VCR_vInstrumentClusterAvailable
0005dbf8   _VCR_bGetInstrumentClusterAvailable
0005dc18   _VCR_sfInitApp
0005dc6c   _VCR_sfEnablePerformanceMeasures
0005dd1c   _VCR_vHandleEvents
0005decc   _VCR_stGetContactAmb
0005ded4   _VCR_stGetContactUni
0005def4   _VCR_rcPlayTestPrompt
0005dfa4   _VCR_vStatusResetForRestoreFactorySettings
0005dfc4   _VCR_cbMuteGetAck
0005e0e4   _CSHDL_vGetCkOnOffStatus
0005e0f0   _CSHDL_init
0005e1a0   _CSHDL_PrintDebug
0005e2c8   _CSHDL_manager
0005ed70   _CSHDL_bGetBuetoothUpdateActive
0005ed8c   _CSHDL_vTriggerBluetoothUpdate
0005edb4   _CSHDL_u8GetBluetoothUpdateTrigger
0005edc0   _CSHDL_vDiagnoseResetSimulation
0005edd0   _CSHDL_enGetIgnitionOFFDelayState
0005f538   _CSHDL_vCK5050_PowerOFF_ACK
0005f54c   _CSHDL_vCK5050_Startup
0005f560   _CSHDL_bIsKl15On
0005f570   _CSHDL_bIsUHVOnConditionSatisfied
0005f59c   _ctaBtTimeout_cb
0005f6ac   _APP_PHONE_BAP_vOnAppPhoneNotification
0005f794   __APP_PHONE_BAP_vInternalNotification
0005f7c8   _APP_PHONE_BAP_vOnBAPDispatcherNotification
0005f928   __APP_PHONE_BAP_vHandleHfpVersionChanged
0005f92c   __APP_PHONE_BAP_sfUpdateAndSendMobileServiceSupport
0005fa58   __APP_PHONE_BAP_REQUEST_sfSendHandsFreeOnOff
0005fab0   __APP_PHONE_BAP_REQUEST_sfSendMicroMuteOnOff
0005fb08   __APP_PHONE_BAP_REQUEST_sfSendMobServSupp
0005fb8c   __APP_PHONE_BAP_REQUEST_sfSendFsgOperationState
0005fbd8   __APP_PHONE_BAP_REQUEST_sfSendFsgSetup
0005fe78   __APP_PHONE_BAP_REQUEST_sfSendCallInfoStatus
000600bc   __APP_PHONE_BAP_REQUEST_sfSendLineState
00060160   __APP_PHONE_BAP_REQUEST_sfSendAllCallStatesIdle
000601f0   __APP_PHONE_BAP_REQUEST_sfSendCallState
0006064c   __APP_PHONE_BAP_REQUEST_sfSendActiveUser
000607a0   __APP_PHONE_BAP_REQUEST_sfDeactiveUser
00060870   __APP_PHONE_BAP_REQUEST_sfSendUserListStatus
000609f0   __APP_PHONE_BAP_REQUEST_sfSendUserListChanged
00060aa0   __APP_PHONE_BAP_REQUEST_sfSendSignalQuality
00060af4   __APP_PHONE_BAP_REQUEST_sfSendRegisterState
00060b48   __APP_PHONE_BAP_REQUEST_sfSendNetworkProvider
00060c6c   _APP_CAN_sfInit
00060d8c   _APP_CAN_vResetLanguageDatasetdownload
00060d9c   _APP_CAN_sfReInitTOVariables
00060df8   _APP_CAN_vHandleEvents
000610c0   _APP_CAN_enGetMuteStatus
000610d8   _APP_CAN_sf10msCyclicCheckReceivedCANMessages
00061c2c   _APP_CAN_enGetMarke
00061c38   _APP_CAN_enGetDerivat
00061c48   _APP_CAN_u8GetActiveLSM1Device
00061c88   _APP_CAN_SleepDelayTimer
00061ca4   _APP_CAN_ResetSleepDelayTimer
00061f10   _APP_CAN_sfCheckBusOff
00061fe0   _APP_CAN_cbNachlaufzeitTimeout
00061fe8   _APP_CAN_sfSendCyclicCanMessage
00062064   _APP_CAN_u8Klemme15Status
00062078   _APP_CAN_u8DTCStore
000620b4   _APP_CAN_u8EigenDiagDTCStore
000620ec   _APP_CAN_u8GetNWDF
000620f8   _APP_CAN_u8GetMflVariante
00062104   _APP_CAN_sfDiagnose_1_MessageReceived
00062114   _APP_CAN_vDiagnose_1_Data
000621c4   __VCR_sFHandleEvent
0006363c   __APP_PHONE_BAP_vRetryContext
00063670   __APP_PHONE_BAP_vReleaseContext
0006368c   __APP_PHONE_BAP_vHandleBAPIndication
00063efc   _APP_PHONE_BAP_vProcessResumeCall
00063f9c   _APP_PHONE_BAP_vProcessDialNumber
000640a0   _APP_PHONE_BAP_vProcessAcceptCall
00064140   _APP_PHONE_BAP_vProcessHangUpCall
00064228   _APP_PHONE_BAP_vProcessMPCallHoldAcceptWaitingCall
000642c8   _APP_PHONE_BAP_vProcessMPSwap
00064368   _APP_PHONE_BAP_vProcessCallHold
00064408   _APP_PHONE_BAP_vProcessCCJoin
000644a8   _APP_PHONE_BAP_vProcessMPReleaseActiveCallAcceptWaitingCall
00064548   __APP_PHONE_BAP_vOnRestoreFactorySettingsCb
00064578   __APP_PHONE_BAP_vOnDialNumberCb
000645ac   __APP_PHONE_BAP_vOnAcceptCallCb
000645e0   __APP_PHONE_BAP_vOnHangUpCallCb
00064618   __APP_PHONE_BAP_vOnMPCallHoldAcceptWaitingCallCb
00064650   __APP_PHONE_BAP_vOnMPSwapCb
00064684   __APP_PHONE_BAP_vOnCallHoldCb
000646b8   __APP_PHONE_BAP_vOnResumeCallCb
000646ec   __APP_PHONE_BAP_vOnCCJoinCb
00064720   __APP_PHONE_BAP_vOnMPReleaseActiveCallAcceptWaitingCallCb
00064754   __APP_PHONE_BAP_vOnSendDtmfCb
00064784   __APP_PHONE_BAP_vOnMicroMuteOnOffCb
000647ac   __APP_PHONE_BAP_cbDialNumberTimeOut
000647c4   __APP_PHONE_BAP_cbAcceptCallTimeOut
000647e4   __APP_PHONE_BAP_cbHangUpCallTimeOut
00064800   __APP_PHONE_BAP_cbMPCallHoldAcceptWaitingCallTimeOut
0006481c   __APP_PHONE_BAP_cbMPSwapTimeOut
00064834   __APP_PHONE_BAP_cbCallHoldTimeOut
00064850   __APP_PHONE_BAP_cbResumeCallTimeOut
0006486c   __APP_PHONE_BAP_cbCCJoinTimeOut
00064884   __APP_PHONE_BAP_cbMPReleaseActiveCallAcceptWaitingCallTimeOut
000649c8   _APP_MDI_BAP_sfInitApp
000649ec   _APP_MDI_BAP_vHandleEvents
000657d8   _APP_MDI_BAP_vHandleErmNotification
00065870   _APP_MDI_BAP_vOnAppMdiNotification
00065ac0   __APP_MDI_cbActiveMediaPlayer
000667f8   _BAP_BCL_CanSendTask
00066a00   _BAP_BCL_InitCanDrvTxConfirmationFlags
00066aa0   _BAP_BCL_CanReceiveTask
00066b58   _BAP_CANUBS_RxData
00066c70   _APP_MDI_sfInitApp
00066cd8   _APP_MDI_sfReInitApp
00066d40   _APP_MDI_vHandleEvents
00066df0   _APP_MDI_bIsInitialized
00066df4   _APP_MDI_bPlayerActive
00066e30   _APP_MDI_bPlayerAvailable
00066e4c   _APP_MDI_bRemoteControlAvailable
00066e74   _APP_MDI_GetTrackTime
00066e80   _APP_MDI_GetTrackTimePosition
00066e8c   _APP_MDI_GetPlayStatus
00066e98   _APP_MDI_GetSavePauseState
00066ea4   _APP_MDI_GetRandomMode
00066eb0   _APP_MDI_GetMetadataType
00066ebc   _APP_MDI_GetRepeatMode
00066ec8   _APP_MDI_GetFileName
00066ed0   _APP_MDI_GetArtist
00066ed8   _APP_MDI_GetTitle
00066ee0   _APP_MDI_GetAlbum
00066ee8   _APP_MDI_GetActiveServiceDeviceId
00066f4c   __APP_MDI_vNotifyApps
00066fd0   _APP_MDI_vOnAppDeviceNotification
00066fd4   _APP_MDI_sfSetALCKMode
00067058   _APP_MDI_sfVcrSetPlayMode
000670b4   _APP_MDI_sfSetPlayMode
00067294   _APP_MDI_sfSetSkip
00067318   _APP_MDI_sfGetPgmt
00067338   _APP_MDI_sfGetDged
0006735c   _APP_MDI_sfGetDgps
0006737c   _APP_MDI_sfSetRandomMode
000673d8   _APP_MDI_sfSetRepeatMode
00067448   _APP_MDI_sfSetAutomaticNotificationMode
00067498   _APP_MDI_sfSetPlayerVisible
000674cc   _APP_MDI_bMutePlayer
00067600   _APP_MDI_bUnmutePlayer
00067744   _APP_MDI_bUnlockPlayer
00067778   _APP_MDI_cbPlayStateTimeout
00067868   _APP_MDI_cbStartupUnlockAudio
0006788c   _APP_MDI_cbGetPgmtDelayed
000678c8   _APP_MDI_cbSendDPLYDelayed
00067904   _APP_MDI_cbGetDgps
00067940   _APP_MDI_vDeferPlayMode
00067a54   _IsCK5050ResponseStillOngoing
00067a60   _APP_MDI_cbDPLYResponseTimeOut
00067b18   _APP_MDI_HandleDefer
00067b98   _APP_MDI_bIsSeekingInProgress
00067ba4   _MDI_vOnAppCshdlNotification
00067d2c   _CanMessageIsr
00067dd4   _CanSystemIsr
00067dd8   _Can0Interrupt
00067ddc   _CanInit
00067fec   _CanInitPowerOn
000680dc   _CanCancelTransmit
00068160   _CanTransmitVarDLC
0006816c   _CanTransmit
00068880   _CanOnline
000688ac   _CanOffline
000688dc   _CanSetPartOffline
0006890c   _CanSetPartOnline
0006893c   _CanGetPartMode
00068948   _CanGetStatus
0006895c   _CanSleep
00068964   _CanWakeUp
0006896c   _CanStop
000689bc   _CanStart
00068a2c   _CanGlobalInterruptDisable
00068a64   _CanGlobalInterruptRestore
00068a98   _CanCanInterruptDisable
00068ad4   _CanCanInterruptRestore
00068bf0   _SDS_UDS_vInitialiseService2E
00068cbc   _UDS_ubDiagService2E
00069a3c   _NmCanError
00069ad0   _NmConfirmation
00069c14   _NmPrecopy
00069ec8   _NmOsekInit
00069fd4   _NmTask
0006a6a4   _GotoMode
0006a6e8   _GetStatus
0006a6f8   _NmGetStatus
0006a704   _StartNM
0006a70c   _StopNM
0006a714   _TalkNM
0006a734   _SilentNM
0006a754   _NmGetUdStartAddress
0006a75c   _NmReadRecvSourceAddress
0006a870   _APP_PHONEBOOK_AT_ePhonebookStatusGet
0006a8ac   _APP_PHONEBOOK_vHandleATResponse
0006b01c   __APP_PHONEBOOK_AT_sfHandlePbSearchResponse
0006b220   __APP_PHONEBOOK_AT_sfSendSelectPbATRequest
0006b294   __APP_PHONEBOOK_AT_sfSendActivatePpds
0006b2b8   __APP_PHONEBOOK_AT_sfSendPbSearchATRequest
0006b308   __APP_PHONEBOOK_AT_sfSendPbSearchExtendedATRequest
0006b358   __APP_PHONEBOOK_AT_sfSendPbSyncATRequest
0006b388   __APP_PHONEBOOK_AT_sfSendGetPhonebookUpdateStatus
0006b3b8   __APP_PHONEBOOK_AT_sfSendPbSortOrderATRequest
0006b3f0   __APP_PHONEBOOK_AT_sfSendAddPbEntryATRequest
0006b46c   __APP_PHONEBOOK_AT_sfSendNumVoiceTagsATRequest
0006b4b0   __APP_PHONEBOOK_AT_sfSendPbCallStackResetATRequest
0006b4d8   __APP_PHONEBOOK_AT_sfSendPbEntriesATRequest
0006b540   __APP_PHONEBOOK_AT_sfSendPbNumbersATRequest
0006b5a0   __APP_PHONEBOOK_AT_sfSendPbSizeATRequest
0006b6a0   __APP_PHONE_AT_PNCC_sfInit
0006b6bc   __APP_PHONE_AT_PNCC_sfHandleCallStatusCount
0006b730   __APP_PHONE_AT_PNCC_sfHandleCallStatusIndex
0006bf68   _APP_PHONE_AT_PNCC_pGetPnccContext
0006bf70   _APP_PHONE_AT_PNCC_pGetPlccContext
0006bf84   __APP_PHONE_AT_PNCC_sfSetPnccDefault
0006bfa8   __APP_PHONE_AT_PNCC_u16GetValidPlccNumber
0006bfec   _APP_PHONE_AT_PNCC_bArrayHasChanged
0006c010   _APP_PHONE_AT_PNCC_bCallInfoHasChanged
0006c034   __APP_PHONE_AT_PNCC_GetCurrentActiveCallIndex
0006c06c   _APP_PHONE_AT_PNCC_GetOutgoingCallIndex
0006c0b4   _APP_PHONE_AT_PNCC_bAllCallStatesIdle
0006c14c   _APP_PHONE_AT_PNCC_u16GetNumberOfActiveCalls
0006c184   _APP_PHONE_AT_PNCC_u16GetNumberOfCalls
0006c1b0   _APP_PHONE_AT_PNCC_u16GetNumberOfTerminatedCalls
0006c1e8   _APP_PHONE_AT_PNCC_u16GetNumberOfHeldCalls
0006c220   _APP_PHONE_AT_PNCC_u16GetNumberOfIncomingCalls
0006c258   _APP_PHONE_AT_PNCC_u16GetNumberOfWaitingCalls
0006c290   _APP_PHONE_AT_PNCC_u16GetNumberOfOutgoingCalls
0006c2d4   _APP_PHONE_AT_PNCC_u16GetNumberOfCallType
0006c3a0   _SDSext_vInit
0006c400   _SDSext_vTask
0006c6ec   _UDS_ubDiagService10
0006c818   _UDS_ubDiagService11
0006c88c   _UDS_ubDiagService14
0006c944   _SDS_UDS_Wait_DEH_Write_Finish
0006c954   _UDS_ubDiagService19
0006cbcc   _UDS_ubDiagService22
0006d058   __KPB_sfParseBapIndication
0006d5f4   __KPB_vBapSendOperationState
0006d630   __KPB_vBapSendAsgCapabilities
0006d6a8   __KPB_vBapSendAsgConfig
0006d748   __KPB_vBapSendLsgStatus
0006d784   __KPB_vBapSendMflBlockDefinition
0006d804   __KPB_vBapSendFrameStatus
0006d8b0   __KPB_vBapSendScrollBar
0006d940   __KPB_sfBapSendFrameDataEmpty
0006da80   __KPB_sfBapSendFrameData
0006dcf8   _UDS_ubDiagService3D
0006de9c   _UDS_ubDiagService86
0006df84   _sdsMemCpy
0006dfa4   _SDSext_DIAG_vHandleEvents
0006e08c   _SDSext_GetUhvInRestrictedMode
0006e094   _SDS_UDS_vDiagTimeout
0006e0ec   _SDS_UDS_RetryMechanismR2FS
0006e118   __SDS_UDS_bResetOfAdaptionValuesStatus
0006e124   __SDS_UDS_vResetOfAdaptionValues
0006e194   __SDS_UDS_u8GetStatusBasicSettings
0006e1a0   _SDSext_eReadUserAndIOData
0006e870   _SDS_UDS_vInitialiseService22
0006e974   _APP_PHONEBOOK_BAP_sfInitApp
0006e990   _APP_PHONEBOOK_BAP_vHandleEvents
0006ea60   __APP_PHONEBOOK_BAP_vRetryContext
0006ea88   __APP_PHONEBOOK_BAP_vReleaseContext
0006f138   __APP_PHONEBOOK_BAP_vSetBasicPbMobileServiceSupport
0006f180   _APP_PHONEBOOK_BAP_vDiagSmsSupportChanged
0006f1f8   _APP_PHONEBOOK_BAP_vDeleteSms
0006f484   _APP_PHONEBOOK_BAP_vOnBAPDispatcherNotification
0006f56c   _ASR_sfInit
0006f680   _ASR_sfSendCyclicASRMessage
0006fc40   _ASR_vSetPerfMeasOnOff
00070124   __ERM_vInitAudioValues
000701b4   _ERM_vReInitAudioParameterSet
0007022c   __ERM_sFSetVolumes
0007039c   __ERM_sFSetMicSensitivity
000703f0   __ERM_sFSetAECDelay
00070448   __ERM_GetAECDelay
00070598   _ERM_sFSetAudioParameterSet
00070650   __ERM_GetMicAlgotype
0007066c   __ERM_GetMicChoice
00070688   _ERM_GetMicGain
00070694   __ERM_GetTXGain
000706b0   __ERM_GetRXGain
000706cc   __ERM_GetMicMaxAtt
000706e8   __ERM_GetMicInputGain
00070704   __ERM_GetMicDirection
00070720   __ERM_GetMicGainADC
0007073c   __ERM_GetRXAlgo
00070768   __ERM_GetSpeakerLimit
00070784   __ERM_GetHPFilter
000707a0   __ERM_GetAECMaxAtt
000707bc   __ERM_GetAECSwitchTime
000707d8   __ERM_GetRingVolume
000707ec   _ERM_GetPromptVolume
000707f8   __ERM_InitPromptVolume
00070860   __ERM_InitMicGain
000708a8   __ERM_InitCommVolume
000708c4   __ERM_InitStreamVolume
0007090c   __ERM_InitAecDelay
00070954   _ERM_GetCommVolume
00070960   _ERM_GetAlcVolume
00070970   _ERM_GetStreamVolume
0007097c   __ERM_GetComfortNoise
000709a4   __ERM_InitRXAlcTarget
00070a18   __ERM_GetRXAlcTarget
00070a24   __ERM_GetRXAlcMode
00070a30   __ERM_InitAlcMode
00070a4c   __ERM_InitRXSLLevel
00070ac0   __ERM_GetRXSLLevel
00070acc   __ERM_GetTXSLMode
00070af4   __ERM_GetTXSLLevel
00070b10   __ERM_GetAlcVolumeFromALCtoSLMappingTable
00070cac   _APP_SMS_sfInitApp
00070ce4   __APP_SMS_vReInitApp
00070d1c   __APP_SMS_vReleaseFctContext
00070d64   _APP_SMS_vHandleEvents
00071258   __APP_SMS_vOnSmsInitResult
000712e8   __APP_SMS_vOnReadSmsResult
0007135c   __APP_SMS_vOnReadSmsPreviewResult
000713d0   __APP_SMS_vOnSendSmsResult
000713e0   __APP_SMS_vOnSendConcSmsResult
0007146c   __APP_SMS_vOnDeleteSmsResult
00071520   __APP_SMS_vOnMarkAsReadResult
000715ac   _APP_SMS_rcSendSms
000715b4   _APP_SMS_rcSendConcSms
000715bc   _APP_SMS_rcReadSms
000715c4   _APP_SMS_rcReadSmsPreview
000715cc   _APP_SMS_rcDeleteSms
000715d4   _APP_SMS_rcMarkAsRead
000715dc   _APP_SMS_bIsSmsInitialized
000715e8   _APP_SMS_u16GetNumReadSms
000715f4   _APP_SMS_u16GetNumUnreadSms
00071600   _APP_SMS_enGetSmsSupportState
0007160c   _APP_SMS_enGetSmsType
00071644   _APP_SMS_u16GetSmsTypeIndex
00071680   _APP_SMS_pGetPmrdContext
000716c4   __APP_SMS_vNotifyApps
000716ec   _APP_SMS_vOnPhoneNotification
00071800   _ATCMD_bPCheckPbRequestIsVCR
000718ec   _AT_Cmd_Handler_VCR
0007229c   _APP_MDI_vHandleATResponse
00072a50   __APP_MDI_sfSendKeyboardEventATRequest
00072a80   __APP_MDI_sfSendRandomModeATRequest
00072ac0   __APP_MDI_sfSendPlayerStateATRequest
00072b10   __APP_MDI_sfSendRepeatModeATRequest
00072b50   __APP_MDI_sfSendAutomaticPlayerNotificationATRequest
00072b7c   __APP_MDI_sfSendGetMetadataTypeATRequest
00072ba8   __APP_MDI_sfSendDgpsATRequest
00072be4   __APP_MDI_sfSendDgedATRequest
00072c5c   __APP_MDI_sfSendALCKATRequest
00072c88   __APP_MDI_sfSendPbsvATRequest
00072ff8   _UART_sfReInitialiseBuffer
000730b4   _UART_u8GetBufferStatus
000730e0   _UART_sfInit
000731b8   _UART_u16WriteBlock
00073230   _UART_sfWriteByte
00073234   _UART_u8ReadByte
00073238   _UART_u8ReadBlock
00073294   _UART_u8RxGetCount
000732b8   _UART1_TxISR
00073340   _UART1_RxISR
000733e8   _UART2_TxISR
0007346c   _UART2_RxISR
00073514   _UART_ErrorISR
000735a8   _UART_PrintStatistic
000736ec   _UART_bGetUartHardwareErrorStatus
0007378c   __VCR_sfHandleMoreOptionsEvent
00073910   __VCR_sfHandleSettingsEvent
00073ae0   __VCR_sfHandleRestoreFactorySettingsEvent
00073be8   __VCR_sfHandleBluetoothOptionsEvent
00073cc0   __VCR_sfHandleBluetoothPinEvent
00073e40   __VCR_sfHandleBluetoothPinCorrectEvent
00074104   __VCR_vResetNotRecogCmdErrFlags
000741b0   _BAP_DISP_HandleEvent
00074314   _BAP_DISP_Initialization
000743cc   _BAP_DISP_Start
00074444   _BAP_SD_Start
00074474   _BAP_DISP_ShutDown
000744ec   _BAP_SD_ShutDown
0007451c   _BAP_IndicationVoid
0007455c   _BAP_IndicationInt8
000745a0   _BAP_IndicationInt16
000745e4   _BAP_IndicationInt32
00074628   _BAP_IndicationByteSequence
0007475c   _BAP_IndicationError
000748c4   _BAP_DISP_SendMessage
000749d0   _BAP_Acknowledge
00074ac8   _BAP_SendDebugInfo
00074ad0   _disableint
00074ad4   _restoreint
00074d1c   _APP_PHONE_vHandleErmATOkEvent
00074d3c   _APP_PHONE_vHandleErmATErrorEvent
00074d5c   _APP_PHONE_vHandleErmStateChange
00074d6c   _APP_PHONE_vOnErmNotification
00075010   _APP_PHONE_vResetHangUpAllCallsRetries
000755bc   _APP_DEVICE_sfInitApp
0007560c   __APP_DEVICE_vReleaseContext
0007561c   __APP_DEVICE_vSendResultReleaseContext
00075850   _APP_DEVICE_vHandleEvents
00075b48   _APP_DEVICE_GetActiveServiceDeviceId
00075bd4   _APP_DEVICE_bIsDeviceType
00075cb8   _APP_DEVICE_bIsFactorySettingActive
00075cd0   _APP_DEVICE_bIsServiceClass
00075cec   _APP_DEVICE_bIsMajorDevClass
00075d04   _APP_DEVICE_bIsMinorDevClass
00075d1c   _APP_DEVICE_vOnAppCshdlNotification
00075d7c   _APP_DEVICE_vOnAppPhoneNotification
00075dd0   _APP_DEVICE_vOnAppPhoneBookNotification
00075e28   __APP_DEVICE_vNotifyApps
00075e68   _APP_DEVICE_vEmergencyReleaseContextFromAppSd
00075e74   _APP_DEVICE_vSetDeactivatePlayerPendingFlag
00075e80   _APP_DEVICE_vSetActivatePlayerPendingFlag
00075f80   _BAP_RequestVoid
00076004   _BAP_RequestInt8
00076098   _BAP_RequestInt16
00076134   _BAP_RequestInt32
000761d0   _BAP_RequestByteSequence
00076290   _BAP_RequestError
00076344   _BAP_InitSendBufferInt8
000763a0   _BAP_InitSendBufferInt16
0007640c   _BAP_InitSendBufferInt32
00076478   _BAP_InitSendBufferByteSequence
00076564   _BAP_Init
00076570   _BAP_Start
00076650   _BAP_Shutdown
0007665c   _BAP_BPL_DataReceived
0007677c   _BAP_BPL_ErrorIndication
00076780   _BAP_BPL_Acknowledge
000767b0   _Trace_vInit
00076810   _Trace_PrintStatistic
00076944   _Debug_Text
00076a5c   _Debug_Value1
00076b84   _Debug_Value2
00076cac   _Debug_Value4
00076dd4   _Debug_String
00076dd8   _Debug_State1
00076f00   _Debug_State2
0007705c   _APP_SD_LC_u16GetStartIndex
0007708c   _APP_SD_LC_u16GetElemsLeft
000770ec   _APP_SD_LC_u16GetNextListIndex
00077114   _APP_SD_LC_vRequestData
000771b0   _APP_SD_LC_bDataNeed
000771cc   _APP_SD_stGetListBuffer
00077228   _APP_SD_LC_vScrollUpDown
00077258   _APP_SD_LC_vButtonUpDown
00077380   _APP_SD_LC_sfSendListFrame
0007757c   _APP_SD_LC_u16GetSelectedIndex
000775ac   _APP_SD_LC_sfSetSelectedIndex
000778b4   _TP_vGetVersionInfo
000778e0   _TP_vInit
00077930   _TP_vInitChannel
00077940   _TP_vTask
00077b68   _TP_ubApplDataReq
00077bcc   _TP_eGetApplState
00077bd8   _TP_uwApplDataInd
00077c04   _TP_vCancelRequest
00078014   _I2V_vCanDataCon
00078018   _I2V_ubCanDataPrecopy
000780ec   _osSchedulePrio
00078198   _osStartOSc
0007831c   _osShutdownOS
00078328   _osFillSystemStack
00078344   _osStackOverflow
0007834c   _osSystemStackOverflow
00078354   _osGetStackUsage
000783b8   _osGetSystemStackUsage
000783ec   _osDefVectWarning
00078404   _osSaveDisableGlobal
0007841c   _osRestoreEnableGlobal
0007843c   _osSaveDisableLevelNested
00078498   _osRestoreEnableLevelNested
000784f4   _osSaveDisableGlobalNested
00078550   _osRestoreEnableGlobalNested
000785b0   _osOccupyInternalResource
000785c4   _EnableAllInterrupts
00078618   _DisableAllInterrupts
00078664   _ResumeOSInterrupts
000786d0   _SuspendOSInterrupts
0007873c   _ResumeAllInterrupts
000787ac   _SuspendAllInterrupts
00078898   _SDS_UDS_vInitialiseService2F
000788d0   __SDS_UDS_vService2F_CallApp_Diag
00078c24   _UDS_ubDiagService2F
00078e5c   _SDS_UDS_vTimerHandlingStellgliedTests
00078fe4   _SDS_UDS_u8GetStatusActuatorTest
00079070   _SDS_UDS_vInitialiseServiceDataDownload
00079080   _SDS_UDS_vChecksumStart
000790e0   __SDS_UDS_ubChecksumStatus
0007918c   _UDS_ubDiagService35
00079214   _UDS_ubDiagService36
00079444   _UDS_ubDiagService34
000795e0   _UDS_ubDiagService37
00079784   _SDS_UDS_GetAdditionalDataDownloadStatus
00079828   _EEPROM_vLayoutInit
00079900   _EEPROM_sfRamWriteOnly
00079a6c   _IsElemInBlock
00079aa4   _AvoidEEPROMWrite
00079b20   _EEPROM_LAYOUT_rcWrite
00079c88   _EEPROM_LAYOUT_vCheckPendingFlags
00079fb8   _APP_PHONEBOOK_BAP_vOnAppSmsNotification
0007a068   _APP_PHONEBOOK_BAP_vOnAppPBNotification
0007a158   _APP_PHONEBOOK_BAP_vOnErmNotification
0007a16c   _APP_PHONEBOOK_BAP_vOnAppCshdlNotification
0007a234   _APP_PHONEBOOK_BAP_vOnAppDeviceNotification
0007a43c   __APP_PHONEBOOK_BAP_sfUpdatePbDwldState
0007a5a4   __APP_PHONEBOOK_BAP_vOnSendSmsCb
0007a5dc   __APP_PHONEBOOK_BAP_vOnReadSmsCb
0007a604   __APP_PHONEBOOK_BAP_vOnMarkSmsAsReadCb
0007a61c   __APP_PHONEBOOK_BAP_vOnHandleDeleteSmsCb
0007a644   __APP_PHONEBOOK_BAP_vOnSearchPbCb
0007a6b4   __APP_PHONEBOOK_BAP_vOnPbStartDownloadCb
0007a6e4   __APP_PHONEBOOK_BAP_vOnReadMissedCallsCb
0007a6ec   __APP_PHONEBOOK_BAP_vOnReadDialedListCb
0007a6f4   __APP_PHONEBOOK_BAP_vOnReadRecvCallsListCb
0007a6fc   __APP_PHONEBOOK_BAP_vOnReadUsersPbCb
0007a748   _APP_DEVICE_AudioManager_sfInitApp
0007a788   _APP_DEVICE_AM_sfGetMute
0007a958   _APP_DEVICE_AM_vReleaseMute
0007aac8   _APP_DEVICE_AM_vHandlePASA
0007ab68   _APP_DEVICE_AM_vOnAppCshdlNotification
0007ab94   _APP_DEVICE_AM_vSetMuteDelayDiag
0007aba8   _APP_DEVICE_AM_vSetCooperativeMuteDiag
0007ac58   _APP_DEVICE_AM_cbWaitForCANAck
0007ac88   _APP_DEVICE_AM_cbReleaseCanMute
0007acc4   _APP_DEVICE_AM_vRadioInfoReceived
0007ada8   _APP_DEVICE_AM_vSetAudioMuteByWireDiag
0007ae1c   _APP_DEVICE_AMGetActiveSource
0007aec8   _LOGI_BUT_MAN_sfInit
0007b170   _LOGI_BUT_MAN_vHandleEvents
0007b454   _LOGI_BUT_MAN_sfGetFailureValue
0007b494   _LOGI_BUT_MAN_u8GetButtonStatus
0007b510   _LOGI_BUT_MAN_vRollRadDebouncingFunction
0007b5b8   _BAP_DISP_InitSendbuffer
0007bc8c   _APP_PHONE_BAP_sfInitApp
0007bca8   _APP_PHONE_BAP_vHandleEvents
0007bd90   _APP_PHONE_BAP_ERM_vHandleErmStateChange
0007bda4   _APP_PHONE_BAP_vOnErmNotification
0007bf54   _APP_PHONE_BAP_vOnAppCshdlNotification
0007bfb4   _APP_PHONE_BAP_vOnAppDeviceNotification
0007c0f8   __APP_PHONE_BAP_vSetBasicMobileServiceSupport
0007c1a4   __APP_PHONE_BAP_vDisconnectActiveUserOnCK5050ShutDown
0007c208   __APP_PHONE_BAP_vDelayUserActivation_Cb
0007c280   _APP_PHONE_BAP_bIsUserActivated
0007c338   _APP_DEVICE_rcBackupEeprom
0007c424   _APP_DEVICE_rcResetToFactorySetting
0007c48c   __APP_DEVICE_sfHandlePendingUpdateBackupAreaEeprom
0007c588   __APP_DEVICE_sfHandlePendingResetToFactorySetting
0007c8c4   __APP_DEVICE_vOnWriteDefaultInEeprom_Cb
0007c8e8   __APP_DEVICE_vOnDeleteAllUserProfileCK5050p_Cb
0007c8fc   _APP_DEVICE_vHandleErmStateChange
0007c914   __APP_DEVICE_vDisconnectProfile_Cb
0007c9e0   _osActivateTask
0007cb14   _osSysActivateTask
0007cbec   _osTerminateTask
0007cce4   _osChainTask
0007ce90   _osSchedule
0007cf6c   _osGetTaskID
0007cfbc   _osGetTaskState
0007d07c   _PHY_BUT_DRV_sfPL_Cradle_Init
0007d0cc   __PHY_BUT_DRV_enGetState_Cradle
0007d464   _PHY_BUT_DRV_bGetTelephoneConnectivity
0007d4a0   _PHY_BUT_DRV_bGetCradleConnectivity
0007d4ac   _PHY_BUT_DRV_bGetBasePlateConnectivity
0007d4c8   _PHY_BUT_DRV_vOnAppCshdlNotification
0007d5f8   _PHY_BUT_DRV_sfSwitchBasePlateVoltageDiagnostics
0007d690   _PHY_BUT_DRV_vStartup
0007d69c   _PHY_BUT_DRV_u8GetVariantType
0007d704   _APP_SD_SC_vInitSpeller
0007d74c   _APP_SD_SC_vSetSpellLimit
0007d75c   _APP_SD_SC_vSetDefaultCtrlSelection
0007d778   _APP_SD_SC_vSetSpelledText
0007d7c4   _APP_SD_SC_vButtonUpDown
0007d894   _APP_SD_SC_vButtonOk
0007d9b8   _APP_SD_SC_vReadSelectionText
0007db54   _APP_SD_SC_vReadSpelledText
0007db70   _APP_SD_SC_bGetLastSpelledChar
0007dd40   _ApplNmWriteUserData
0007dee0   _ApplNmCanNormal
0007df04   _ApplNmCanSleep
0007df44   _ApplNmCanBusSleep
0007df90   _ApplNmBusOffEnd
0007dfac   _ApplNmBusOff
0007e020   _ApplCheckLimphome
0007e1e4   _ApplHandleBusOffWaitingTime
0007e2a0   _IsBusOff
0007e2ac   _IsCanActive
0007e2b8   _ApplNmWaitBusSleep
0007e2c0   _ApplNmWaitBusSleepCancel
0007e2e0   _ApplNmBusStart
0007e364   _APP_COMMON_UTILS_u16GetBapString
0007e3a0   _APP_COMMON_UTILS_u8CalcBapStringNumLenBytes
0007e3b0   _APP_COMMON_UTILS_u16WriteBapString
0007e3ec   _APP_COMMON_UTILS_u16GetUint16Type
0007e40c   _APP_COMMON_UTILS_vSetUint16Type
0007e41c   _APP_COMMON_UTILS_vSetUpperNibble
0007e430   _APP_COMMON_UTILS_vSetLowerNibble
0007e448   _APP_COMMON_UTILS_vSendBapError
0007e4d4   _APP_COMMON_UTILS_stSetOsekRelAlarm
0007e50c   _APP_COMMON_UTILS_bIsAlarmActive
0007e52c   _APP_COMMON_UTILS_stCancelOsekRelAlarm
0007e550   _APP_COMMON_UTILS_stGetTimeoutLeft
0007e554   _APP_COMMON_UTILS_sfFreeBapIndication
0007e5a4   _APP_COMMON_UTILS_sfFreeBapRequest
0007e5f4   _APP_COMMON_UTILS_sfFreeAtResponse
0007e64c   _APP_COMMON_UTILS_stSendBapRequest
0007e6d8   _APP_COMMON_UTILS_sfSendBapResultRequestNoData
0007e744   _APP_COMMON_UTILS_sfSendEmptyBapArray
0007e83c   _APP_COMMON_UTILS_sfConvertAtSmsDate
0007e8d4   _APP_COMMON_enGetUtf8Type
0007e928   _APP_COMMON_u32GetSDBM_Hash
0007ec18   _MONITOR_ADC_sfReadADCValueForDTCs
0007edf4   _MONITOR_ADC_sfInit
0007ee64   _MONITOR_ADC_u16GetMovingAverageADCValueRadioMute
0007ee70   _MONITOR_ADC_u16GetMovingAverageADCValueU7V5
0007ee7c   _MONITOR_ADC_u16GetMovingAverageADCValueMikrophonePlus
0007ee88   _MONITOR_ADC_u16GetMovingAverageADCValueMikrophoneMinus
0007ee94   _MONITOR_ADC_u8GetMikrophoneCurrentDrain
0007eed4   _MONITOR_ADC_u16GetMovingAverageADCValueAudioLeftPlus
0007eee0   _MONITOR_ADC_u16GetMovingAverageADCValueAudioLeftMinus
0007eeec   _MONITOR_ADC_u16GetMovingAverageADCValueAudioRightPlus
0007eef8   _MONITOR_ADC_u16GetMovingAverageADCValueAudioRightMinus
0007ef04   _MONITOR_ADC_u16GetMovingAverageADCValue3BM
0007ef10   _MONITOR_ADC_u16GetMovingAverageADCValueBaseplate
0007ef1c   _MONITOR_ADC_u16GetMovingAverageADCValueAntenna
0007ef28   _MONITOR_ADC_u16GetMovingAverageADCValueTemperature
0007ef34   _MONITOR_ADC_u16GetMovingAverageADCValueUBatt
0007ef40   _MONITOR_ADC_u8GetValidSignalForErrorDetection
0007f380   _BAP_BCL_SendError
0007f388   _BAP_BCL_Send
0007f390   _BAP_BCL_ResendWithOpCode
0007f3b4   _BAP_BCL_BufferSet
0007f3bc   _BAP_BCL_Init
0007f3d8   _BAP_BCL_Start
0007f488   _BAP_BCL_TaskSend
0007f498   _BAP_BCL_ReadRingbuffer
0007f49c   _BAP_BCL_TaskRxNotify
0007f578   _CRC_sfManagerInit
0007f5bc   _resetCRCValueForAddress
0007f630   _CRCIsAnyJobPending
0007f698   _CrcManager
0007f6f8   _StartCRCJob
0007f708   _CompleteEECrcCheckDone
0007fad8   _APP_DEVICE_vHandleErmATResultEvent
0007fb68   __APP_DEVICE_vOnServiceActivationResult
0007fc60   __APP_DEVICE_vOnPhoneServiceActivationResult
0007fd2c   __APP_DEVICE_vOnServiceDeactivationResult
0007fdac   __APP_DEVICE_vOnPhoneServiceDeactivationResult
0007fe30   _APP_DEVICE_vOnErmNotification
0007fe50   __APP_DEVICE_Connection_vOnErmNotification
0007fee0   __APP_DEVICE_Profiles_vOnErmNotification
0007ff64   __APP_DEVICE_E2P_Backup_R2FS_vOnErmNotification
0008002c   _osMemCpy2
000800a8   _osStartCOM
000800c8   _osStopCOM
000800ec   _osSendMessage
00080274   _osReceiveMessage
00080404   _osGetMessageResource
00080450   _osReleaseMessageResource
0008048c   _osGetMessageStatus
0008055c   _osReturnEOK
00080570   _AT_Cmd_Handler_MDI
00080ae0   _POOL_sfInit
00080be8   _POOL_sfRestorePoolId
00080c38   _POOL_sfAllocate
00080dc0   _POOL_enGetAllocateErrorCode
00080dcc   _POOL_sfFree
00080f3c   _POOL_sfGetCurrentPoolSize
00080f50   _POOL_sfGetMaximumPoolSize
00080f64   _POOL_sfGetPoolElementSize
00080f78   _POOL_enGetFreeErrorCode
00080f84   _POOL_enGetInitErrorCode
00080f90   _POOL_sfSetAllocateCallback
00080fa0   _POOL_sfSetFreeCallback
00080fb0   _POOL_sfSetInitCallback
00080ff8   _SDS_UDS_vInitialiseService31
00081024   _UDS_ubDiagService31
000815f8   _BAP_BAL_CheckRequest
0008174c   _BAP_BAL_CheckDataReceived
00081818   _BAP_BAL_InitFSGBuffers
000818c4   _BAP_BAL_Int16toDataStream
000818d4   _BAP_BAL_DataStreamToInt16
000818fc   _BAP_BAL_Int32toDataStream
0008191c   _BAP_BAL_DataStreamToInt32
00081948   _BAP_BAL_CheckIfFunctionIsValid
00081998   _BAP_BAL_FsgDataReceived
00081a2c   _BAP_BAL_GetAcknowledge
00081a4c   _UDS_ubIsActive
00081a64   _UDS_vSetReady
00081a70   _UDS_vGetVersionInfo
00081a98   _UDS_vInit
00081ac4   _UDS_vInitClient
00081ad0   _UDS_ubIgnoreFuncReq
00081b2c   _UDS_vTask
00081e78   _UDS_ubSetSession
00081eb4   _UDS_ubGetSession
00081efc   _UDS_ubIsIdle
00081f24   _UDS_ubSendMsg
00081f58   _AT_Cmd_Handler_Phonebook
00082460   _osSetEvent
000825c8   _osSysSetEvent
000826c8   _osClearEvent
00082778   _osGetEvent
00082810   _osWaitEvent
0008295c   _AT_Cmd_Handler_Tel
00082e50   __APP_MDI_vReInitApp
00082e70   __APP_MDI_vReleaseContext
00082eac   __APP_MDI_vSendResultReleaseContext
00082edc   __APP_MDI_vJobManager
00082f70   __APP_MDI_sfGetNextJob
00083000   __APP_MDI_sfHandlePendingFunction
000831e4   _APP_MDI_cbMuteGetAck
000832c4   _APP_MDI_vHandleErmATResultEvent
00083374   _APP_MDI_ERM_vHandleErmStateChange
00083378   _APP_MDI_ERM_vHandleErmNotification
00083734   __APP_PHONE_AT_REQUEST_sfDialNumber
000837c0   __APP_PHONE_AT_REQUEST_sfDialIndex
00083804   __APP_PHONE_AT_REQUEST_sfRedial
00083828   __APP_PHONE_AT_REQUEST_sfDialNumberType
00083858   __APP_PHONE_AT_REQUEST_sfAcceptCall
0008387c   __APP_PHONE_AT_REQUEST_sfHangUp
000838a8   __APP_PHONE_AT_REQUEST_sfPhoneStatus
000838cc   __APP_PHONE_AT_REQUEST_sfCallState
000838f0   __APP_PHONE_AT_REQUEST_sfHandleCallInfo
00083914   __APP_PHONE_AT_REQUEST_sfSendDTMF
00083940   __APP_PHONE_AT_REQUEST_sfPlpdRequest
0008396c   __APP_PHONE_AT_REQUEST_sfCallHold
000839a0   __APP_PHONE_AT_REQUEST_sfCallReplace
000839d0   __APP_PHONE_AT_REQUEST_sfResumeCall
00083a0c   __APP_PHONE_AT_REQUEST_sfHeadsetOnOff
00083a38   __APP_PHONE_AT_REQUEST_sfHandsFreeOnOff
00083a64   __APP_PHONE_AT_REQUEST_sfMicroMuteOnOff
00083a90   __APP_PHONE_AT_REQUEST_sfSwitchCalls
00083ab4   __APP_PHONE_AT_REQUEST_sfJoinToConference
00083ae8   __APP_PHONE_AT_REQUEST_sfSplitCallFromConference
00083b24   __APP_PHONE_AT_REQUEST_sfPutCallsThrough
00083b58   __APP_PHONE_AT_REQUEST_sfRequestHfpVersion
00083b98   _BAP_BPL_ResendStatus
00083bc4   _BAP_BPL_Send
00083c58   _BAP_BPL_SendError
00083cac   _BAP_BPL_Init
00083cf4   _BAP_BPL_Start
00083d40   _BAP_BPL_TaskHeartbeatDispatcher
00083e00   _BAP_BCL_ErrorIndication
00083e04   _BAP_BCL_DataReceived
00083e4c   _BAP_BPL_TaskProcessingDispatcher
00083fe0   _BAP_BCL_Acknowledge
00083fec   _osGetAlarmBase
00084060   _osGetAlarm
00084100   _osSetRelAlarm
00084214   _osSetAbsAlarm
00084340   _osCancelAlarm
00084424   _EEPROM_sfInit
0008447c   _EEPROM_sfRead
00084550   _EEPROM_rcWrite
0008464c   _EEPROM_vManager
0008480c   _EEPROM_flagIsEEFree
00084858   _EEPROM_vLayoutCfgInit
00084894   _EEPROM_LAYOUT_vGetFallbackLanguage
000848b4   _EEPROM_LAYOUT_vGetAudioParameterSet
000848d4   _EEPROM_LAYOUT_vGetPlayerEnabled
00084910   _EEPROM_LAYOUT_vGetVoiceControl
00084934   _EEPROM_LAYOUT_vGetPhonebookSortOrder
00084958   _EEPROM_enGetMaskingLanguage
00084990   _EEPROM_LAYOUT_vGetRooflineMode
000849b0   _EEPROM_LAYOUT_vGetAntennaDiag
000849ec   _EEPROM_LAYOUT_vGetBaseplateDiag
00084a18   _EEPROM_LAYOUT_vGetCradleProtection
00084a44   _EEPROM_enGetMuteDelay
00084a78   _EEPROM_LAYOUT_vGetCooperativeMuteType
00084a98   _EEPROM_LAYOUT_vGetCDMADetection
00084ab8   _EEPROM_enGetBluetoothPin
00084b68   _EEPROM_enGetEepromLayoutVersionNumber
00084dd0   _osInsertMinHeap
00084e44   _osRemoveItemMinHeap
00084f08   _osWorkAlarms
00084fd8   _osInitAlarms
000850ac   _InitDEHFaultData
00085100   _DEH_InitEEPROM
0008511c   _APL_DEH_EEPReadEventData
00085140   _APL_DEH_EEPWriteEventData
000851ec   _APL_DEH_EEPWriteHandleRetries
0008529c   _APL_DEH_IsDEHData_SuccessfulRegisterToEEprom
000852a8   _APL_DEH_ReadStdFF
000853a8   _APL_DEH_ReadUnlearnCounter
00085428   _APL_DEH_ReadStatusOfDTC
00085430   _APL_DEH_WriteStatusOfDTC
00085438   _DEH_AdditionalReportEvent
000854c4   _MFL_vParameterAnalysis
00085894   _AT_Cmd_Handler_Sms
00085c28   _BAP_DISP_GetAckQueueCtrl
00085c5c   __BAP_DISP_GetQueueSize
00085d40   _BAP_DISP_RemoveQueueElement
00085da4   _BAP_DISP_RemoveAllQueueElements
00085ed4   _BAP_DISP_SendMessageWithAck
00085fa0   _APP_PHONE_vHandleATResponse
00086314   _SDS_UDS_vInitialiseServiceSecurityCheck
00086358   _ubCheckKeyValid
000863c0   _SDS_UDS_u8GetBootloaderTimeLockState
000863dc   _SDS_UDS_vSetBootloaderTimeLockState
000863f0   _SDSext_ubDiagService27
00086684   _APP_COMMON_BAP_ARRAY_sfGetDefaultStatusArray
000866ec   _APP_COMMON_BAP_ARRAY_sfGetChangedArray
00086768   _APP_COMMON_BAP_ARRAY_u16GetHeaderLength
0008677c   _APP_COMMON_BAP_ARRAY_sfReadHeader
000867d8   _APP_COMMON_BAP_ARRAY_u8WriteHeader
00086830   _APP_COMMON_BAP_ARRAY_sfIsHeaderSizeValid
0008685c   _APP_COMMON_BAP_ARRAY_sfConvSWArrayHeader
00086988   _APP_COMMON_BAP_ARRAY_sfSetPos
000869c0   _APP_COMMON_BAP_ARRAY_sfGetPos
000869dc   _osGetResource
00086b7c   _osReleaseResource
00086d28   __VCR_sfHandleDeleteAllVTConfirmEvent
00086ec8   __VCR_sfHandleVoiceMemosEvent
00086f0c   __VCR_sfHandleVoiceMemosPlayEvent
00086f50   __VCR_sfHandleVoiceMemosPlayOptionsEvent
00086f94   __VCR_sfHandleVoiceMemosConfDeleteEvent
00086fd8   __VCR_sfHandleVoiceMemosConfDeleteAllEvent
000870b8   _osDirectSWIDispatcher
000870bc   _osDispatcher
0008727c   _osUndefInstruction
00087280   _osSWI
000872b4   _osPrefetchAbort
000872b8   _osDataAbort
000872bc   _osFIQ
000872c0   _osUnhandledExceptionWrapper
000872c4   _osStartOSasm
00087354   _Pwrmgr_Manager
00087478   _Pwrmgr_Manager_Handler_For_Rapid_Voltage_Changes
000874f8   _Pwrmgr_Init
00087510   _Pwrmgr_Handler_Init_For_Rapid_Voltage_Changes
00087608   _Pwrmgr_GetPowerManagerState
00087614   _Pwrmgr_GetCurrentScope
00087620   _Pwrmgr_GetCurrentScopeEigenDiag
0008762c   _Pwrmgr_GetVoltageState
00087638   _Pwrmgr_GetRapidPwrmgrVoltage
00087664   _APP_CSHDL_sfInitApp
00087694   _APP_CSHDL_vHandleEvents
000877a0   _APP_CSHDL_vCk5050ShutDownHandled
00087918   _APP_CSHDL_eGetCshdlState
00087924   _APP_CSHDL_eGetCradleRestrictionState
00087950   _UART_vResetEnter
000879b4   _UART_vResetExit
000879c4   _UART_vSetClockModeSource
000879d4   _UART_vConfigureCommControlReg
00087a14   _UART_vConfigureBaudRate
00087a44   _UART_vConfigureInterrupt
00087acc   _UART_vPinModify
00087b90   _UART_vHWTransmitByte
00087b98   _UART_u8HWReceiveByte
00087ba0   _UART_vConfigurePeripheral
00087bd8   _UART_u8GetRxStatus
00087be8   _UART_vClearErrors
00087c38   __EEPROM_LAYOUT_vOffsetMasking_0_31
00087c9c   __EEPROM_LAYOUT_vLengthMasking_0_31
00087d14   __EEPROM_LAYOUT_vOffsetMasking_32_63
00087d1c   __EEPROM_LAYOUT_vLengthMasking_32_63
00087d2c   _EEPROM_enGetEepromValues
00087e4c   _EEPROM_enGetSingleByteFromRamMirror
00087e58   _EEPROM_enGetU8FromRamMirror
00087e64   _EEPROM_enGetU16FromRamMirror
00087e70   _EEPROM_enGetU32FromRamMirror
00087e7c   _EEPROM_enGetByteSequenceFromRamMirror
00087ee0   _CAN_vPortSet
00087f40   _CAN_vPortClear
00087fa0   _CAN_vPortRead
00087fbc   _PORT_vInit
0008817c   _SPI_sfInit
000882cc   _SPI_sfExchangeBlock
00088360   _SPI_sfWriteBlock
000883f8   _SPI_sfIsDeviceReady
00088418   _APP_PHONE_CAN_DATA_vOnAppPhoneNotification
000884c0   __APP_PHONE_CAN_DATA_vSendPhoneOn
000884f8   __APP_PHONE_CAN_DATA_vSendPhoneActiveCall
00088530   __APP_PHONE_CAN_DATA_vSendPhoneRing
00088568   __APP_PHONE_CAN_DATA_vSendProvider
000885d0   __APP_PHONE_CAN_DATA_vSendFieldStrength
00088608   __APP_PHONE_CAN_DATA_vSendRegisterState
00088640   __APP_PHONE_CAN_DATA_vMapAndSendRegisterState
000886b0   ULL_DIV
000886b0   ULL_MOD
0008893c   _getEEAppTaskControl
00088944   _InitAppTask
00088ad4   _AppTask_event_100ms
00088bb0   _SDS_UDS_u8ProcessorStartUpDiagnoseSequence
00088f3c   _BAP_BCL_InhibitTimerTask
00088f60   _BAP_BCL_InterTelegramTimerTask
00088f98   _BAP_BCL_InitLsgRamAreas
00089020   _APP_SMS_vHandleATResponse
0008904c   __APP_SMS_enGetNextInitState
000890b0   __APP_SMS_sfSendSetCharsetATRequest
000890e8   __APP_SMS_sfSendStartSynchroATRequest
00089118   __APP_SMS_sfSendSmsFolderSizeATRequest
00089148   __APP_SMS_sfRequestSms
000891c8   __APP_SMS_sfRequestSmsPreview
0008920c   __APP_SMS_sfSendSmsDeleteATRequest
00089244   _SDS_UDS_vInitialiseServiceDTC
00089248   _SDS_UDS_u16CalculateDtcMaskierung
000893ac   _SDS_UDS_u8GetKundenDienstBit
00089464   FD_SUB
00089470   FD_ADD
00089678   _AT_Cmd_Handler_Device
00089888   _GIO_vPinModify
00089928   _GIO_u32PortRead
00089948   _GIO_u8PinRead
00089974   _GIO_vPinWrite
000899ac   _GIO_vPortSet
000899c8   _GIO_vPortClear
000899e4   _GIO_vIntEnable
00089a2c   _GIO_vIntDisable
00089a44   _GIO_IntGlobalInit_V
00089a84   _APP_DEVICE_vHandleATResponse
00089aec   _APP_DEVICE_GetPASAEvent
00089af8   _APP_DEVICE_InitPASAEvent
00089b08   __APP_DEVICE_sfStartServiceATRequest
00089b44   __APP_DEVICE_sfStopServiceATRequest
00089b84   __APP_DEVICE_sfConnectDeviceATRequest
00089bb8   __APP_DEVICE_sfDisconnectDeviceATRequest
00089bec   __APP_DEVICE_sfSendALCKATRequest
00089c18   __APP_DEVICE_sfSendGetImsiRequest
00089c3c   __APP_DEVICE_sfSendPbsvATRequest
00089d90   _APP_PHONEBOOK_vHandleErmATOk
00089db0   _APP_PHONEBOOK_vHandleErmATError
00089dd0   _APP_PHONEBOOK_vOnErmNotification
00089e34   _APP_PHONEBOOK_ERM_vHandleErmStateChange
00089e54   _getEEHostControl
00089e5c   _InitHostTask
00089f14   _HostTask_10ms
0008a030   _SDSext_vResetSecurityAccessEffected
0008a044   _SDSext_vSetProgRequest
0008a060   _SDSext_ubZeroVehicleOrEngineSpeed
0008a0b0   _SDSext_ubPowerDown
0008a0b8   _SDSext_ubComCtrl
0008a150   _SDSext_vDoReset
0008a20c   __ERM_ReleaseUart
0008a270   __ERM_GetUart
0008a344   __ERM_vStartUartSupervision
0008a354   __ERM_vStopUartSupervision
0008a35c   _ERM_UartSupervision
0008a378   _ERM_Execute_HW_Reset
0008a394   _ERM_PWNG4_Execute_HW_Reset
0008a3e0   _strtoul
0008a594   _SDSext_EEPReadUniversalData
0008a5f0   _SDSext_EEPWriteUniversalData
0008a648   _SDSext_EEPWriteUniversalData_WithRetryMechanism
0008a73c   _ADC_SWResetEnter_V
0008a768   _ADC_SWResetExit_V
0008a778   _ADC_sfConfigureInitRegister
0008a794   _ADC_sfConvStart_PL
0008a864   _ADC_u16ReadChannel
0008a878   _ADC_vConfigureInterrupt
0008a8d0   FD_DIV
0008abe4   C_MEMCPY
0008ad64   __VCR_sfHandleMusicEvent
0008aedc   _SYSINIT_sfHwInit
0008aef0   _SYSINIT_sfPeripheralsInit
0008af64   _SYSINIT_sfSwInit
0008b004   _SYSINIT_sfInit
0008b054   _FBLDATA_sfUpdateAfterReflash
0008b1c4   _SPI_vPinModify
0008b25c   _SPI_vResetEnter
0008b26c   _SPI_vResetExit
0008b27c   _SPI_vConfigureBaudRate
0008b2ac   _SPI_vSetCharLength
0008b2bc   _SPI_vSetMode
0008b2cc   _SPI_vConfigureInterrupt
0008b2fc   _SPI_vPortClear
0008b304   _SPI_vPortSet
0008b30c   _SPI_bPinRead
0008b33c   _isOsStarted
0008b430   _ErrorHook
0008b450   _StartupHook
0008b464   _osPreTaskHook
0008b480   _WriteProtReg
0008b494   _DisableIrq
0008b4ac   _EnableIrq
0008b4c4   _ApplCanAddCanInterruptDisable
0008b4d8   _ApplCanAddCanInterruptRestore
0008b508   _ApplCanMsgReceived
0008b510   _ApplCanOverrun
0008b514   _ApplCanFullCanOverrun
0008b518   _ApplCanMsgDlcFailed
0008b51c   _BusTransceiverToNormal
0008b540   _BusTransceiverToStandby
0008b544   _BusTransceiverToSleep
0008b554   _BusTransceiverToPowerOn
0008b578   _App_BapDiagnoseSwitch
0008b57c   _BAP_BCL_CanRxPreCopy
0008b5b4   _App_SysInfoSwitch
0008b5b8   _ApplCanFatalError
0008b5d4   _SDS_vGetVersionInfo
0008b5f8   _SDS_vInit
0008b608   _SDS_vTask
0008b60c   _UDS_ubDiagService28
0008b674   _UDS_ubDiagService3E
0008b698   _UDS_ubDiagService85
0008b71c   _BAP_DBG_Task
0008b7b8   _BAP_ProcessDebugControl
0008b860   _UDS_vDiagTimeout
0008b870   _SDS_UDS_ubDiagService23
0008b920   _UDS_ubDiagService27
0008b9a4   _OsHostTask_10msfunc
0008b9dc   _OsMonitorTask_50msfunc
0008ba14   _OsDriverTask_1msfunc
0008ba4c   _OsAppTask_event_100msfunc
0008ba74   _OsDatabaseTask_eventfunc
0008ba9c   _OsSystemTask_eventfunc
0008badc   _BAP_BPL_SetNextFctIndex
0008bb50   _BAP_BPL_StopRetries
0008bbb4   _BAP_BPL_RetriggerHeartbeat
0008bbcc   _BAP_BPL_InitializeHeartbeat
0008bc14   _c_int00
0008bd44   _PHY_BUT_DRV_sfPL_3BM_Init
0008bd68   __PHY_BUT_DRV_enGetState_3BM
0008be74   __AppTask_vInitAlarm
0008be84   __AppTask_vHandleAlarm
0008bf48   _AppTask_vSetAlarm
0008bf78   _AppTask_vClearAlarm
0008bf9c   FD_MUL
0008c0c4   _PHY_BUT_DRV_sfPL_Init
0008c140   _PHY_BUT_DRV_vPL_handle
0008c1ec   _ADC_sfInit
0008c254   _ADC_u16GetAdcValue
0008c290   _ADC_sfConvStart
0008c304   _getEEMonitorControl
0008c30c   _InitMonitorTask
0008c348   _MonitorTask_50ms
0008c408   _APP_SMS_vHandleErmAtResult
0008c498   _APP_SMS_vHandleErmATOk
0008c4b0   _APP_SMS_vHandleErmATError
0008c4c8   _APP_SMS_ERM_vHandleErmStateChange
0008c4d8   _APP_SMS_vOnErmNotification
0008c508   I$MOD
0008c508   I$DIV
0008c50c   I_MOD
0008c50c   I_DIV
0008c608   _osInitTimer
0008c694   _osTimerInt
0008c6fc   _osInitISRprios
0008c704   _snprintf
0008c800   _BAP_CANUBS_TxData
0008c884   _BAP_CANUBS_IsReadyForTx
0008c8ac   _BAP_CANUBS_InitReadyForTx
0008c8f8   _APP_COMMON_vHandleEvents
0008c9ec   _EEPROM_sfHwInit
0008ca1c   _EEPROM_sfHwWriteBlock
0008ca8c   _EEPROM_sfHwReadBlock
0008cae0   U$MOD
0008cae0   U$DIV
0008cae4   U_DIV
0008cae4   U_MOD
0008cbc0   _BAP_GetLsgRomRow
0008cc1c   _BAP_GetLsgFctRomRow
0008cc8c   _BAP_InitInternalParameters
0008cca0   _APP_CAN_Speed_vSpeedHandler
0008cd40   _APP_CAN_Speed_un16CurrentVehicleSpeed
0008cd78   _osAbortSystem
0008cd9c   _osAssertFailed
0008cdb0   _osErrorHook
0008ce1c   _osMissingTerminateError
0008ce24   _osUnhandledException
0008ce5c   _osCheckInterruptsEnabled
0008ce70   _osCheckInterruptsDisabled
0008ce84   _osDisableLevel
0008ce98   _osEnableLevel
0008ceac   _osDisableGlobal
0008cec0   _osEnableGlobal
0008ced0   _osSaveDisableLevel
0008ceec   _osRestoreEnableLevel
0008cf0c   FD_CMP
0008cfcc   _TEMPERATURE_sfInit
0008cfdc   _TEMPERATURE_sfManager
0008d068   _TEMPERATURE_u8GetTemperature
0008d080   $memset
0008d084   _memset
0008d124   _getEEDBControl
0008d12c   _InitDatabaseTask
0008d170   _DatabaseTask_event
0008d1c4   _sprintf
0008d260   _OSEK_TaskStackStatistic
0008d2ec   __AT_CheckPhoneNumer
0008d2fc   __AT_CheckDTMFValue
0008d33c   __AT_sFCmdReInitialiseUart
0008d374   _atoi
0008d3f8   _ltoa
0008d47c   __KPB_vStartAsgSupervision
0008d4a4   __KPB_vStopAsgSupervision
0008d4c0   __KPB_vStartFrameDataAckTimer
0008d4d0   __KPB_vStopFrameDataAckTimer
0008d4d8   _KPB_cbFrameDataAckTimeout
0008d4e4   _KPB_cbDisplayStatusOff
0008d500   _osInternalStartCOM
0008d54c   _osComResourcesAreTaken
0008d584   _InitDriverTaskCyclic
0008d5a4   _DriverTask_1ms
0008d5fc   _PHY_BUT_DRV_sfInit
0008d628   _PHY_BUT_DRV_vhandle
0008d66c   _LOGI_BUT_MAN_CRADLE_sfInit
0008d68c   _LOGI_BUT_MAN_bGetBasePlateConnectivity
0008d6a0   _LOGI_BUT_MAN_bGetCradleProtection
0008d6b4   _LOGI_BUT_MAN_bGetAntennaDiagnose
0008d6c8   _LOGI_BUT_MAN_vInitBaseplateAndAntenna
0008d6d0   _LOGI_BUT_MAN_3BM_sfInit
0008d6f0   _LOGI_BUT_MAN_u8GetMode_Roofline
0008d704   _LOGI_BUT_MAN_bGetRooflineModuleState
0008d724   _LOGI_BUT_MAN_vInit3BM
0008d72c   FD_TOI
0008d788   _InitSystemTask
0008d7bc   _SystemTask_event
0008d7d8   _WD_u8Init
0008d7f4   _WD_u8ToggleWD
0008d828   _Crc32Reset
0008d834   _Crc32Update
0008d874   _ApplInterruptFlagMask
0008d8c0   _strncpy
0008d908   I_TOFD
0008d944   _strncmp
0008d97c   _memcmp
0008d9b0   _BAP_Task
0008d9e0   _strrchr
0008da0c   _strcmp
0008da38   _strchr
0008da60   _memccpy
0008da88   IND_CALL
0008daa8   _OnmExtInit
0008daac   _OnmExtTask
0008dabc   _OnmExtConfirmation
0008dac0   _OnmExtPrecopy
0008dac4   _strlen
0008dae0   _MessageInit
0008daf4   _CanGetCpsr
0008dafc   _main
0008db00   ___etext__
0008db00   etext
0008db00   _BAP_InhibitRomTable
0008db3c   _BAP_InterTelegramTimerMappingTable
0008db58   _BAP_CanTxMsgIdToSegChannelMappingTable
0008db60   _BAP_CanRxMsgIdToSegChannelMappingTable
0008db64   _BAP_CanTxRomTable
0008e284   _BAP_CanRxRomTable
0008ead4   _BAP_BusIndTxTable
0008ef94   _BAP_BusIndRxTable
0008f324   _BAP_MapCanIdToLsgRomRowTable
0008f360   _BAP_MapCanIdByLsgToCanTxRomRowTable
0008f490   _BAP_FctRomTables
00090070   _BAP_BAPConfigTable
00090088   _BAP_LsgRomTables
00090158   _APP_SD_aStaticMailboxKeywords
00090bbc   _oskAlarmDefinitions
00090bc8   _oskTcbStackTop
00090be0   _oskTcbStackBottom
00090bf8   _oskTcbTaskStartAddress
00090c10   _oskTcbTaskPreemption
00090c18   _oskTcbTaskFlags
00090c20   _oskTcbAutoStart
00090c28   _oskTcbReadyPrioMask
00090c40   _oskTcbHomePrio
00090c4c   _oskResAccessMask
00090c6c   _oskResCeilingPrio
00090c7c   _oskResCeilingPrioMask
00090c9c   _oskAlarmTask
00090d04   _oskAlarmEvent
00090dd4   _oskAlarmCallback
00090ea4   _oskAlarmAction
00090ed8   _oskStaticAlarmTime
00090fa8   _oskStaticAlarmCycleTime
00091078   _oskAlarmAutoStart
000910ac   __APP_DEVICE_Default_UserTable
0009146c   _VwBt
0009148c   _SkodaBt
000914ac   _SeatBt
000914cc   _AudiBt
000914ec   _VwPin
000914f0   _SkodaPin
000914f4   _SeatPin
000914f8   _AudiPin
00091538   _crc32tab
00091938   _cs_ReadDataIdItem
00092058   _msgButtonStateInfo
0009205c   _msgPhoneBapIndication
00092060   _msgPhoneBapRequest
00092064   _msgPhoneBookBapIndication
00092068   _msgPhoneBookBapRequest
0009206c   _msgMdiBapIndication
00092070   _msgMdiBapRequest
00092074   _msgPwrmgrState
00092078   _msgCANInfotainmentInfo
0009207c   _msgAppCanStates
00092080   _msgKpbBapIndication
00092084   _msgKpbBapRequest
00092088   _msgAppDiagDiagnoseResponse
0009208c   _msgAppDiagDiagnoseRequest
00092090   _msgButtonStateInfo_Mfl
00092094   _msgTelefonStates
00092098   _msgHostTaskASRStatus
0009209c   _msgAppTaskSystemStates
000920a0   _msgApplATResponse
00092138   __ERM_stAudioTable
0009261c   _kGenMainVersion
0009261d   _kGenSubVersion
0009261e   _kGenBugfixVersion
00092620   _CanTxId0
0009265c   _CanTxDLC
0009266c   _CanTxDataPtr
000926a8   _CanTxApplConfirmationPtr
000926e4   _CanTxSendMask
000926f4   _CanConfirmationOffset
00092704   _CanConfirmationMask
00092714   _CanRxId0
00092768   _CanRxDataLen
00092780   _CanRxDataPtr
000927d4   _CanRxApplPrecopyPtr
00092828   _CanRxApplIndicationPtr
0009287c   _CanIndicationOffset
00092894   _CanIndicationMask
000928ac   _CanTxHwObj
000928bc   _CanInitBTC
000928c0   _CanInitLAM0
000928c4   _CanInitMID1
00092b60   _DEH_EventPathParameter
000938a4   _EEPROM_astBlockTable
000938e4   _EEPROM_au8RamMirrorTable
00093b7c   __ctypes_
00093d78   _charSet_digitDial
00093d88   _charSet_voiceMail
00093d94   _charSet_dtmf
00093da0   _charSet_passkey
00093dac   _charSet_alphaNumeric
00093dd4   _controlSet_digitDial
00093dd8   _controlSet_voiceMail
00093ddc   _controlSet_dtmf
00093de0   _controlSet_passkey
00093de4   _controlSet_alphaNumeric
00093de8   _gSpellConfig
00093e38   _DTC_Mask
00093ef8   _KPB_SIGNAL_STRENGTH
00093f54   _KPB_BATTERY_LEVEL
00093f68   _KPB_NEW_SMS_SYMBOL
00093f6c   _KPB_MISSED_CALLS_SYMBOLD
00093f70   _KPB_READ_SMS_SYMBOL
00093f74   _KPB_UNREAD_SMS_SYMBOL
00093f78   _KPB_PHONE_CAT_OFFICE_SYMBOL
00093f7c   _KPB_PHONE_CAT_HOME_SYMBOL
00093f80   _KPB_PHONE_CAT_MOBILE_SYMBOL
00093f84   _KPB_PHONE_CAT_OTHER_SYMBOL
00093f88   _KPB_PHONE_CAT_GENERAL_SYMBOL
00093f8c   _KPB_BLUETOOTH_SYMBOL
00093f90   _KPB_BLUETOOTH_VISIBLE_SYMBOL
00093f94   _KPB_PLAYER_CONNECTED_SYMBOL
00093f98   _KPB_HEADSET_CONNECTED_SYMBOL
00093f9c   _KPB_ROAMING_SYMBOL
00093fa0   _kCanMainVersion
00093fa1   _kCanSubVersion
00093fa2   _kCanBugFixVersion
00094024   _BAP_Request2OpCodeMatrix
0009404c   _BAP_OpCode2IndicationMatrix
00094068   _BAP_OpCode2AcknowledgeMatrix
000940c4   _INT8_INIT_DEFAULT_ZERO
000940c5   _INT8_INIT_NOT_SUPPORTED
000940c6   _INT8_INIT_TEL_HANDSFREE_ON_OFF
000940c7   _INT8_INIT_TEL_MICROMUTE_ON_OFF
000940c8   _INT8_INIT_MDI_FSG_SETUP
000940c9   _INT8_INIT_PB_FSG_SETUP
000940cc   _SEND_BUFFER_DEFAULT_ZERO
000940d8   _SEND_BUFFER_SD_FRAME_STATUS
000940e0   _SEND_BUFFER_MDI_TIME_POSITION
000940f8   _SoftwareVersion
00094100   _AsamOdxFileVersion
00094108   _Copyright
00094138   _VERSION_VALUES
0009417c   _oskVersionVariant
000941c4   _ProgramInfoReset
000941c5   _SysProgrammed
00094208   _AT2BapCallStateMatrix
00094218   _BAP_BPL_BufferSet
00094220   _kOnmxMainVersion
00094221   _kOnmxSubVersion
00094222   _kOnmxReleaseVersion
00094224   _kNmMainVersion
00094225   _kNmSubVersion
00094226   _kNmReleaseVersion
0009422c   ___cinit__
0009422c   cinit
0009fd00   _APP_SD_au8Common_Error
0009fd08   _APP_SD_au8English_ta_time_am
0009fd18   _APP_SD_au8English_ta_time_pm
0009fd28   _APP_SD_au8English_ta_call_diverted
0009fd34   _APP_SD_au8English_ta_time_standard
0009fd44   _APP_SD_au8English_ta_menu_cancel
0009fd4c   _APP_SD_au8English_ta_call_reject
0009fd54   _APP_SD_au8English_ta_note_ignition
0009fd74   _APP_SD_au8English_ta_query_del_act_device
0009fd84   _APP_SD_au8English_ta_query_del_act_user
0009fd94   _APP_SD_au8English_ta_head_call_active
0009fda0   _APP_SD_au8English_ta_head_active_tone
0009fdb4   _APP_SD_au8English_ta_bt_active_device
0009fdc4   _APP_SD_au8English_ta_call_resume
0009fdcc   _APP_SD_au8English_ta_pb_download
0009fdd4   _APP_SD_au8English_ta_query_terminate_conn
0009fdec   _APP_SD_au8English_ta_query_delete_log
0009fe00   _APP_SD_au8English_ta_music_paused
0009fe14   _APP_SD_au8English_ta_call_end_all
0009fe24   _APP_SD_au8English_ta_stack_received
0009fe34   _APP_SD_au8English_ta_note_bt_passkey_err
0009fe48   _APP_SD_au8English_ta_call_accept
0009fe50   _APP_SD_au8English_ta_head_stack_received
0009fe60   _APP_SD_au8English_ta_head_stack_missed
0009fe6c   _APP_SD_au8English_ta_stack_missed
0009fe78   _APP_SD_au8English_ta_head_call
0009fe7c   _APP_SD_au8English_ta_head_incoming_call
0009fe80   _APP_SD_au8English_ta_call_call1
0009fe88   _APP_SD_au8English_ta_head_call1
0009fe90   _APP_SD_au8English_ta_call_call2
0009fe98   _APP_SD_au8English_ta_head_call2
0009fea0   _APP_SD_au8English_ta_end_call
0009fea8   _APP_SD_au8English_ta_head_call_hold
0009feb8   _APP_SD_au8English_ta_note_missed_call
0009fec4   _APP_SD_au8English_ta_head_call_waiting
0009fed0   _APP_SD_au8English_ta_head_calls
0009fed8   _APP_SD_au8English_ta_menu_call
0009fedc   _APP_SD_au8English_ta_main_callstacks
0009feec   _APP_SD_au8English_call_head_register
0009fefc   _APP_SD_au8English_ta_note_stacks_cleared
0009ff10   _APP_SD_au8English_ta_head_nametag
0009ff1c   _APP_SD_au8English_ta_pb_nametag
0009ff28   _APP_SD_au8English_ta_note_read_voice_tag
0009ff3c   _APP_SD_au8English_ta_note_voice_tag_reset
0009ff4c   _APP_SD_au8English_ta_head_reset_voice_tag
0009ff5c   _APP_SD_au8English_ta_sw_info
0009ff64   _APP_SD_au8English_ta_menu_show
0009ff68   _APP_SD_au8English_ta_voice_tag_reset
0009ff70   _APP_SD_au8English_ta_audio_mode
0009ff7c   _APP_SD_au8English_head_audio_mode
0009ff88   _APP_SD_au8English_ta_call_end
0009ff90   _APP_SD_au8English_ta_tag_record
0009ff98   _APP_SD_au8English_ta_off
0009ff9c   _APP_SD_au8English_ta_head_options
0009ffa4   _APP_SD_au8English_ta_menu_end
0009ffac   _APP_SD_au8English_ta_menu_user
0009ffb0   _APP_SD_au8English_head_user
0009ffb4   _APP_SD_au8English_ta_head_delete_user
0009ffc0   _APP_SD_au8English_ta_note_search_user
0009ffd0   _APP_SD_au8English_ta_head_user
0009ffd8   _APP_SD_au8English_ta_query_new_user
0009ffec   _APP_SD_au8English_ta_note_new_user
000a000c   _APP_SD_au8English_ta_note_max_users
000a0024   _APP_SD_au8English_ta_note_user_connected
000a003c   _APP_SD_au8English_ta_note_number_busy
000a0040   _APP_SD_au8English_ta_note_user_not_created
000a0058   _APP_SD_au8English_ta_wait_general
000a0064   _APP_SD_au8English_ta_note_enter_number
000a0078   _APP_SD_au8English_ta_main_bluetooth
000a0084   _APP_SD_au8English_head_bluetooth
000a0090   _APP_SD_au8English_ta_bt_no_conn_headset
000a00c4   _APP_SD_au8English_ta_note_bt_conn_impos
000a00f4   _APP_SD_au8English_ta_time_format
000a00fc   _APP_SD_au8English_ta_head_datacall
000a0108   _APP_SD_au8English_ta_date_value
000a0114   _APP_SD_au8English_ta_call_dtmf
000a0118   _APP_SD_au8English_ta_head_dtmf
000a011c   _APP_SD_au8English_ta_on
000a0120   _APP_SD_au8English_ta_main_settings
000a0128   _APP_SD_au8English_head_settings
000a0130   _APP_SD_au8English_ta_head_faxcall
000a0138   _APP_SD_au8English_ta_call_handsfree
000a0144   _APP_SD_au8English_ta_function_restriction
000a0170   _APP_SD_au8English_ta_note_visible
000a0184   _APP_SD_au8English_ta_note_info_call
000a01a8   _APP_SD_au8English_ta_note_service_call
000a01d0   _APP_SD_au8English_ta_bt_paired_devices
000a01e0   _APP_SD_au8English_paired_head_devices
000a01f0   _APP_SD_au8English_ta_note_sos_call
000a021c   _APP_SD_au8English_ta_note_deleted
000a0224   _APP_SD_au8English_ta_note_user_deleted
000a0230   _APP_SD_au8English_head_device_list
000a023c   _APP_SD_au8English_ta_replace
000a0244   _APP_SD_au8English_ta_call_end_active
000a0254   _APP_SD_au8English_ta_disconnected
000a0260   _APP_SD_au8English_ta_call_hold
000a0264   _APP_SD_au8English_ta_bt_headset
000a026c   _APP_SD_au8English_head_headset
000a0274   _APP_SD_au8English_ta_time_value
000a027c   _APP_SD_au8English_ta_menu_bt_help
000a0280   _APP_SD_au8English_ta_always
000a0288   _APP_SD_au8English_ta_call_info
000a0294   _APP_SD_au8English_ta_note_no_user
000a02b8   _APP_SD_au8English_ta_note_no_bt_phone
000a02cc   _APP_SD_au8English_ta_note_no_act_device
000a02dc   _APP_SD_au8English_ta_note_no_phone
000a02fc   _APP_SD_au8English_ta_note_no_accessory
000a030c   _APP_SD_au8English_ta_note_no_bt_conn_acc
000a0328   _APP_SD_au8English_ta_note_no_bt_conn_rsap
000a0348   _APP_SD_au8English_ta_note_no_entries
000a035c   _APP_SD_au8English_ta_note_no_paired_dev
000a036c   _APP_SD_au8English_ta_note_no_sms
000a0380   _APP_SD_au8English_ta_note_no_network
000a038c   _APP_SD_au8English_ta_menu_no_nbr
000a0394   _APP_SD_au8English_ta_note_no_nbr
000a03a0   _APP_SD_au8English_ta_note_mailbox_no
000a03bc   _APP_SD_au8English_ta_no_media_player_found
000a03dc   _APP_SD_au8English_ta_call_waiting
000a03e4   _APP_SD_au8English_ta_head_conference
000a03f0   _APP_SD_au8English_ta_head_conference_hold
000a0404   _APP_SD_au8English_ta_note_conf_not_poss
000a041c   _APP_SD_au8English_ta_conference
000a0428   _APP_SD_au8English_ta_note_copy_sms_failed
000a043c   _APP_SD_au8English_ta_err_load_phonebook
000a0454   _APP_SD_au8English_ta_call_silent
000a045c   _APP_SD_au8English_ta_head_stack_dialled
000a046c   _APP_SD_au8English_ta_stack_dialled
000a047c   _APP_SD_au8English_ta_stack_clear
000a0488   _APP_SD_au8English_ta_menu_delete
000a0490   _APP_SD_au8English_ta_note_sms_not_deleted
000a04a8   _APP_SD_au8English_ta_note_delete_impos_phone_active
000a04d8   _APP_SD_au8English_ta_query_del_device
000a04e0   _APP_SD_au8English_ta_query_delete_user
000a04ec   _APP_SD_au8English_ta_call_swap
000a04f0   _APP_SD_au8English_ta_media_player
000a04fc   _APP_SD_au8English_ta_head_media_player
000a0508   _APP_SD_au8English_ta_main_menu
000a050c   _APP_SD_au8English_ta_call_micro_off
000a051c   _APP_SD_au8English_ta_call_micro_on
000a052c   _APP_SD_au8English_ta_head_sms
000a0534   _APP_SD_au8English_ta_note_sms_deleted
000a0544   _APP_SD_au8English_ta_note_sms_no_read
000a055c   _APP_SD_au8English_ta_query_delete_sms
000a056c   _APP_SD_au8English_ta_head_sms_from
000a0578   _APP_SD_au8English_ta_note_reading_sms
000a0590   _APP_SD_au8English_ta_main_messages
000a0598   _APP_SD_au8English_head_messages
000a05a0   _APP_SD_au8English_ta_note_no_rsap
000a05bc   _APP_SD_au8English_ta_note_search_phones
000a05e4   _APP_SD_au8English_ta_pb_sort_lastname
000a05ec   _APP_SD_au8English_ta_note_name_exists
000a05f8   _APP_SD_au8English_ta_note_name_stored
000a0604   _APP_SD_au8English_ta_note_network_busy
000a0610   _APP_SD_au8English_new_sms
000a061c   _APP_SD_au8English_ta_note_conn_err
000a0628   _APP_SD_au8English_ta_note_new_sms
000a0634   _APP_SD_au8English_ta_menu_new_user
000a063c   _APP_SD_au8English_ta_note_new_phone_found
000a0654   _APP_SD_au8English_ta_note_new_pb_available
000a066c   _APP_SD_au8English_ta_supp_not_possible
000a0678   _APP_SD_au8English_ta_number
000a0680   _APP_SD_au8English_ta_head_dial_nbr
000a068c   _APP_SD_au8English_ta_main_dial
000a0698   _APP_SD_au8English_ta_calls_only
000a06a4   _APP_SD_au8English_ta_menu_ok
000a06a8   _APP_SD_au8English_ta_call_service
000a06b4   _APP_SD_au8English_ta_call_sos
000a06bc   _APP_SD_au8English_ta_head_passkey
000a06c8   _APP_SD_au8English_ta_note_searching_players
000a06ec   _APP_SD_au8English_ta_note_connecting_player
000a0700   _APP_SD_au8English_ta_private_call
000a070c   _APP_SD_au8English_ta_head_private_call
000a0718   _APP_SD_au8English_ta_sms_call
000a0720   _APP_SD_au8English_ta_head_call_setup
000a0728   _APP_SD_au8English_ta_note_invalid_number
000a073c   _APP_SD_au8English_ta_head_number
000a0744   _APP_SD_au8English_ta_setting_tone
000a0750   _APP_SD_au8English_ta_sms_concatenated
000a0764   _APP_SD_au8English_ta_sms_time
000a0770   _APP_SD_au8English_ta_note_service_not_supp
000a0788   _APP_SD_au8English_ta_bt_visibility
000a0794   _APP_SD_au8English_ta_query_visibility
000a07a8   _APP_SD_au8English_ta_setting_signals
000a07b8   _APP_SD_au8English_ta_head_setting_signals
000a07c8   _APP_SD_au8English_ta_head_sorting_order
000a07cc   _APP_SD_au8English_ta_sorting_order
000a07d0   _APP_SD_au8English_ta_note_tag_no_memory
000a07ec   _APP_SD_au8English_ta_menu_save
000a07f0   _APP_SD_au8English_ta_backspace
000a07f8   _APP_SD_au8English_ta_note_voice_not_ready
000a0814   _APP_SD_au8English_ta_note_voice_active
000a082c   _APP_SD_au8English_ta_main_mailbox
000a083c   _APP_SD_au8English_ta_head_mailbox
000a084c   _APP_SD_au8English_ta_search
000a0854   _APP_SD_au8English_ta_note_pb_refresh_impos
000a0870   _APP_SD_au8English_ta_head_phone
000a0878   _APP_SD_au8English_ta_note_enter_cradle
000a0890   _APP_SD_au8English_ta_note_phone_initiated
000a08b4   _APP_SD_au8English_ta_phone_book
000a08c0   _APP_SD_au8English_ta_head_phone_book
000a08cc   _APP_SD_au8English_ta_note_pb_load_error
000a08e8   _APP_SD_au8English_ta_note_call_estab_failed
000a08f8   _APP_SD_au8English_ta_note_pb_not_complete
000a0914   _APP_SD_au8English_ta_note_pbook_loading
000a0930   _APP_SD_au8English_ta_note_pb_loading_all
000a0944   _APP_SD_au8English_ta_bt_own_name
000a0950   _APP_SD_au8English_ta_head_phone_name
000a095c   _APP_SD_au8English_ta_phone_search
000a0964   _APP_SD_au8English_ta_bt_disconnect
000a0970   _APP_SD_au8English_ta_bt_rename
000a0978   _APP_SD_au8English_ta_switch
000a0980   _APP_SD_au8English_ta_connect
000a0988   _APP_SD_au8English_ta_query_connect
000a0998   _APP_SD_au8English_ta_note_conn_terminated
000a09a4   _APP_SD_au8English_ta_note_bt_no_conn
000a09bc   _APP_SD_au8English_ta_note_bt_conn_setup
000a09cc   _APP_SD_au8English_ta_note_connected
000a09dc   _APP_SD_au8English_ta_note_bt_acc_conn
000a09f8   _APP_SD_au8English_ta_read_out_sms
000a0a00   _APP_SD_au8English_ta_pb_sort_firstname
000a0a0c   _APP_SD_au8English_ta_note_wait_reply
000a0a20   _APP_SD_au8English_ta_tag_play
000a0a28   _APP_SD_au8English_ta_menu_view
000a0a2c   _APP_SD_au8English_ta_bt_accessory
000a0a34   _APP_SD_au8English_ta_wait_bt_acc_search
000a0a54   _APP_SD_au8English_ta_help_text
000a0b5c   _APP_SD_au8English_ta_list_back
000a0b60   _APP_SD_au8English_ta_phone_no_answer
000a0b7c   _APP_SD_au8English_ta_confirm_pw_with_OK
000a0b98   _APP_SD_au8English_ta_confirm_pw_in_device
000a0bb4   _APP_SD_au8German_ta_time_am
000a0bc4   _APP_SD_au8German_ta_time_pm
000a0bd4   _APP_SD_au8German_ta_call_diverted
000a0be0   _APP_SD_au8German_ta_time_standard
000a0bf0   _APP_SD_au8German_ta_menu_cancel
000a0bf8   _APP_SD_au8German_ta_call_reject
000a0c00   _APP_SD_au8German_ta_note_ignition
000a0c30   _APP_SD_au8German_ta_query_del_act_device
000a0c40   _APP_SD_au8German_ta_query_del_act_user
000a0c50   _APP_SD_au8German_ta_head_call_active
000a0c60   _APP_SD_au8German_ta_head_active_tone
000a0c70   _APP_SD_au8German_ta_bt_active_device
000a0c80   _APP_SD_au8German_ta_call_resume
000a0c8c   _APP_SD_au8German_ta_pb_download
000a0c9c   _APP_SD_au8German_ta_query_terminate_conn
000a0cb4   _APP_SD_au8German_ta_query_delete_log
000a0cd0   _APP_SD_au8German_ta_music_paused
000a0cf4   _APP_SD_au8German_ta_call_end_all
000a0d00   _APP_SD_au8German_ta_stack_received
000a0d0c   _APP_SD_au8German_ta_note_bt_passkey_err
000a0d24   _APP_SD_au8German_ta_call_accept
000a0d2c   _APP_SD_au8German_ta_head_stack_received
000a0d38   _APP_SD_au8German_ta_head_stack_missed
000a0d48   _APP_SD_au8German_ta_stack_missed
000a0d58   _APP_SD_au8German_ta_head_call
000a0d60   _APP_SD_au8German_ta_head_incoming_call
000a0d68   _APP_SD_au8German_ta_call_call1
000a0d70   _APP_SD_au8German_ta_head_call1
000a0d78   _APP_SD_au8German_ta_call_call2
000a0d80   _APP_SD_au8German_ta_head_call2
000a0d88   _APP_SD_au8German_ta_end_call
000a0d98   _APP_SD_au8German_ta_head_call_hold
000a0da8   _APP_SD_au8German_ta_note_missed_call
000a0dbc   _APP_SD_au8German_ta_head_call_waiting
000a0dcc   _APP_SD_au8German_ta_head_calls
000a0dd4   _APP_SD_au8German_ta_menu_call
000a0ddc   _APP_SD_au8German_ta_main_callstacks
000a0de8   _APP_SD_au8German_call_head_register
000a0df4   _APP_SD_au8German_ta_note_stacks_cleared
000a0e08   _APP_SD_au8German_ta_head_nametag
000a0e14   _APP_SD_au8German_ta_pb_nametag
000a0e20   _APP_SD_au8German_ta_note_read_voice_tag
000a0e34   _APP_SD_au8German_ta_note_voice_tag_reset
000a0e4c   _APP_SD_au8German_ta_head_reset_voice_tag
000a0e64   _APP_SD_au8German_ta_sw_info
000a0e6c   _APP_SD_au8German_ta_menu_show
000a0e74   _APP_SD_au8German_ta_voice_tag_reset
000a0e84   _APP_SD_au8German_ta_audio_mode
000a0e90   _APP_SD_au8German_head_audio_mode
000a0e9c   _APP_SD_au8German_ta_call_end
000a0ea4   _APP_SD_au8German_ta_tag_record
000a0eb0   _APP_SD_au8German_ta_off
000a0eb4   _APP_SD_au8German_ta_head_options
000a0ebc   _APP_SD_au8German_ta_menu_end
000a0ec4   _APP_SD_au8German_ta_menu_user
000a0ecc   _APP_SD_au8German_head_user
000a0ed4   _APP_SD_au8German_ta_head_delete_user
000a0ee8   _APP_SD_au8German_ta_note_search_user
000a0f00   _APP_SD_au8German_ta_head_user
000a0f0c   _APP_SD_au8German_ta_query_new_user
000a0f24   _APP_SD_au8German_ta_note_new_user
000a0f48   _APP_SD_au8German_ta_note_max_users
000a0f64   _APP_SD_au8German_ta_note_user_connected
000a0f78   _APP_SD_au8German_ta_note_number_busy
000a0f80   _APP_SD_au8German_ta_note_user_not_created
000a0f98   _APP_SD_au8German_ta_wait_general
000a0fa8   _APP_SD_au8German_ta_note_enter_number
000a0fc0   _APP_SD_au8German_ta_main_bluetooth
000a0fcc   _APP_SD_au8German_head_bluetooth
000a0fd8   _APP_SD_au8German_ta_bt_no_conn_headset
000a1004   _APP_SD_au8German_ta_note_bt_conn_impos
000a1038   _APP_SD_au8German_ta_time_format
000a1040   _APP_SD_au8German_ta_head_datacall
000a104c   _APP_SD_au8German_ta_date_value
000a1058   _APP_SD_au8German_ta_call_dtmf
000a105c   _APP_SD_au8German_ta_head_dtmf
000a1060   _APP_SD_au8German_ta_on
000a1064   _APP_SD_au8German_ta_main_settings
000a1074   _APP_SD_au8German_head_settings
000a1084   _APP_SD_au8German_ta_head_faxcall
000a1090   _APP_SD_au8German_ta_call_handsfree
000a109c   _APP_SD_au8German_ta_function_restriction
000a10c0   _APP_SD_au8German_ta_note_visible
000a10d8   _APP_SD_au8German_ta_note_info_call
000a1100   _APP_SD_au8German_ta_note_service_call
000a112c   _APP_SD_au8German_ta_bt_paired_devices
000a113c   _APP_SD_au8German_paired_head_devices
000a114c   _APP_SD_au8German_ta_note_sos_call
000a1174   _APP_SD_au8German_ta_note_deleted
000a1180   _APP_SD_au8German_ta_note_user_deleted
000a118c   _APP_SD_au8German_head_device_list
000a1198   _APP_SD_au8German_ta_replace
000a11a0   _APP_SD_au8German_ta_call_end_active
000a11b0   _APP_SD_au8German_ta_disconnected
000a11b8   _APP_SD_au8German_ta_call_hold
000a11c0   _APP_SD_au8German_ta_bt_headset
000a11c8   _APP_SD_au8German_head_headset
000a11d0   _APP_SD_au8German_ta_time_value
000a11d8   _APP_SD_au8German_ta_menu_bt_help
000a11e0   _APP_SD_au8German_ta_always
000a11e8   _APP_SD_au8German_ta_call_info
000a11f0   _APP_SD_au8German_ta_note_no_user
000a121c   _APP_SD_au8German_ta_note_no_bt_phone
000a123c   _APP_SD_au8German_ta_note_no_act_device
000a124c   _APP_SD_au8German_ta_note_no_phone
000a1274   _APP_SD_au8German_ta_note_no_accessory
000a1288   _APP_SD_au8German_ta_note_no_bt_conn_acc
000a12a8   _APP_SD_au8German_ta_note_no_bt_conn_rsap
000a12d4   _APP_SD_au8German_ta_note_no_entries
000a12ec   _APP_SD_au8German_ta_note_no_paired_dev
000a1304   _APP_SD_au8German_ta_note_no_sms
000a1320   _APP_SD_au8German_ta_note_no_network
000a1334   _APP_SD_au8German_ta_menu_no_nbr
000a1340   _APP_SD_au8German_ta_note_no_nbr
000a1350   _APP_SD_au8German_ta_note_mailbox_no
000a1378   _APP_SD_au8German_ta_no_media_player_found
000a13a0   _APP_SD_au8German_ta_call_waiting
000a13ac   _APP_SD_au8German_ta_head_conference
000a13b8   _APP_SD_au8German_ta_head_conference_hold
000a13cc   _APP_SD_au8German_ta_note_conf_not_poss
000a13e4   _APP_SD_au8German_ta_conference
000a13f0   _APP_SD_au8German_ta_note_copy_sms_failed
000a140c   _APP_SD_au8German_ta_err_load_phonebook
000a1430   _APP_SD_au8German_ta_call_silent
000a1438   _APP_SD_au8German_ta_head_stack_dialled
000a1444   _APP_SD_au8German_ta_stack_dialled
000a1450   _APP_SD_au8German_ta_stack_clear
000a1460   _APP_SD_au8German_ta_menu_delete
000a1468   _APP_SD_au8German_ta_note_sms_not_deleted
000a148c   _APP_SD_au8German_ta_note_delete_impos_phone_active
000a14c0   _APP_SD_au8German_ta_query_del_device
000a14cc   _APP_SD_au8German_ta_query_delete_user
000a14d8   _APP_SD_au8German_ta_call_swap
000a14e0   _APP_SD_au8German_ta_media_player
000a14ec   _APP_SD_au8German_ta_head_media_player
000a14f8   _APP_SD_au8German_ta_main_menu
000a1500   _APP_SD_au8German_ta_call_micro_off
000a150c   _APP_SD_au8German_ta_call_micro_on
000a1518   _APP_SD_au8German_ta_head_sms
000a1524   _APP_SD_au8German_ta_note_sms_deleted
000a1538   _APP_SD_au8German_ta_note_sms_no_read
000a155c   _APP_SD_au8German_ta_query_delete_sms
000a1570   _APP_SD_au8German_ta_head_sms_from
000a1580   _APP_SD_au8German_ta_note_reading_sms
000a1598   _APP_SD_au8German_ta_main_messages
000a15a4   _APP_SD_au8German_head_messages
000a15b0   _APP_SD_au8German_ta_note_no_rsap
000a15d0   _APP_SD_au8German_ta_note_search_phones
000a15fc   _APP_SD_au8German_ta_pb_sort_lastname
000a1604   _APP_SD_au8German_ta_note_name_exists
000a1618   _APP_SD_au8German_ta_note_name_stored
000a1628   _APP_SD_au8German_ta_note_network_busy
000a163c   _APP_SD_au8German_new_sms
000a1644   _APP_SD_au8German_ta_note_conn_err
000a1654   _APP_SD_au8German_ta_note_new_sms
000a1664   _APP_SD_au8German_ta_menu_new_user
000a1674   _APP_SD_au8German_ta_note_new_phone_found
000a168c   _APP_SD_au8German_ta_note_new_pb_available
000a16a8   _APP_SD_au8German_ta_supp_not_possible
000a16b8   _APP_SD_au8German_ta_number
000a16c0   _APP_SD_au8German_ta_head_dial_nbr
000a16cc   _APP_SD_au8German_ta_main_dial
000a16d8   _APP_SD_au8German_ta_calls_only
000a16e8   _APP_SD_au8German_ta_menu_ok
000a16ec   _APP_SD_au8German_ta_call_service
000a16f8   _APP_SD_au8German_ta_call_sos
000a1700   _APP_SD_au8German_ta_head_passkey
000a170c   _APP_SD_au8German_ta_note_searching_players
000a1730   _APP_SD_au8German_ta_note_connecting_player
000a1748   _APP_SD_au8German_ta_private_call
000a1758   _APP_SD_au8German_ta_head_private_call
000a1768   _APP_SD_au8German_ta_sms_call
000a1770   _APP_SD_au8German_ta_head_call_setup
000a177c   _APP_SD_au8German_ta_note_invalid_number
000a1790   _APP_SD_au8German_ta_head_number
000a179c   _APP_SD_au8German_ta_setting_tone
000a17a4   _APP_SD_au8German_ta_sms_concatenated
000a17bc   _APP_SD_au8German_ta_sms_time
000a17c8   _APP_SD_au8German_ta_note_service_not_supp
000a17e8   _APP_SD_au8German_ta_bt_visibility
000a17f4   _APP_SD_au8German_ta_query_visibility
000a180c   _APP_SD_au8German_ta_setting_signals
000a181c   _APP_SD_au8German_ta_head_setting_signals
000a182c   _APP_SD_au8German_ta_head_sorting_order
000a1838   _APP_SD_au8German_ta_sorting_order
000a1844   _APP_SD_au8German_ta_note_tag_no_memory
000a1868   _APP_SD_au8German_ta_menu_save
000a1874   _APP_SD_au8German_ta_backspace
000a187c   _APP_SD_au8German_ta_note_voice_not_ready
000a189c   _APP_SD_au8German_ta_note_voice_active
000a18b4   _APP_SD_au8German_ta_main_mailbox
000a18c4   _APP_SD_au8German_ta_head_mailbox
000a18d4   _APP_SD_au8German_ta_search
000a18dc   _APP_SD_au8German_ta_note_pb_refresh_impos
000a1908   _APP_SD_au8German_ta_head_phone
000a1910   _APP_SD_au8German_ta_note_enter_cradle
000a1934   _APP_SD_au8German_ta_note_phone_initiated
000a195c   _APP_SD_au8German_ta_phone_book
000a1968   _APP_SD_au8German_ta_head_phone_book
000a1974   _APP_SD_au8German_ta_note_pb_load_error
000a1998   _APP_SD_au8German_ta_note_call_estab_failed
000a19b0   _APP_SD_au8German_ta_note_pb_not_complete
000a19d0   _APP_SD_au8German_ta_note_pbook_loading
000a19f4   _APP_SD_au8German_ta_note_pb_loading_all
000a1a0c   _APP_SD_au8German_ta_bt_own_name
000a1a18   _APP_SD_au8German_ta_head_phone_name
000a1a24   _APP_SD_au8German_ta_phone_search
000a1a34   _APP_SD_au8German_ta_bt_disconnect
000a1a3c   _APP_SD_au8German_ta_bt_rename
000a1a48   _APP_SD_au8German_ta_switch
000a1a54   _APP_SD_au8German_ta_connect
000a1a60   _APP_SD_au8German_ta_query_connect
000a1a70   _APP_SD_au8German_ta_note_conn_terminated
000a1a84   _APP_SD_au8German_ta_note_bt_no_conn
000a1a9c   _APP_SD_au8German_ta_note_bt_conn_setup
000a1ab8   _APP_SD_au8German_ta_note_connected
000a1ac8   _APP_SD_au8German_ta_note_bt_acc_conn
000a1ae8   _APP_SD_au8German_ta_read_out_sms
000a1af0   _APP_SD_au8German_ta_pb_sort_firstname
000a1af8   _APP_SD_au8German_ta_note_wait_reply
000a1b08   _APP_SD_au8German_ta_tag_play
000a1b14   _APP_SD_au8German_ta_menu_view
000a1b1c   _APP_SD_au8German_ta_bt_accessory
000a1b24   _APP_SD_au8German_ta_wait_bt_acc_search
000a1b48   _APP_SD_au8German_ta_help_text
000a1c7c   _APP_SD_au8German_ta_list_back
000a1c84   _APP_SD_au8German_ta_phone_no_answer
000a1ca0   _APP_SD_au8German_ta_confirm_pw_with_OK
000a1cbc   _APP_SD_au8German_ta_confirm_pw_in_device
000a1cdc   _APP_SD_au8Czech_ta_time_am
000a1cec   _APP_SD_au8Czech_ta_time_pm
000a1cfc   _APP_SD_au8Czech_ta_call_diverted
000a1d10   _APP_SD_au8Czech_ta_time_standard
000a1d20   _APP_SD_au8Czech_ta_menu_cancel
000a1d28   _APP_SD_au8Czech_ta_call_reject
000a1d34   _APP_SD_au8Czech_ta_note_ignition
000a1d64   _APP_SD_au8Czech_ta_query_del_act_device
000a1d78   _APP_SD_au8Czech_ta_query_del_act_user
000a1d8c   _APP_SD_au8Czech_ta_head_call_active
000a1d9c   _APP_SD_au8Czech_ta_head_active_tone
000a1dac   _APP_SD_au8Czech_ta_bt_active_device
000a1dc0   _APP_SD_au8Czech_ta_call_resume
000a1dcc   _APP_SD_au8Czech_ta_pb_download
000a1dd8   _APP_SD_au8Czech_ta_query_terminate_conn
000a1df4   _APP_SD_au8Czech_ta_query_delete_log
000a1e0c   _APP_SD_au8Czech_ta_music_paused
000a1e2c   _APP_SD_au8Czech_ta_call_end_all
000a1e3c   _APP_SD_au8Czech_ta_stack_received
000a1e4c   _APP_SD_au8Czech_ta_note_bt_passkey_err
000a1e68   _APP_SD_au8Czech_ta_call_accept
000a1e74   _APP_SD_au8Czech_ta_head_stack_received
000a1e84   _APP_SD_au8Czech_ta_head_stack_missed
000a1e94   _APP_SD_au8Czech_ta_stack_missed
000a1ea4   _APP_SD_au8Czech_ta_head_call
000a1eac   _APP_SD_au8Czech_ta_head_incoming_call
000a1eb4   _APP_SD_au8Czech_ta_call_call1
000a1ebc   _APP_SD_au8Czech_ta_head_call1
000a1ec4   _APP_SD_au8Czech_ta_call_call2
000a1ecc   _APP_SD_au8Czech_ta_head_call2
000a1ed4   _APP_SD_au8Czech_ta_end_call
000a1ee4   _APP_SD_au8Czech_ta_head_call_hold
000a1ef8   _APP_SD_au8Czech_ta_note_missed_call
000a1f08   _APP_SD_au8Czech_ta_head_call_waiting
000a1f1c   _APP_SD_au8Czech_ta_head_calls
000a1f24   _APP_SD_au8Czech_ta_menu_call
000a1f2c   _APP_SD_au8Czech_ta_main_callstacks
000a1f3c   _APP_SD_au8Czech_call_head_register
000a1f4c   _APP_SD_au8Czech_ta_note_stacks_cleared
000a1f64   _APP_SD_au8Czech_ta_head_nametag
000a1f74   _APP_SD_au8Czech_ta_pb_nametag
000a1f84   _APP_SD_au8Czech_ta_note_read_voice_tag
000a1fa4   _APP_SD_au8Czech_ta_note_voice_tag_reset
000a1fbc   _APP_SD_au8Czech_ta_head_reset_voice_tag
000a1fd4   _APP_SD_au8Czech_ta_sw_info
000a1fdc   _APP_SD_au8Czech_ta_menu_show
000a1fe4   _APP_SD_au8Czech_ta_voice_tag_reset
000a1fec   _APP_SD_au8Czech_ta_audio_mode
000a1ff8   _APP_SD_au8Czech_head_audio_mode
000a2008   _APP_SD_au8Czech_ta_call_end
000a2018   _APP_SD_au8Czech_ta_tag_record
000a2020   _APP_SD_au8Czech_ta_off
000a2028   _APP_SD_au8Czech_ta_head_options
000a2030   _APP_SD_au8Czech_ta_menu_end
000a2038   _APP_SD_au8Czech_ta_menu_user
000a2044   _APP_SD_au8Czech_head_user
000a2050   _APP_SD_au8Czech_ta_head_delete_user
000a2064   _APP_SD_au8Czech_ta_note_search_user
000a207c   _APP_SD_au8Czech_ta_head_user
000a2088   _APP_SD_au8Czech_ta_query_new_user
000a20a0   _APP_SD_au8Czech_ta_note_new_user
000a20c0   _APP_SD_au8Czech_ta_note_max_users
000a20e4   _APP_SD_au8Czech_ta_note_user_connected
000a2100   _APP_SD_au8Czech_ta_note_number_busy
000a2108   _APP_SD_au8Czech_ta_note_user_not_created
000a212c   _APP_SD_au8Czech_ta_wait_general
000a2140   _APP_SD_au8Czech_ta_note_enter_number
000a2158   _APP_SD_au8Czech_ta_main_bluetooth
000a2164   _APP_SD_au8Czech_head_bluetooth
000a2170   _APP_SD_au8Czech_ta_bt_no_conn_headset
000a21a0   _APP_SD_au8Czech_ta_note_bt_conn_impos
000a21d0   _APP_SD_au8Czech_ta_time_format
000a21d8   _APP_SD_au8Czech_ta_head_datacall
000a21e8   _APP_SD_au8Czech_ta_date_value
000a21f4   _APP_SD_au8Czech_ta_call_dtmf
000a21f8   _APP_SD_au8Czech_ta_head_dtmf
000a21fc   _APP_SD_au8Czech_ta_on
000a2204   _APP_SD_au8Czech_ta_main_settings
000a2210   _APP_SD_au8Czech_head_settings
000a221c   _APP_SD_au8Czech_ta_head_faxcall
000a222c   _APP_SD_au8Czech_ta_call_handsfree
000a2238   _APP_SD_au8Czech_ta_function_restriction
000a2264   _APP_SD_au8Czech_ta_note_visible
000a2284   _APP_SD_au8Czech_ta_note_info_call
000a22b8   _APP_SD_au8Czech_ta_note_service_call
000a22ec   _APP_SD_au8Czech_ta_bt_paired_devices
000a2300   _APP_SD_au8Czech_paired_head_devices
000a2314   _APP_SD_au8Czech_ta_note_sos_call
000a2354   _APP_SD_au8Czech_ta_note_deleted
000a235c   _APP_SD_au8Czech_ta_note_user_deleted
000a2368   _APP_SD_au8Czech_head_device_list
000a237c   _APP_SD_au8Czech_ta_replace
000a2384   _APP_SD_au8Czech_ta_call_end_active
000a2394   _APP_SD_au8Czech_ta_disconnected
000a239c   _APP_SD_au8Czech_ta_call_hold
000a23a8   _APP_SD_au8Czech_ta_bt_headset
000a23b0   _APP_SD_au8Czech_head_headset
000a23b8   _APP_SD_au8Czech_ta_time_value
000a23c0   _APP_SD_au8Czech_ta_menu_bt_help
000a23cc   _APP_SD_au8Czech_ta_always
000a23d4   _APP_SD_au8Czech_ta_call_info
000a23e4   _APP_SD_au8Czech_ta_note_no_user
000a2418   _APP_SD_au8Czech_ta_note_no_bt_phone
000a2434   _APP_SD_au8Czech_ta_note_no_act_device
000a2450   _APP_SD_au8Czech_ta_note_no_phone
000a2480   _APP_SD_au8Czech_ta_note_no_accessory
000a249c   _APP_SD_au8Czech_ta_note_no_bt_conn_acc
000a24bc   _APP_SD_au8Czech_ta_note_no_bt_conn_rsap
000a24e4   _APP_SD_au8Czech_ta_note_no_entries
000a2508   _APP_SD_au8Czech_ta_note_no_paired_dev
000a2528   _APP_SD_au8Czech_ta_note_no_sms
000a2548   _APP_SD_au8Czech_ta_note_no_network
000a2558   _APP_SD_au8Czech_ta_menu_no_nbr
000a2564   _APP_SD_au8Czech_ta_note_no_nbr
000a2574   _APP_SD_au8Czech_ta_note_mailbox_no
000a25a4   _APP_SD_au8Czech_ta_no_media_player_found
000a25d8   _APP_SD_au8Czech_ta_call_waiting
000a25e0   _APP_SD_au8Czech_ta_head_conference
000a25ec   _APP_SD_au8Czech_ta_head_conference_hold
000a260c   _APP_SD_au8Czech_ta_note_conf_not_poss
000a262c   _APP_SD_au8Czech_ta_conference
000a2638   _APP_SD_au8Czech_ta_note_copy_sms_failed
000a265c   _APP_SD_au8Czech_ta_err_load_phonebook
000a267c   _APP_SD_au8Czech_ta_call_silent
000a268c   _APP_SD_au8Czech_ta_head_stack_dialled
000a269c   _APP_SD_au8Czech_ta_stack_dialled
000a26ac   _APP_SD_au8Czech_ta_stack_clear
000a26b8   _APP_SD_au8Czech_ta_menu_delete
000a26c0   _APP_SD_au8Czech_ta_note_sms_not_deleted
000a26d4   _APP_SD_au8Czech_ta_note_delete_impos_phone_active
000a270c   _APP_SD_au8Czech_ta_query_del_device
000a2714   _APP_SD_au8Czech_ta_query_delete_user
000a2720   _APP_SD_au8Czech_ta_call_swap
000a2730   _APP_SD_au8Czech_ta_media_player
000a2740   _APP_SD_au8Czech_ta_head_media_player
000a2754   _APP_SD_au8Czech_ta_main_menu
000a275c   _APP_SD_au8Czech_ta_call_micro_off
000a276c   _APP_SD_au8Czech_ta_call_micro_on
000a277c   _APP_SD_au8Czech_ta_head_sms
000a2784   _APP_SD_au8Czech_ta_note_sms_deleted
000a2794   _APP_SD_au8Czech_ta_note_sms_no_read
000a27ac   _APP_SD_au8Czech_ta_query_delete_sms
000a27bc   _APP_SD_au8Czech_ta_head_sms_from
000a27c8   _APP_SD_au8Czech_ta_note_reading_sms
000a27e4   _APP_SD_au8Czech_ta_main_messages
000a27f4   _APP_SD_au8Czech_head_messages
000a2804   _APP_SD_au8Czech_ta_note_no_rsap
000a2828   _APP_SD_au8Czech_ta_note_search_phones
000a285c   _APP_SD_au8Czech_ta_pb_sort_lastname
000a2868   _APP_SD_au8Czech_ta_note_name_exists
000a287c   _APP_SD_au8Czech_ta_note_name_stored
000a2890   _APP_SD_au8Czech_ta_note_network_busy
000a28a4   _APP_SD_au8Czech_new_sms
000a28b0   _APP_SD_au8Czech_ta_note_conn_err
000a28bc   _APP_SD_au8Czech_ta_note_new_sms
000a28d4   _APP_SD_au8Czech_ta_menu_new_user
000a28e4   _APP_SD_au8Czech_ta_note_new_phone_found
000a28f8   _APP_SD_au8Czech_ta_note_new_pb_available
000a291c   _APP_SD_au8Czech_ta_supp_not_possible
000a292c   _APP_SD_au8Czech_ta_number
000a2934   _APP_SD_au8Czech_ta_head_dial_nbr
000a2944   _APP_SD_au8Czech_ta_main_dial
000a2954   _APP_SD_au8Czech_ta_calls_only
000a2964   _APP_SD_au8Czech_ta_menu_ok
000a2968   _APP_SD_au8Czech_ta_call_service
000a297c   _APP_SD_au8Czech_ta_call_sos
000a298c   _APP_SD_au8Czech_ta_head_passkey
000a2994   _APP_SD_au8Czech_ta_note_searching_players
000a29c4   _APP_SD_au8Czech_ta_note_connecting_player
000a29e0   _APP_SD_au8Czech_ta_private_call
000a29f0   _APP_SD_au8Czech_ta_head_private_call
000a2a00   _APP_SD_au8Czech_ta_sms_call
000a2a14   _APP_SD_au8Czech_ta_head_call_setup
000a2a28   _APP_SD_au8Czech_ta_note_invalid_number
000a2a44   _APP_SD_au8Czech_ta_head_number
000a2a4c   _APP_SD_au8Czech_ta_setting_tone
000a2a60   _APP_SD_au8Czech_ta_sms_concatenated
000a2a78   _APP_SD_au8Czech_ta_sms_time
000a2a88   _APP_SD_au8Czech_ta_note_service_not_supp
000a2aa4   _APP_SD_au8Czech_ta_bt_visibility
000a2ab0   _APP_SD_au8Czech_ta_query_visibility
000a2ac4   _APP_SD_au8Czech_ta_setting_signals
000a2ad8   _APP_SD_au8Czech_ta_head_setting_signals
000a2aec   _APP_SD_au8Czech_ta_head_sorting_order
000a2af4   _APP_SD_au8Czech_ta_sorting_order
000a2afc   _APP_SD_au8Czech_ta_note_tag_no_memory
000a2b1c   _APP_SD_au8Czech_ta_menu_save
000a2b24   _APP_SD_au8Czech_ta_backspace
000a2b30   _APP_SD_au8Czech_ta_note_voice_not_ready
000a2b5c   _APP_SD_au8Czech_ta_note_voice_active
000a2b78   _APP_SD_au8Czech_ta_main_mailbox
000a2b88   _APP_SD_au8Czech_ta_head_mailbox
000a2b98   _APP_SD_au8Czech_ta_search
000a2ba0   _APP_SD_au8Czech_ta_note_pb_refresh_impos
000a2bcc   _APP_SD_au8Czech_ta_head_phone
000a2bd4   _APP_SD_au8Czech_ta_note_enter_cradle
000a2bf0   _APP_SD_au8Czech_ta_note_phone_initiated
000a2c18   _APP_SD_au8Czech_ta_phone_book
000a2c24   _APP_SD_au8Czech_ta_head_phone_book
000a2c30   _APP_SD_au8Czech_ta_note_pb_load_error
000a2c50   _APP_SD_au8Czech_ta_note_call_estab_failed
000a2c68   _APP_SD_au8Czech_ta_note_pb_not_complete
000a2c90   _APP_SD_au8Czech_ta_note_pbook_loading
000a2cb4   _APP_SD_au8Czech_ta_note_pb_loading_all
000a2cd0   _APP_SD_au8Czech_ta_bt_own_name
000a2ce0   _APP_SD_au8Czech_ta_head_phone_name
000a2cf0   _APP_SD_au8Czech_ta_phone_search
000a2d00   _APP_SD_au8Czech_ta_bt_disconnect
000a2d08   _APP_SD_au8Czech_ta_bt_rename
000a2d14   _APP_SD_au8Czech_ta_switch
000a2d20   _APP_SD_au8Czech_ta_connect
000a2d28   _APP_SD_au8Czech_ta_query_connect
000a2d34   _APP_SD_au8Czech_ta_note_conn_terminated
000a2d3c   _APP_SD_au8Czech_ta_note_bt_no_conn
000a2d54   _APP_SD_au8Czech_ta_note_bt_conn_setup
000a2d64   _APP_SD_au8Czech_ta_note_connected
000a2d70   _APP_SD_au8Czech_ta_note_bt_acc_conn
000a2d8c   _APP_SD_au8Czech_ta_read_out_sms
000a2d98   _APP_SD_au8Czech_ta_pb_sort_firstname
000a2da0   _APP_SD_au8Czech_ta_note_wait_reply
000a2db8   _APP_SD_au8Czech_ta_tag_play
000a2dc4   _APP_SD_au8Czech_ta_menu_view
000a2dcc   _APP_SD_au8Czech_ta_bt_accessory
000a2dd4   _APP_SD_au8Czech_ta_wait_bt_acc_search
000a2dfc   _APP_SD_au8Czech_ta_help_text
000a2ef4   _APP_SD_au8Czech_ta_list_back
000a2efc   _APP_SD_au8Czech_ta_phone_no_answer
000a2f18   _APP_SD_au8Czech_ta_confirm_pw_with_OK
000a2f2c   _APP_SD_au8Czech_ta_confirm_pw_in_device
000a2f4c   _APP_SD_au8Spanish_ta_time_am
000a2f5c   _APP_SD_au8Spanish_ta_time_pm
000a2f6c   _APP_SD_au8Spanish_ta_call_diverted
000a2f78   _APP_SD_au8Spanish_ta_time_standard
000a2f88   _APP_SD_au8Spanish_ta_menu_cancel
000a2f90   _APP_SD_au8Spanish_ta_call_reject
000a2f98   _APP_SD_au8Spanish_ta_note_ignition
000a2fcc   _APP_SD_au8Spanish_ta_query_del_act_device
000a2fdc   _APP_SD_au8Spanish_ta_query_del_act_user
000a2ff0   _APP_SD_au8Spanish_ta_head_call_active
000a3000   _APP_SD_au8Spanish_ta_head_active_tone
000a3014   _APP_SD_au8Spanish_ta_bt_active_device
000a3024   _APP_SD_au8Spanish_ta_call_resume
000a302c   _APP_SD_au8Spanish_ta_pb_download
000a3038   _APP_SD_au8Spanish_ta_query_terminate_conn
000a3048   _APP_SD_au8Spanish_ta_query_delete_log
000a306c   _APP_SD_au8Spanish_ta_music_paused
000a309c   _APP_SD_au8Spanish_ta_call_end_all
000a30ac   _APP_SD_au8Spanish_ta_stack_received
000a30b8   _APP_SD_au8Spanish_ta_note_bt_passkey_err
000a30c8   _APP_SD_au8Spanish_ta_call_accept
000a30d4   _APP_SD_au8Spanish_ta_head_stack_received
000a30e0   _APP_SD_au8Spanish_ta_head_stack_missed
000a30e8   _APP_SD_au8Spanish_ta_stack_missed
000a30f0   _APP_SD_au8Spanish_ta_head_call
000a30f8   _APP_SD_au8Spanish_ta_head_incoming_call
000a3108   _APP_SD_au8Spanish_ta_call_call1
000a3114   _APP_SD_au8Spanish_ta_head_call1
000a3120   _APP_SD_au8Spanish_ta_call_call2
000a312c   _APP_SD_au8Spanish_ta_head_call2
000a3138   _APP_SD_au8Spanish_ta_end_call
000a3140   _APP_SD_au8Spanish_ta_head_call_hold
000a3150   _APP_SD_au8Spanish_ta_note_missed_call
000a3160   _APP_SD_au8Spanish_ta_head_call_waiting
000a3170   _APP_SD_au8Spanish_ta_head_calls
000a3178   _APP_SD_au8Spanish_ta_menu_call
000a3180   _APP_SD_au8Spanish_ta_main_callstacks
000a3190   _APP_SD_au8Spanish_call_head_register
000a31a0   _APP_SD_au8Spanish_ta_note_stacks_cleared
000a31c4   _APP_SD_au8Spanish_ta_head_nametag
000a31cc   _APP_SD_au8Spanish_ta_pb_nametag
000a31d8   _APP_SD_au8Spanish_ta_note_read_voice_tag
000a31ec   _APP_SD_au8Spanish_ta_note_voice_tag_reset
000a31fc   _APP_SD_au8Spanish_ta_head_reset_voice_tag
000a320c   _APP_SD_au8Spanish_ta_sw_info
000a3214   _APP_SD_au8Spanish_ta_menu_show
000a3218   _APP_SD_au8Spanish_ta_voice_tag_reset
000a3220   _APP_SD_au8Spanish_ta_audio_mode
000a322c   _APP_SD_au8Spanish_head_audio_mode
000a3238   _APP_SD_au8Spanish_ta_call_end
000a3240   _APP_SD_au8Spanish_ta_tag_record
000a3248   _APP_SD_au8Spanish_ta_off
000a3254   _APP_SD_au8Spanish_ta_head_options
000a325c   _APP_SD_au8Spanish_ta_menu_end
000a3268   _APP_SD_au8Spanish_ta_menu_user
000a3270   _APP_SD_au8Spanish_head_user
000a3278   _APP_SD_au8Spanish_ta_head_delete_user
000a3288   _APP_SD_au8Spanish_ta_note_search_user
000a329c   _APP_SD_au8Spanish_ta_head_user
000a32a4   _APP_SD_au8Spanish_ta_query_new_user
000a32bc   _APP_SD_au8Spanish_ta_note_new_user
000a32e0   _APP_SD_au8Spanish_ta_note_max_users
000a3304   _APP_SD_au8Spanish_ta_note_user_connected
000a3314   _APP_SD_au8Spanish_ta_note_number_busy
000a331c   _APP_SD_au8Spanish_ta_note_user_not_created
000a332c   _APP_SD_au8Spanish_ta_wait_general
000a333c   _APP_SD_au8Spanish_ta_note_enter_number
000a335c   _APP_SD_au8Spanish_ta_main_bluetooth
000a3368   _APP_SD_au8Spanish_head_bluetooth
000a3374   _APP_SD_au8Spanish_ta_bt_no_conn_headset
000a339c   _APP_SD_au8Spanish_ta_note_bt_conn_impos
000a33d0   _APP_SD_au8Spanish_ta_time_format
000a33d8   _APP_SD_au8Spanish_ta_head_datacall
000a33e8   _APP_SD_au8Spanish_ta_date_value
000a33f4   _APP_SD_au8Spanish_ta_call_dtmf
000a33f8   _APP_SD_au8Spanish_ta_head_dtmf
000a33fc   _APP_SD_au8Spanish_ta_on
000a3408   _APP_SD_au8Spanish_ta_main_settings
000a3410   _APP_SD_au8Spanish_head_settings
000a3418   _APP_SD_au8Spanish_ta_head_faxcall
000a341c   _APP_SD_au8Spanish_ta_call_handsfree
000a3428   _APP_SD_au8Spanish_ta_function_restriction
000a3450   _APP_SD_au8Spanish_ta_note_visible
000a3468   _APP_SD_au8Spanish_ta_note_info_call
000a3498   _APP_SD_au8Spanish_ta_note_service_call
000a34c4   _APP_SD_au8Spanish_ta_bt_paired_devices
000a34d4   _APP_SD_au8Spanish_paired_head_devices
000a34e4   _APP_SD_au8Spanish_ta_note_sos_call
000a350c   _APP_SD_au8Spanish_ta_note_deleted
000a3514   _APP_SD_au8Spanish_ta_note_user_deleted
000a3520   _APP_SD_au8Spanish_head_device_list
000a3534   _APP_SD_au8Spanish_ta_replace
000a3540   _APP_SD_au8Spanish_ta_call_end_active
000a3548   _APP_SD_au8Spanish_ta_disconnected
000a3560   _APP_SD_au8Spanish_ta_call_hold
000a3568   _APP_SD_au8Spanish_ta_bt_headset
000a3574   _APP_SD_au8Spanish_head_headset
000a3580   _APP_SD_au8Spanish_ta_time_value
000a3588   _APP_SD_au8Spanish_ta_menu_bt_help
000a3590   _APP_SD_au8Spanish_ta_always
000a3598   _APP_SD_au8Spanish_ta_call_info
000a35a8   _APP_SD_au8Spanish_ta_note_no_user
000a35dc   _APP_SD_au8Spanish_ta_note_no_bt_phone
000a35f4   _APP_SD_au8Spanish_ta_note_no_act_device
000a360c   _APP_SD_au8Spanish_ta_note_no_phone
000a3628   _APP_SD_au8Spanish_ta_note_no_accessory
000a363c   _APP_SD_au8Spanish_ta_note_no_bt_conn_acc
000a3658   _APP_SD_au8Spanish_ta_note_no_bt_conn_rsap
000a3688   _APP_SD_au8Spanish_ta_note_no_entries
000a36a0   _APP_SD_au8Spanish_ta_note_no_paired_dev
000a36b8   _APP_SD_au8Spanish_ta_note_no_sms
000a36c8   _APP_SD_au8Spanish_ta_note_no_network
000a36dc   _APP_SD_au8Spanish_ta_menu_no_nbr
000a36e8   _APP_SD_au8Spanish_ta_note_no_nbr
000a36f4   _APP_SD_au8Spanish_ta_note_mailbox_no
000a371c   _APP_SD_au8Spanish_ta_no_media_player_found
000a3744   _APP_SD_au8Spanish_ta_call_waiting
000a3750   _APP_SD_au8Spanish_ta_head_conference
000a3760   _APP_SD_au8Spanish_ta_head_conference_hold
000a3778   _APP_SD_au8Spanish_ta_note_conf_not_poss
000a379c   _APP_SD_au8Spanish_ta_conference
000a37ac   _APP_SD_au8Spanish_ta_note_copy_sms_failed
000a37c0   _APP_SD_au8Spanish_ta_err_load_phonebook
000a37dc   _APP_SD_au8Spanish_ta_call_silent
000a37e4   _APP_SD_au8Spanish_ta_head_stack_dialled
000a37ec   _APP_SD_au8Spanish_ta_stack_dialled
000a37f4   _APP_SD_au8Spanish_ta_stack_clear
000a3804   _APP_SD_au8Spanish_ta_menu_delete
000a380c   _APP_SD_au8Spanish_ta_note_sms_not_deleted
000a3828   _APP_SD_au8Spanish_ta_note_delete_impos_phone_active
000a3860   _APP_SD_au8Spanish_ta_query_del_device
000a386c   _APP_SD_au8Spanish_ta_query_delete_user
000a3878   _APP_SD_au8Spanish_ta_call_swap
000a3888   _APP_SD_au8Spanish_ta_media_player
000a3898   _APP_SD_au8Spanish_ta_head_media_player
000a38a8   _APP_SD_au8Spanish_ta_main_menu
000a38b0   _APP_SD_au8Spanish_ta_call_micro_off
000a38c4   _APP_SD_au8Spanish_ta_call_micro_on
000a38d4   _APP_SD_au8Spanish_ta_head_sms
000a38dc   _APP_SD_au8Spanish_ta_note_sms_deleted
000a38ec   _APP_SD_au8Spanish_ta_note_sms_no_read
000a3908   _APP_SD_au8Spanish_ta_query_delete_sms
000a3918   _APP_SD_au8Spanish_ta_head_sms_from
000a3924   _APP_SD_au8Spanish_ta_note_reading_sms
000a393c   _APP_SD_au8Spanish_ta_main_messages
000a3944   _APP_SD_au8Spanish_head_messages
000a394c   _APP_SD_au8Spanish_ta_note_no_rsap
000a396c   _APP_SD_au8Spanish_ta_note_search_phones
000a398c   _APP_SD_au8Spanish_ta_pb_sort_lastname
000a3998   _APP_SD_au8Spanish_ta_note_name_exists
000a39ac   _APP_SD_au8Spanish_ta_note_name_stored
000a39bc   _APP_SD_au8Spanish_ta_note_network_busy
000a39c8   _APP_SD_au8Spanish_new_sms
000a39d4   _APP_SD_au8Spanish_ta_note_conn_err
000a39e4   _APP_SD_au8Spanish_ta_note_new_sms
000a39f4   _APP_SD_au8Spanish_ta_menu_new_user
000a3a04   _APP_SD_au8Spanish_ta_note_new_phone_found
000a3a20   _APP_SD_au8Spanish_ta_note_new_pb_available
000a3a38   _APP_SD_au8Spanish_ta_supp_not_possible
000a3a44   _APP_SD_au8Spanish_ta_number
000a3a4c   _APP_SD_au8Spanish_ta_head_dial_nbr
000a3a58   _APP_SD_au8Spanish_ta_main_dial
000a3a64   _APP_SD_au8Spanish_ta_calls_only
000a3a74   _APP_SD_au8Spanish_ta_menu_ok
000a3a78   _APP_SD_au8Spanish_ta_call_service
000a3a88   _APP_SD_au8Spanish_ta_call_sos
000a3a94   _APP_SD_au8Spanish_ta_head_passkey
000a3aa0   _APP_SD_au8Spanish_ta_note_searching_players
000a3ac0   _APP_SD_au8Spanish_ta_note_connecting_player
000a3adc   _APP_SD_au8Spanish_ta_private_call
000a3aec   _APP_SD_au8Spanish_ta_head_private_call
000a3afc   _APP_SD_au8Spanish_ta_sms_call
000a3b04   _APP_SD_au8Spanish_ta_head_call_setup
000a3b0c   _APP_SD_au8Spanish_ta_note_invalid_number
000a3b2c   _APP_SD_au8Spanish_ta_head_number
000a3b34   _APP_SD_au8Spanish_ta_setting_tone
000a3b44   _APP_SD_au8Spanish_ta_sms_concatenated
000a3b5c   _APP_SD_au8Spanish_ta_sms_time
000a3b6c   _APP_SD_au8Spanish_ta_note_service_not_supp
000a3b84   _APP_SD_au8Spanish_ta_bt_visibility
000a3b90   _APP_SD_au8Spanish_ta_query_visibility
000a3ba8   _APP_SD_au8Spanish_ta_setting_signals
000a3bbc   _APP_SD_au8Spanish_ta_head_setting_signals
000a3bd0   _APP_SD_au8Spanish_ta_head_sorting_order
000a3bd8   _APP_SD_au8Spanish_ta_sorting_order
000a3be0   _APP_SD_au8Spanish_ta_note_tag_no_memory
000a3c00   _APP_SD_au8Spanish_ta_menu_save
000a3c0c   _APP_SD_au8Spanish_ta_backspace
000a3c14   _APP_SD_au8Spanish_ta_note_voice_not_ready
000a3c30   _APP_SD_au8Spanish_ta_note_voice_active
000a3c50   _APP_SD_au8Spanish_ta_main_mailbox
000a3c60   _APP_SD_au8Spanish_ta_head_mailbox
000a3c70   _APP_SD_au8Spanish_ta_search
000a3c7c   _APP_SD_au8Spanish_ta_note_pb_refresh_impos
000a3c98   _APP_SD_au8Spanish_ta_head_phone
000a3ca4   _APP_SD_au8Spanish_ta_note_enter_cradle
000a3cd4   _APP_SD_au8Spanish_ta_note_phone_initiated
000a3cf4   _APP_SD_au8Spanish_ta_phone_book
000a3cfc   _APP_SD_au8Spanish_ta_head_phone_book
000a3d04   _APP_SD_au8Spanish_ta_note_pb_load_error
000a3d20   _APP_SD_au8Spanish_ta_note_call_estab_failed
000a3d40   _APP_SD_au8Spanish_ta_note_pb_not_complete
000a3d60   _APP_SD_au8Spanish_ta_note_pbook_loading
000a3d7c   _APP_SD_au8Spanish_ta_note_pb_loading_all
000a3d90   _APP_SD_au8Spanish_ta_bt_own_name
000a3da0   _APP_SD_au8Spanish_ta_head_phone_name
000a3db0   _APP_SD_au8Spanish_ta_phone_search
000a3dc0   _APP_SD_au8Spanish_ta_bt_disconnect
000a3dcc   _APP_SD_au8Spanish_ta_bt_rename
000a3dd8   _APP_SD_au8Spanish_ta_switch
000a3de0   _APP_SD_au8Spanish_ta_connect
000a3de8   _APP_SD_au8Spanish_ta_query_connect
000a3dfc   _APP_SD_au8Spanish_ta_note_conn_terminated
000a3e14   _APP_SD_au8Spanish_ta_note_bt_no_conn
000a3e28   _APP_SD_au8Spanish_ta_note_bt_conn_setup
000a3e38   _APP_SD_au8Spanish_ta_note_connected
000a3e48   _APP_SD_au8Spanish_ta_note_bt_acc_conn
000a3e6c   _APP_SD_au8Spanish_ta_read_out_sms
000a3e78   _APP_SD_au8Spanish_ta_pb_sort_firstname
000a3e80   _APP_SD_au8Spanish_ta_note_wait_reply
000a3e98   _APP_SD_au8Spanish_ta_tag_play
000a3ea0   _APP_SD_au8Spanish_ta_menu_view
000a3ea8   _APP_SD_au8Spanish_ta_bt_accessory
000a3eb4   _APP_SD_au8Spanish_ta_wait_bt_acc_search
000a3ed4   _APP_SD_au8Spanish_ta_help_text
000a3fdc   _APP_SD_au8Spanish_ta_list_back
000a3fe4   _APP_SD_au8Spanish_ta_phone_no_answer
000a4000   _APP_SD_au8Spanish_ta_confirm_pw_with_OK
000a4018   _APP_SD_au8Spanish_ta_confirm_pw_in_device
000a403c   _APP_SD_au8Italian_ta_time_am
000a404c   _APP_SD_au8Italian_ta_time_pm
000a405c   _APP_SD_au8Italian_ta_call_diverted
000a4068   _APP_SD_au8Italian_ta_time_standard
000a4078   _APP_SD_au8Italian_ta_menu_cancel
000a4080   _APP_SD_au8Italian_ta_call_reject
000a4088   _APP_SD_au8Italian_ta_note_ignition
000a40b0   _APP_SD_au8Italian_ta_query_del_act_device
000a40c0   _APP_SD_au8Italian_ta_query_del_act_user
000a40d0   _APP_SD_au8Italian_ta_head_call_active
000a40e0   _APP_SD_au8Italian_ta_head_active_tone
000a40f0   _APP_SD_au8Italian_ta_bt_active_device
000a40fc   _APP_SD_au8Italian_ta_call_resume
000a4104   _APP_SD_au8Italian_ta_pb_download
000a4110   _APP_SD_au8Italian_ta_query_terminate_conn
000a411c   _APP_SD_au8Italian_ta_query_delete_log
000a4138   _APP_SD_au8Italian_ta_music_paused
000a4160   _APP_SD_au8Italian_ta_call_end_all
000a416c   _APP_SD_au8Italian_ta_stack_received
000a4174   _APP_SD_au8Italian_ta_note_bt_passkey_err
000a4188   _APP_SD_au8Italian_ta_call_accept
000a4194   _APP_SD_au8Italian_ta_head_stack_received
000a419c   _APP_SD_au8Italian_ta_head_stack_missed
000a41a4   _APP_SD_au8Italian_ta_stack_missed
000a41ac   _APP_SD_au8Italian_ta_head_call
000a41b4   _APP_SD_au8Italian_ta_head_incoming_call
000a41bc   _APP_SD_au8Italian_ta_call_call1
000a41c8   _APP_SD_au8Italian_ta_head_call1
000a41d4   _APP_SD_au8Italian_ta_call_call2
000a41e0   _APP_SD_au8Italian_ta_head_call2
000a41ec   _APP_SD_au8Italian_ta_end_call
000a41f8   _APP_SD_au8Italian_ta_head_call_hold
000a4208   _APP_SD_au8Italian_ta_note_missed_call
000a4220   _APP_SD_au8Italian_ta_head_call_waiting
000a4230   _APP_SD_au8Italian_ta_head_calls
000a4238   _APP_SD_au8Italian_ta_menu_call
000a4240   _APP_SD_au8Italian_ta_main_callstacks
000a4250   _APP_SD_au8Italian_call_head_register
000a4260   _APP_SD_au8Italian_ta_note_stacks_cleared
000a427c   _APP_SD_au8Italian_ta_head_nametag
000a4280   _APP_SD_au8Italian_ta_pb_nametag
000a4284   _APP_SD_au8Italian_ta_note_read_voice_tag
000a4294   _APP_SD_au8Italian_ta_note_voice_tag_reset
000a42a4   _APP_SD_au8Italian_ta_head_reset_voice_tag
000a42b4   _APP_SD_au8Italian_ta_sw_info
000a42bc   _APP_SD_au8Italian_ta_menu_show
000a42c4   _APP_SD_au8Italian_ta_voice_tag_reset
000a42cc   _APP_SD_au8Italian_ta_audio_mode
000a42dc   _APP_SD_au8Italian_head_audio_mode
000a42ec   _APP_SD_au8Italian_ta_call_end
000a42f8   _APP_SD_au8Italian_ta_tag_record
000a4300   _APP_SD_au8Italian_ta_off
000a430c   _APP_SD_au8Italian_ta_head_options
000a4318   _APP_SD_au8Italian_ta_menu_end
000a431c   _APP_SD_au8Italian_ta_menu_user
000a4324   _APP_SD_au8Italian_head_user
000a432c   _APP_SD_au8Italian_ta_head_delete_user
000a433c   _APP_SD_au8Italian_ta_note_search_user
000a4350   _APP_SD_au8Italian_ta_head_user
000a4358   _APP_SD_au8Italian_ta_query_new_user
000a436c   _APP_SD_au8Italian_ta_note_new_user
000a4390   _APP_SD_au8Italian_ta_note_max_users
000a43b8   _APP_SD_au8Italian_ta_note_user_connected
000a43c8   _APP_SD_au8Italian_ta_note_number_busy
000a43d0   _APP_SD_au8Italian_ta_note_user_not_created
000a43e8   _APP_SD_au8Italian_ta_wait_general
000a43f8   _APP_SD_au8Italian_ta_note_enter_number
000a4414   _APP_SD_au8Italian_ta_main_bluetooth
000a4420   _APP_SD_au8Italian_head_bluetooth
000a442c   _APP_SD_au8Italian_ta_bt_no_conn_headset
000a4458   _APP_SD_au8Italian_ta_note_bt_conn_impos
000a4488   _APP_SD_au8Italian_ta_time_format
000a4490   _APP_SD_au8Italian_ta_head_datacall
000a4494   _APP_SD_au8Italian_ta_date_value
000a44a0   _APP_SD_au8Italian_ta_call_dtmf
000a44a4   _APP_SD_au8Italian_ta_head_dtmf
000a44a8   _APP_SD_au8Italian_ta_on
000a44b0   _APP_SD_au8Italian_ta_main_settings
000a44bc   _APP_SD_au8Italian_head_settings
000a44c8   _APP_SD_au8Italian_ta_head_faxcall
000a44cc   _APP_SD_au8Italian_ta_call_handsfree
000a44d8   _APP_SD_au8Italian_ta_function_restriction
000a44f4   _APP_SD_au8Italian_ta_note_visible
000a4508   _APP_SD_au8Italian_ta_note_info_call
000a4538   _APP_SD_au8Italian_ta_note_service_call
000a4568   _APP_SD_au8Italian_ta_bt_paired_devices
000a4578   _APP_SD_au8Italian_paired_head_devices
000a4588   _APP_SD_au8Italian_ta_note_sos_call
000a45b0   _APP_SD_au8Italian_ta_note_deleted
000a45bc   _APP_SD_au8Italian_ta_note_user_deleted
000a45c8   _APP_SD_au8Italian_head_device_list
000a45d8   _APP_SD_au8Italian_ta_replace
000a45e4   _APP_SD_au8Italian_ta_call_end_active
000a45f4   _APP_SD_au8Italian_ta_disconnected
000a460c   _APP_SD_au8Italian_ta_call_hold
000a4618   _APP_SD_au8Italian_ta_bt_headset
000a4620   _APP_SD_au8Italian_head_headset
000a4628   _APP_SD_au8Italian_ta_time_value
000a4630   _APP_SD_au8Italian_ta_menu_bt_help
000a4638   _APP_SD_au8Italian_ta_always
000a4640   _APP_SD_au8Italian_ta_call_info
000a4650   _APP_SD_au8Italian_ta_note_no_user
000a467c   _APP_SD_au8Italian_ta_note_no_bt_phone
000a469c   _APP_SD_au8Italian_ta_note_no_act_device
000a46b4   _APP_SD_au8Italian_ta_note_no_phone
000a46d8   _APP_SD_au8Italian_ta_note_no_accessory
000a46f0   _APP_SD_au8Italian_ta_note_no_bt_conn_acc
000a4714   _APP_SD_au8Italian_ta_note_no_bt_conn_rsap
000a4740   _APP_SD_au8Italian_ta_note_no_entries
000a4750   _APP_SD_au8Italian_ta_note_no_paired_dev
000a476c   _APP_SD_au8Italian_ta_note_no_sms
000a4784   _APP_SD_au8Italian_ta_note_no_network
000a4794   _APP_SD_au8Italian_ta_menu_no_nbr
000a47a0   _APP_SD_au8Italian_ta_note_no_nbr
000a47b0   _APP_SD_au8Italian_ta_note_mailbox_no
000a47dc   _APP_SD_au8Italian_ta_no_media_player_found
000a47fc   _APP_SD_au8Italian_ta_call_waiting
000a4808   _APP_SD_au8Italian_ta_head_conference
000a4814   _APP_SD_au8Italian_ta_head_conference_hold
000a4828   _APP_SD_au8Italian_ta_note_conf_not_poss
000a4844   _APP_SD_au8Italian_ta_conference
000a4850   _APP_SD_au8Italian_ta_note_copy_sms_failed
000a486c   _APP_SD_au8Italian_ta_err_load_phonebook
000a4898   _APP_SD_au8Italian_ta_call_silent
000a489c   _APP_SD_au8Italian_ta_head_stack_dialled
000a48a8   _APP_SD_au8Italian_ta_stack_dialled
000a48b4   _APP_SD_au8Italian_ta_stack_clear
000a48c4   _APP_SD_au8Italian_ta_menu_delete
000a48cc   _APP_SD_au8Italian_ta_note_sms_not_deleted
000a48f0   _APP_SD_au8Italian_ta_note_delete_impos_phone_active
000a4924   _APP_SD_au8Italian_ta_query_del_device
000a4930   _APP_SD_au8Italian_ta_query_delete_user
000a4940   _APP_SD_au8Italian_ta_call_swap
000a4948   _APP_SD_au8Italian_ta_media_player
000a4950   _APP_SD_au8Italian_ta_head_media_player
000a4958   _APP_SD_au8Italian_ta_main_menu
000a495c   _APP_SD_au8Italian_ta_call_micro_off
000a496c   _APP_SD_au8Italian_ta_call_micro_on
000a497c   _APP_SD_au8Italian_ta_head_sms
000a4988   _APP_SD_au8Italian_ta_note_sms_deleted
000a499c   _APP_SD_au8Italian_ta_note_sms_no_read
000a49b8   _APP_SD_au8Italian_ta_query_delete_sms
000a49cc   _APP_SD_au8Italian_ta_head_sms_from
000a49d8   _APP_SD_au8Italian_ta_note_reading_sms
000a49f0   _APP_SD_au8Italian_ta_main_messages
000a49f8   _APP_SD_au8Italian_head_messages
000a4a00   _APP_SD_au8Italian_ta_note_no_rsap
000a4a18   _APP_SD_au8Italian_ta_note_search_phones
000a4a40   _APP_SD_au8Italian_ta_pb_sort_lastname
000a4a48   _APP_SD_au8Italian_ta_note_name_exists
000a4a5c   _APP_SD_au8Italian_ta_note_name_stored
000a4a6c   _APP_SD_au8Italian_ta_note_network_busy
000a4a7c   _APP_SD_au8Italian_new_sms
000a4a88   _APP_SD_au8Italian_ta_note_conn_err
000a4a98   _APP_SD_au8Italian_ta_note_new_sms
000a4aa8   _APP_SD_au8Italian_ta_menu_new_user
000a4ab8   _APP_SD_au8Italian_ta_note_new_phone_found
000a4ad0   _APP_SD_au8Italian_ta_note_new_pb_available
000a4ae8   _APP_SD_au8Italian_ta_supp_not_possible
000a4af8   _APP_SD_au8Italian_ta_number
000a4b00   _APP_SD_au8Italian_ta_head_dial_nbr
000a4b10   _APP_SD_au8Italian_ta_main_dial
000a4b20   _APP_SD_au8Italian_ta_calls_only
000a4b30   _APP_SD_au8Italian_ta_menu_ok
000a4b34   _APP_SD_au8Italian_ta_call_service
000a4b44   _APP_SD_au8Italian_ta_call_sos
000a4b50   _APP_SD_au8Italian_ta_head_passkey
000a4b5c   _APP_SD_au8Italian_ta_note_searching_players
000a4b80   _APP_SD_au8Italian_ta_note_connecting_player
000a4b98   _APP_SD_au8Italian_ta_private_call
000a4ba4   _APP_SD_au8Italian_ta_head_private_call
000a4bb0   _APP_SD_au8Italian_ta_sms_call
000a4bb8   _APP_SD_au8Italian_ta_head_call_setup
000a4bc0   _APP_SD_au8Italian_ta_note_invalid_number
000a4bdc   _APP_SD_au8Italian_ta_head_number
000a4be4   _APP_SD_au8Italian_ta_setting_tone
000a4bec   _APP_SD_au8Italian_ta_sms_concatenated
000a4c04   _APP_SD_au8Italian_ta_sms_time
000a4c10   _APP_SD_au8Italian_ta_note_service_not_supp
000a4c28   _APP_SD_au8Italian_ta_bt_visibility
000a4c34   _APP_SD_au8Italian_ta_query_visibility
000a4c48   _APP_SD_au8Italian_ta_setting_signals
000a4c58   _APP_SD_au8Italian_ta_head_setting_signals
000a4c68   _APP_SD_au8Italian_ta_head_sorting_order
000a4c74   _APP_SD_au8Italian_ta_sorting_order
000a4c7c   _APP_SD_au8Italian_ta_note_tag_no_memory
000a4ca4   _APP_SD_au8Italian_ta_menu_save
000a4cb0   _APP_SD_au8Italian_ta_backspace
000a4cb8   _APP_SD_au8Italian_ta_note_voice_not_ready
000a4ce4   _APP_SD_au8Italian_ta_note_voice_active
000a4d04   _APP_SD_au8Italian_ta_main_mailbox
000a4d14   _APP_SD_au8Italian_ta_head_mailbox
000a4d24   _APP_SD_au8Italian_ta_search
000a4d2c   _APP_SD_au8Italian_ta_note_pb_refresh_impos
000a4d4c   _APP_SD_au8Italian_ta_head_phone
000a4d54   _APP_SD_au8Italian_ta_note_enter_cradle
000a4d74   _APP_SD_au8Italian_ta_note_phone_initiated
000a4da0   _APP_SD_au8Italian_ta_phone_book
000a4da8   _APP_SD_au8Italian_ta_head_phone_book
000a4db0   _APP_SD_au8Italian_ta_note_pb_load_error
000a4dd0   _APP_SD_au8Italian_ta_note_call_estab_failed
000a4de4   _APP_SD_au8Italian_ta_note_pb_not_complete
000a4e08   _APP_SD_au8Italian_ta_note_pbook_loading
000a4e2c   _APP_SD_au8Italian_ta_note_pb_loading_all
000a4e4c   _APP_SD_au8Italian_ta_bt_own_name
000a4e5c   _APP_SD_au8Italian_ta_head_phone_name
000a4e6c   _APP_SD_au8Italian_ta_phone_search
000a4e7c   _APP_SD_au8Italian_ta_bt_disconnect
000a4e88   _APP_SD_au8Italian_ta_bt_rename
000a4e90   _APP_SD_au8Italian_ta_switch
000a4e98   _APP_SD_au8Italian_ta_connect
000a4ea0   _APP_SD_au8Italian_ta_query_connect
000a4eb4   _APP_SD_au8Italian_ta_note_conn_terminated
000a4ecc   _APP_SD_au8Italian_ta_note_bt_no_conn
000a4ee4   _APP_SD_au8Italian_ta_note_bt_conn_setup
000a4efc   _APP_SD_au8Italian_ta_note_connected
000a4f0c   _APP_SD_au8Italian_ta_note_bt_acc_conn
000a4f28   _APP_SD_au8Italian_ta_read_out_sms
000a4f30   _APP_SD_au8Italian_ta_pb_sort_firstname
000a4f34   _APP_SD_au8Italian_ta_note_wait_reply
000a4f4c   _APP_SD_au8Italian_ta_tag_play
000a4f58   _APP_SD_au8Italian_ta_menu_view
000a4f64   _APP_SD_au8Italian_ta_bt_accessory
000a4f6c   _APP_SD_au8Italian_ta_wait_bt_acc_search
000a4f90   _APP_SD_au8Italian_ta_help_text
000a50a8   _APP_SD_au8Italian_ta_list_back
000a50b0   _APP_SD_au8Italian_ta_phone_no_answer
000a50c4   _APP_SD_au8Italian_ta_confirm_pw_with_OK
000a50e0   _APP_SD_au8Italian_ta_confirm_pw_in_device
000a5104   _APP_SD_au8French_ta_time_am
000a5114   _APP_SD_au8French_ta_time_pm
000a5124   _APP_SD_au8French_ta_call_diverted
000a5134   _APP_SD_au8French_ta_time_standard
000a5144   _APP_SD_au8French_ta_menu_cancel
000a514c   _APP_SD_au8French_ta_call_reject
000a5154   _APP_SD_au8French_ta_note_ignition
000a5184   _APP_SD_au8French_ta_query_del_act_device
000a5198   _APP_SD_au8French_ta_query_del_act_user
000a51ac   _APP_SD_au8French_ta_head_call_active
000a51bc   _APP_SD_au8French_ta_head_active_tone
000a51cc   _APP_SD_au8French_ta_bt_active_device
000a51dc   _APP_SD_au8French_ta_call_resume
000a51e4   _APP_SD_au8French_ta_pb_download
000a51f4   _APP_SD_au8French_ta_query_terminate_conn
000a5210   _APP_SD_au8French_ta_query_delete_log
000a522c   _APP_SD_au8French_ta_music_paused
000a5244   _APP_SD_au8French_ta_call_end_all
000a5250   _APP_SD_au8French_ta_stack_received
000a5260   _APP_SD_au8French_ta_note_bt_passkey_err
000a5278   _APP_SD_au8French_ta_call_accept
000a5284   _APP_SD_au8French_ta_head_stack_received
000a5294   _APP_SD_au8French_ta_head_stack_missed
000a52a4   _APP_SD_au8French_ta_stack_missed
000a52b4   _APP_SD_au8French_ta_head_call
000a52bc   _APP_SD_au8French_ta_head_incoming_call
000a52cc   _APP_SD_au8French_ta_call_call1
000a52d4   _APP_SD_au8French_ta_head_call1
000a52dc   _APP_SD_au8French_ta_call_call2
000a52e4   _APP_SD_au8French_ta_head_call2
000a52ec   _APP_SD_au8French_ta_end_call
000a52f8   _APP_SD_au8French_ta_head_call_hold
000a5308   _APP_SD_au8French_ta_note_missed_call
000a5318   _APP_SD_au8French_ta_head_call_waiting
000a5328   _APP_SD_au8French_ta_head_calls
000a5330   _APP_SD_au8French_ta_menu_call
000a5338   _APP_SD_au8French_ta_main_callstacks
000a5348   _APP_SD_au8French_call_head_register
000a5358   _APP_SD_au8French_ta_note_stacks_cleared
000a5374   _APP_SD_au8French_ta_head_nametag
000a5380   _APP_SD_au8French_ta_pb_nametag
000a538c   _APP_SD_au8French_ta_note_read_voice_tag
000a53a0   _APP_SD_au8French_ta_note_voice_tag_reset
000a53bc   _APP_SD_au8French_ta_head_reset_voice_tag
000a53d8   _APP_SD_au8French_ta_sw_info
000a53e0   _APP_SD_au8French_ta_menu_show
000a53e8   _APP_SD_au8French_ta_voice_tag_reset
000a53f8   _APP_SD_au8French_ta_audio_mode
000a5404   _APP_SD_au8French_head_audio_mode
000a5410   _APP_SD_au8French_ta_call_end
000a541c   _APP_SD_au8French_ta_tag_record
000a5428   _APP_SD_au8French_ta_off
000a5434   _APP_SD_au8French_ta_head_options
000a543c   _APP_SD_au8French_ta_menu_end
000a5444   _APP_SD_au8French_ta_menu_user
000a5450   _APP_SD_au8French_head_user
000a545c   _APP_SD_au8French_ta_head_delete_user
000a5474   _APP_SD_au8French_ta_note_search_user
000a5490   _APP_SD_au8French_ta_head_user
000a54a0   _APP_SD_au8French_ta_query_new_user
000a54bc   _APP_SD_au8French_ta_note_new_user
000a54e0   _APP_SD_au8French_ta_note_max_users
000a5500   _APP_SD_au8French_ta_note_user_connected
000a5514   _APP_SD_au8French_ta_note_number_busy
000a551c   _APP_SD_au8French_ta_note_user_not_created
000a5534   _APP_SD_au8French_ta_wait_general
000a5548   _APP_SD_au8French_ta_note_enter_number
000a5570   _APP_SD_au8French_ta_main_bluetooth
000a557c   _APP_SD_au8French_head_bluetooth
000a5588   _APP_SD_au8French_ta_bt_no_conn_headset
000a55b0   _APP_SD_au8French_ta_note_bt_conn_impos
000a55cc   _APP_SD_au8French_ta_time_format
000a55d4   _APP_SD_au8French_ta_head_datacall
000a55e4   _APP_SD_au8French_ta_date_value
000a55f0   _APP_SD_au8French_ta_call_dtmf
000a55f4   _APP_SD_au8French_ta_head_dtmf
000a55f8   _APP_SD_au8French_ta_on
000a5600   _APP_SD_au8French_ta_main_settings
000a560c   _APP_SD_au8French_head_settings
000a5618   _APP_SD_au8French_ta_head_faxcall
000a5624   _APP_SD_au8French_ta_call_handsfree
000a5630   _APP_SD_au8French_ta_function_restriction
000a5658   _APP_SD_au8French_ta_note_visible
000a5670   _APP_SD_au8French_ta_note_info_call
000a569c   _APP_SD_au8French_ta_note_service_call
000a56cc   _APP_SD_au8French_ta_bt_paired_devices
000a56dc   _APP_SD_au8French_paired_head_devices
000a56ec   _APP_SD_au8French_ta_note_sos_call
000a571c   _APP_SD_au8French_ta_note_deleted
000a5728   _APP_SD_au8French_ta_note_user_deleted
000a5734   _APP_SD_au8French_head_device_list
000a5748   _APP_SD_au8French_ta_replace
000a5754   _APP_SD_au8French_ta_call_end_active
000a5760   _APP_SD_au8French_ta_disconnected
000a576c   _APP_SD_au8French_ta_call_hold
000a5778   _APP_SD_au8French_ta_bt_headset
000a5784   _APP_SD_au8French_head_headset
000a5790   _APP_SD_au8French_ta_time_value
000a5798   _APP_SD_au8French_ta_menu_bt_help
000a579c   _APP_SD_au8French_ta_always
000a57a4   _APP_SD_au8French_ta_call_info
000a57b4   _APP_SD_au8French_ta_note_no_user
000a57e8   _APP_SD_au8French_ta_note_no_bt_phone
000a5808   _APP_SD_au8French_ta_note_no_act_device
000a5820   _APP_SD_au8French_ta_note_no_phone
000a5848   _APP_SD_au8French_ta_note_no_accessory
000a5860   _APP_SD_au8French_ta_note_no_bt_conn_acc
000a5884   _APP_SD_au8French_ta_note_no_bt_conn_rsap
000a58b0   _APP_SD_au8French_ta_note_no_entries
000a58c8   _APP_SD_au8French_ta_note_no_paired_dev
000a58e0   _APP_SD_au8French_ta_note_no_sms
000a58f4   _APP_SD_au8French_ta_note_no_network
000a5914   _APP_SD_au8French_ta_menu_no_nbr
000a591c   _APP_SD_au8French_ta_note_no_nbr
000a593c   _APP_SD_au8French_ta_note_mailbox_no
000a5960   _APP_SD_au8French_ta_no_media_player_found
000a5984   _APP_SD_au8French_ta_call_waiting
000a5990   _APP_SD_au8French_ta_head_conference
000a599c   _APP_SD_au8French_ta_head_conference_hold
000a59b0   _APP_SD_au8French_ta_note_conf_not_poss
000a59c8   _APP_SD_au8French_ta_conference
000a59d4   _APP_SD_au8French_ta_note_copy_sms_failed
000a59f8   _APP_SD_au8French_ta_err_load_phonebook
000a5a20   _APP_SD_au8French_ta_call_silent
000a5a2c   _APP_SD_au8French_ta_head_stack_dialled
000a5a3c   _APP_SD_au8French_ta_stack_dialled
000a5a4c   _APP_SD_au8French_ta_stack_clear
000a5a5c   _APP_SD_au8French_ta_menu_delete
000a5a68   _APP_SD_au8French_ta_note_sms_not_deleted
000a5a88   _APP_SD_au8French_ta_note_delete_impos_phone_active
000a5abc   _APP_SD_au8French_ta_query_del_device
000a5ac8   _APP_SD_au8French_ta_query_delete_user
000a5ad8   _APP_SD_au8French_ta_call_swap
000a5ae8   _APP_SD_au8French_ta_media_player
000a5af8   _APP_SD_au8French_ta_head_media_player
000a5b08   _APP_SD_au8French_ta_main_menu
000a5b0c   _APP_SD_au8French_ta_call_micro_off
000a5b1c   _APP_SD_au8French_ta_call_micro_on
000a5b2c   _APP_SD_au8French_ta_head_sms
000a5b30   _APP_SD_au8French_ta_note_sms_deleted
000a5b3c   _APP_SD_au8French_ta_note_sms_no_read
000a5b60   _APP_SD_au8French_ta_query_delete_sms
000a5b70   _APP_SD_au8French_ta_head_sms_from
000a5b78   _APP_SD_au8French_ta_note_reading_sms
000a5b8c   _APP_SD_au8French_ta_main_messages
000a5b94   _APP_SD_au8French_head_messages
000a5b9c   _APP_SD_au8French_ta_note_no_rsap
000a5bbc   _APP_SD_au8French_ta_note_search_phones
000a5bdc   _APP_SD_au8French_ta_pb_sort_lastname
000a5be0   _APP_SD_au8French_ta_note_name_exists
000a5bf4   _APP_SD_au8French_ta_note_name_stored
000a5c04   _APP_SD_au8French_ta_note_network_busy
000a5c14   _APP_SD_au8French_new_sms
000a5c20   _APP_SD_au8French_ta_note_conn_err
000a5c30   _APP_SD_au8French_ta_note_new_sms
000a5c3c   _APP_SD_au8French_ta_menu_new_user
000a5c50   _APP_SD_au8French_ta_note_new_phone_found
000a5c6c   _APP_SD_au8French_ta_note_new_pb_available
000a5c88   _APP_SD_au8French_ta_supp_not_possible
000a5c94   _APP_SD_au8French_ta_number
000a5ca4   _APP_SD_au8French_ta_head_dial_nbr
000a5cb8   _APP_SD_au8French_ta_main_dial
000a5ccc   _APP_SD_au8French_ta_calls_only
000a5cdc   _APP_SD_au8French_ta_menu_ok
000a5ce0   _APP_SD_au8French_ta_call_service
000a5cf0   _APP_SD_au8French_ta_call_sos
000a5d04   _APP_SD_au8French_ta_head_passkey
000a5d14   _APP_SD_au8French_ta_note_searching_players
000a5d38   _APP_SD_au8French_ta_note_connecting_player
000a5d50   _APP_SD_au8French_ta_private_call
000a5d5c   _APP_SD_au8French_ta_head_private_call
000a5d68   _APP_SD_au8French_ta_sms_call
000a5d70   _APP_SD_au8French_ta_head_call_setup
000a5d80   _APP_SD_au8French_ta_note_invalid_number
000a5da0   _APP_SD_au8French_ta_head_number
000a5db4   _APP_SD_au8French_ta_setting_tone
000a5dbc   _APP_SD_au8French_ta_sms_concatenated
000a5dd4   _APP_SD_au8French_ta_sms_time
000a5de4   _APP_SD_au8French_ta_note_service_not_supp
000a5e00   _APP_SD_au8French_ta_bt_visibility
000a5e0c   _APP_SD_au8French_ta_query_visibility
000a5e20   _APP_SD_au8French_ta_setting_signals
000a5e30   _APP_SD_au8French_ta_head_setting_signals
000a5e40   _APP_SD_au8French_ta_head_sorting_order
000a5e44   _APP_SD_au8French_ta_sorting_order
000a5e48   _APP_SD_au8French_ta_note_tag_no_memory
000a5e70   _APP_SD_au8French_ta_menu_save
000a5e7c   _APP_SD_au8French_ta_backspace
000a5e88   _APP_SD_au8French_ta_note_voice_not_ready
000a5ea8   _APP_SD_au8French_ta_note_voice_active
000a5ec0   _APP_SD_au8French_ta_main_mailbox
000a5ed0   _APP_SD_au8French_ta_head_mailbox
000a5ee0   _APP_SD_au8French_ta_search
000a5eec   _APP_SD_au8French_ta_note_pb_refresh_impos
000a5f14   _APP_SD_au8French_ta_head_phone
000a5f20   _APP_SD_au8French_ta_note_enter_cradle
000a5f5c   _APP_SD_au8French_ta_note_phone_initiated
000a5f88   _APP_SD_au8French_ta_phone_book
000a5f94   _APP_SD_au8French_ta_head_phone_book
000a5fa0   _APP_SD_au8French_ta_note_pb_load_error
000a5fc4   _APP_SD_au8French_ta_note_call_estab_failed
000a5fe8   _APP_SD_au8French_ta_note_pb_not_complete
000a600c   _APP_SD_au8French_ta_note_pbook_loading
000a6030   _APP_SD_au8French_ta_note_pb_loading_all
000a6050   _APP_SD_au8French_ta_bt_own_name
000a6060   _APP_SD_au8French_ta_head_phone_name
000a6074   _APP_SD_au8French_ta_phone_search
000a6088   _APP_SD_au8French_ta_bt_disconnect
000a6094   _APP_SD_au8French_ta_bt_rename
000a609c   _APP_SD_au8French_ta_switch
000a60a4   _APP_SD_au8French_ta_connect
000a60b0   _APP_SD_au8French_ta_query_connect
000a60c4   _APP_SD_au8French_ta_note_conn_terminated
000a60d0   _APP_SD_au8French_ta_note_bt_no_conn
000a60e4   _APP_SD_au8French_ta_note_bt_conn_setup
000a6108   _APP_SD_au8French_ta_note_connected
000a6118   _APP_SD_au8French_ta_note_bt_acc_conn
000a613c   _APP_SD_au8French_ta_read_out_sms
000a6144   _APP_SD_au8French_ta_pb_sort_firstname
000a614c   _APP_SD_au8French_ta_note_wait_reply
000a6160   _APP_SD_au8French_ta_tag_play
000a616c   _APP_SD_au8French_ta_menu_view
000a6174   _APP_SD_au8French_ta_bt_accessory
000a6184   _APP_SD_au8French_ta_wait_bt_acc_search
000a61ac   _APP_SD_au8French_ta_help_text
000a62e4   _APP_SD_au8French_ta_list_back
000a62ec   _APP_SD_au8French_ta_phone_no_answer
000a630c   _APP_SD_au8French_ta_confirm_pw_with_OK
000a6328   _APP_SD_au8French_ta_confirm_pw_in_device
000a6344   _APP_SD_au8Portugese_ta_time_am
000a6354   _APP_SD_au8Portugese_ta_time_pm
000a6364   _APP_SD_au8Portugese_ta_call_diverted
000a6370   _APP_SD_au8Portugese_ta_time_standard
000a6380   _APP_SD_au8Portugese_ta_menu_cancel
000a6388   _APP_SD_au8Portugese_ta_call_reject
000a6390   _APP_SD_au8Portugese_ta_note_ignition
000a63bc   _APP_SD_au8Portugese_ta_query_del_act_device
000a63cc   _APP_SD_au8Portugese_ta_query_del_act_user
000a63dc   _APP_SD_au8Portugese_ta_head_call_active
000a63ec   _APP_SD_au8Portugese_ta_head_active_tone
000a63f8   _APP_SD_au8Portugese_ta_bt_active_device
000a6408   _APP_SD_au8Portugese_ta_call_resume
000a6410   _APP_SD_au8Portugese_ta_pb_download
000a641c   _APP_SD_au8Portugese_ta_query_terminate_conn
000a6434   _APP_SD_au8Portugese_ta_query_delete_log
000a6454   _APP_SD_au8Portugese_ta_music_paused
000a6470   _APP_SD_au8Portugese_ta_call_end_all
000a6480   _APP_SD_au8Portugese_ta_stack_received
000a648c   _APP_SD_au8Portugese_ta_note_bt_passkey_err
000a649c   _APP_SD_au8Portugese_ta_call_accept
000a64a4   _APP_SD_au8Portugese_ta_head_stack_received
000a64b0   _APP_SD_au8Portugese_ta_head_stack_missed
000a64c0   _APP_SD_au8Portugese_ta_stack_missed
000a64d0   _APP_SD_au8Portugese_ta_head_call
000a64d8   _APP_SD_au8Portugese_ta_head_incoming_call
000a64e0   _APP_SD_au8Portugese_ta_call_call1
000a64ec   _APP_SD_au8Portugese_ta_head_call1
000a64f8   _APP_SD_au8Portugese_ta_call_call2
000a6504   _APP_SD_au8Portugese_ta_head_call2
000a6510   _APP_SD_au8Portugese_ta_end_call
000a651c   _APP_SD_au8Portugese_ta_head_call_hold
000a6528   _APP_SD_au8Portugese_ta_note_missed_call
000a653c   _APP_SD_au8Portugese_ta_head_call_waiting
000a6548   _APP_SD_au8Portugese_ta_head_calls
000a6550   _APP_SD_au8Portugese_ta_menu_call
000a6558   _APP_SD_au8Portugese_ta_main_callstacks
000a6568   _APP_SD_au8Portugese_call_head_register
000a6578   _APP_SD_au8Portugese_ta_note_stacks_cleared
000a6594   _APP_SD_au8Portugese_ta_head_nametag
000a65a0   _APP_SD_au8Portugese_ta_pb_nametag
000a65ac   _APP_SD_au8Portugese_ta_note_read_voice_tag
000a65bc   _APP_SD_au8Portugese_ta_note_voice_tag_reset
000a65d0   _APP_SD_au8Portugese_ta_head_reset_voice_tag
000a65e4   _APP_SD_au8Portugese_ta_sw_info
000a65ec   _APP_SD_au8Portugese_ta_menu_show
000a65f0   _APP_SD_au8Portugese_ta_voice_tag_reset
000a65fc   _APP_SD_au8Portugese_ta_audio_mode
000a6608   _APP_SD_au8Portugese_head_audio_mode
000a6614   _APP_SD_au8Portugese_ta_call_end
000a6620   _APP_SD_au8Portugese_ta_tag_record
000a6628   _APP_SD_au8Portugese_ta_off
000a662c   _APP_SD_au8Portugese_ta_head_options
000a6634   _APP_SD_au8Portugese_ta_menu_end
000a663c   _APP_SD_au8Portugese_ta_menu_user
000a6648   _APP_SD_au8Portugese_head_user
000a6654   _APP_SD_au8Portugese_ta_head_delete_user
000a6668   _APP_SD_au8Portugese_ta_note_search_user
000a6680   _APP_SD_au8Portugese_ta_head_user
000a668c   _APP_SD_au8Portugese_ta_query_new_user
000a66a4   _APP_SD_au8Portugese_ta_note_new_user
000a66cc   _APP_SD_au8Portugese_ta_note_max_users
000a66e8   _APP_SD_au8Portugese_ta_note_user_connected
000a66f4   _APP_SD_au8Portugese_ta_note_number_busy
000a66fc   _APP_SD_au8Portugese_ta_note_user_not_created
000a6714   _APP_SD_au8Portugese_ta_wait_general
000a6720   _APP_SD_au8Portugese_ta_note_enter_number
000a6730   _APP_SD_au8Portugese_ta_main_bluetooth
000a673c   _APP_SD_au8Portugese_head_bluetooth
000a6748   _APP_SD_au8Portugese_ta_bt_no_conn_headset
000a6774   _APP_SD_au8Portugese_ta_note_bt_conn_impos
000a67a0   _APP_SD_au8Portugese_ta_time_format
000a67a8   _APP_SD_au8Portugese_ta_head_datacall
000a67b8   _APP_SD_au8Portugese_ta_date_value
000a67c4   _APP_SD_au8Portugese_ta_call_dtmf
000a67c8   _APP_SD_au8Portugese_ta_head_dtmf
000a67cc   _APP_SD_au8Portugese_ta_on
000a67d0   _APP_SD_au8Portugese_ta_main_settings
000a67dc   _APP_SD_au8Portugese_head_settings
000a67e8   _APP_SD_au8Portugese_ta_head_faxcall
000a67f4   _APP_SD_au8Portugese_ta_call_handsfree
000a6800   _APP_SD_au8Portugese_ta_function_restriction
000a6828   _APP_SD_au8Portugese_ta_note_visible
000a6844   _APP_SD_au8Portugese_ta_note_info_call
000a6874   _APP_SD_au8Portugese_ta_note_service_call
000a68a0   _APP_SD_au8Portugese_ta_bt_paired_devices
000a68ac   _APP_SD_au8Portugese_paired_head_devices
000a68b8   _APP_SD_au8Portugese_ta_note_sos_call
000a68e4   _APP_SD_au8Portugese_ta_note_deleted
000a68ec   _APP_SD_au8Portugese_ta_note_user_deleted
000a68f8   _APP_SD_au8Portugese_head_device_list
000a6904   _APP_SD_au8Portugese_ta_replace
000a6910   _APP_SD_au8Portugese_ta_call_end_active
000a6920   _APP_SD_au8Portugese_ta_disconnected
000a6930   _APP_SD_au8Portugese_ta_call_hold
000a6938   _APP_SD_au8Portugese_ta_bt_headset
000a6944   _APP_SD_au8Portugese_head_headset
000a6950   _APP_SD_au8Portugese_ta_time_value
000a6958   _APP_SD_au8Portugese_ta_menu_bt_help
000a6960   _APP_SD_au8Portugese_ta_always
000a6968   _APP_SD_au8Portugese_ta_call_info
000a6974   _APP_SD_au8Portugese_ta_note_no_user
000a6998   _APP_SD_au8Portugese_ta_note_no_bt_phone
000a69b8   _APP_SD_au8Portugese_ta_note_no_act_device
000a69d0   _APP_SD_au8Portugese_ta_note_no_phone
000a69f8   _APP_SD_au8Portugese_ta_note_no_accessory
000a6a18   _APP_SD_au8Portugese_ta_note_no_bt_conn_acc
000a6a3c   _APP_SD_au8Portugese_ta_note_no_bt_conn_rsap
000a6a64   _APP_SD_au8Portugese_ta_note_no_entries
000a6a78   _APP_SD_au8Portugese_ta_note_no_paired_dev
000a6a98   _APP_SD_au8Portugese_ta_note_no_sms
000a6aac   _APP_SD_au8Portugese_ta_note_no_network
000a6ac0   _APP_SD_au8Portugese_ta_menu_no_nbr
000a6acc   _APP_SD_au8Portugese_ta_note_no_nbr
000a6ae8   _APP_SD_au8Portugese_ta_note_mailbox_no
000a6b0c   _APP_SD_au8Portugese_ta_no_media_player_found
000a6b34   _APP_SD_au8Portugese_ta_call_waiting
000a6b40   _APP_SD_au8Portugese_ta_head_conference
000a6b4c   _APP_SD_au8Portugese_ta_head_conference_hold
000a6b60   _APP_SD_au8Portugese_ta_note_conf_not_poss
000a6b80   _APP_SD_au8Portugese_ta_conference
000a6b8c   _APP_SD_au8Portugese_ta_note_copy_sms_failed
000a6ba8   _APP_SD_au8Portugese_ta_err_load_phonebook
000a6bd0   _APP_SD_au8Portugese_ta_call_silent
000a6bd8   _APP_SD_au8Portugese_ta_head_stack_dialled
000a6be8   _APP_SD_au8Portugese_ta_stack_dialled
000a6bf8   _APP_SD_au8Portugese_ta_stack_clear
000a6c08   _APP_SD_au8Portugese_ta_menu_delete
000a6c10   _APP_SD_au8Portugese_ta_note_sms_not_deleted
000a6c30   _APP_SD_au8Portugese_ta_note_delete_impos_phone_active
000a6c60   _APP_SD_au8Portugese_ta_query_del_device
000a6c68   _APP_SD_au8Portugese_ta_query_delete_user
000a6c74   _APP_SD_au8Portugese_ta_call_swap
000a6c7c   _APP_SD_au8Portugese_ta_media_player
000a6c88   _APP_SD_au8Portugese_ta_head_media_player
000a6c94   _APP_SD_au8Portugese_ta_main_menu
000a6c98   _APP_SD_au8Portugese_ta_call_micro_off
000a6ca8   _APP_SD_au8Portugese_ta_call_micro_on
000a6cb8   _APP_SD_au8Portugese_ta_head_sms
000a6cc0   _APP_SD_au8Portugese_ta_note_sms_deleted
000a6cd0   _APP_SD_au8Portugese_ta_note_sms_no_read
000a6cf4   _APP_SD_au8Portugese_ta_query_delete_sms
000a6d04   _APP_SD_au8Portugese_ta_head_sms_from
000a6d10   _APP_SD_au8Portugese_ta_note_reading_sms
000a6d20   _APP_SD_au8Portugese_ta_main_messages
000a6d2c   _APP_SD_au8Portugese_head_messages
000a6d38   _APP_SD_au8Portugese_ta_note_no_rsap
000a6d54   _APP_SD_au8Portugese_ta_note_search_phones
000a6d74   _APP_SD_au8Portugese_ta_pb_sort_lastname
000a6d7c   _APP_SD_au8Portugese_ta_note_name_exists
000a6d90   _APP_SD_au8Portugese_ta_note_name_stored
000a6da0   _APP_SD_au8Portugese_ta_note_network_busy
000a6dac   _APP_SD_au8Portugese_new_sms
000a6db4   _APP_SD_au8Portugese_ta_note_conn_err
000a6dc8   _APP_SD_au8Portugese_ta_note_new_sms
000a6dd8   _APP_SD_au8Portugese_ta_menu_new_user
000a6de8   _APP_SD_au8Portugese_ta_note_new_phone_found
000a6e00   _APP_SD_au8Portugese_ta_note_new_pb_available
000a6e20   _APP_SD_au8Portugese_ta_supp_not_possible
000a6e34   _APP_SD_au8Portugese_ta_number
000a6e3c   _APP_SD_au8Portugese_ta_head_dial_nbr
000a6e4c   _APP_SD_au8Portugese_ta_main_dial
000a6e5c   _APP_SD_au8Portugese_ta_calls_only
000a6e6c   _APP_SD_au8Portugese_ta_menu_ok
000a6e70   _APP_SD_au8Portugese_ta_call_service
000a6e80   _APP_SD_au8Portugese_ta_call_sos
000a6e8c   _APP_SD_au8Portugese_ta_head_passkey
000a6e98   _APP_SD_au8Portugese_ta_note_searching_players
000a6eb4   _APP_SD_au8Portugese_ta_note_connecting_player
000a6ec4   _APP_SD_au8Portugese_ta_private_call
000a6ed4   _APP_SD_au8Portugese_ta_head_private_call
000a6ee4   _APP_SD_au8Portugese_ta_sms_call
000a6eec   _APP_SD_au8Portugese_ta_head_call_setup
000a6ef4   _APP_SD_au8Portugese_ta_note_invalid_number
000a6f14   _APP_SD_au8Portugese_ta_head_number
000a6f1c   _APP_SD_au8Portugese_ta_setting_tone
000a6f24   _APP_SD_au8Portugese_ta_sms_concatenated
000a6f3c   _APP_SD_au8Portugese_ta_sms_time
000a6f48   _APP_SD_au8Portugese_ta_note_service_not_supp
000a6f60   _APP_SD_au8Portugese_ta_bt_visibility
000a6f6c   _APP_SD_au8Portugese_ta_query_visibility
000a6f80   _APP_SD_au8Portugese_ta_setting_signals
000a6f8c   _APP_SD_au8Portugese_ta_head_setting_signals
000a6f98   _APP_SD_au8Portugese_ta_head_sorting_order
000a6fa8   _APP_SD_au8Portugese_ta_sorting_order
000a6fb8   _APP_SD_au8Portugese_ta_note_tag_no_memory
000a6fe0   _APP_SD_au8Portugese_ta_menu_save
000a6fec   _APP_SD_au8Portugese_ta_backspace
000a6ff4   _APP_SD_au8Portugese_ta_note_voice_not_ready
000a7018   _APP_SD_au8Portugese_ta_note_voice_active
000a7030   _APP_SD_au8Portugese_ta_main_mailbox
000a7040   _APP_SD_au8Portugese_ta_head_mailbox
000a7050   _APP_SD_au8Portugese_ta_search
000a7058   _APP_SD_au8Portugese_ta_note_pb_refresh_impos
000a707c   _APP_SD_au8Portugese_ta_head_phone
000a7084   _APP_SD_au8Portugese_ta_note_enter_cradle
000a70a0   _APP_SD_au8Portugese_ta_note_phone_initiated
000a70c0   _APP_SD_au8Portugese_ta_phone_book
000a70d4   _APP_SD_au8Portugese_ta_head_phone_book
000a70e8   _APP_SD_au8Portugese_ta_note_pb_load_error
000a7110   _APP_SD_au8Portugese_ta_note_call_estab_failed
000a712c   _APP_SD_au8Portugese_ta_note_pb_not_complete
000a7150   _APP_SD_au8Portugese_ta_note_pbook_loading
000a7178   _APP_SD_au8Portugese_ta_note_pb_loading_all
000a7194   _APP_SD_au8Portugese_ta_bt_own_name
000a71a0   _APP_SD_au8Portugese_ta_head_phone_name
000a71ac   _APP_SD_au8Portugese_ta_phone_search
000a71bc   _APP_SD_au8Portugese_ta_bt_disconnect
000a71c4   _APP_SD_au8Portugese_ta_bt_rename
000a71d0   _APP_SD_au8Portugese_ta_switch
000a71d8   _APP_SD_au8Portugese_ta_connect
000a71e0   _APP_SD_au8Portugese_ta_query_connect
000a71ec   _APP_SD_au8Portugese_ta_note_conn_terminated
000a71fc   _APP_SD_au8Portugese_ta_note_bt_no_conn
000a7218   _APP_SD_au8Portugese_ta_note_bt_conn_setup
000a7230   _APP_SD_au8Portugese_ta_note_connected
000a723c   _APP_SD_au8Portugese_ta_note_bt_acc_conn
000a7258   _APP_SD_au8Portugese_ta_read_out_sms
000a725c   _APP_SD_au8Portugese_ta_pb_sort_firstname
000a726c   _APP_SD_au8Portugese_ta_note_wait_reply
000a727c   _APP_SD_au8Portugese_ta_tag_play
000a7288   _APP_SD_au8Portugese_ta_menu_view
000a728c   _APP_SD_au8Portugese_ta_bt_accessory
000a7298   _APP_SD_au8Portugese_ta_wait_bt_acc_search
000a72b8   _APP_SD_au8Portugese_ta_help_text
000a73ac   _APP_SD_au8Portugese_ta_list_back
000a73b8   _APP_SD_au8Portugese_ta_phone_no_answer
000a73cc   _APP_SD_au8Portugese_ta_confirm_pw_with_OK
000a73e4   _APP_SD_au8Portugese_ta_confirm_pw_in_device
000a7400   _APP_SD_au8USEnglish_ta_time_am
000a7410   _APP_SD_au8USEnglish_ta_time_pm
000a7420   _APP_SD_au8USEnglish_ta_call_diverted
000a742c   _APP_SD_au8USEnglish_ta_time_standard
000a743c   _APP_SD_au8USEnglish_ta_menu_cancel
000a7444   _APP_SD_au8USEnglish_ta_call_reject
000a744c   _APP_SD_au8USEnglish_ta_note_ignition
000a746c   _APP_SD_au8USEnglish_ta_query_del_act_device
000a747c   _APP_SD_au8USEnglish_ta_query_del_act_user
000a748c   _APP_SD_au8USEnglish_ta_head_call_active
000a7498   _APP_SD_au8USEnglish_ta_head_active_tone
000a74ac   _APP_SD_au8USEnglish_ta_bt_active_device
000a74bc   _APP_SD_au8USEnglish_ta_call_resume
000a74c4   _APP_SD_au8USEnglish_ta_pb_download
000a74cc   _APP_SD_au8USEnglish_ta_query_terminate_conn
000a74e4   _APP_SD_au8USEnglish_ta_query_delete_log
000a74f8   _APP_SD_au8USEnglish_ta_music_paused
000a750c   _APP_SD_au8USEnglish_ta_call_end_all
000a751c   _APP_SD_au8USEnglish_ta_stack_received
000a752c   _APP_SD_au8USEnglish_ta_note_bt_passkey_err
000a7540   _APP_SD_au8USEnglish_ta_call_accept
000a7548   _APP_SD_au8USEnglish_ta_head_stack_received
000a7558   _APP_SD_au8USEnglish_ta_head_stack_missed
000a7564   _APP_SD_au8USEnglish_ta_stack_missed
000a7570   _APP_SD_au8USEnglish_ta_head_call
000a7574   _APP_SD_au8USEnglish_ta_head_incoming_call
000a7578   _APP_SD_au8USEnglish_ta_call_call1
000a7580   _APP_SD_au8USEnglish_ta_head_call1
000a7588   _APP_SD_au8USEnglish_ta_call_call2
000a7590   _APP_SD_au8USEnglish_ta_head_call2
000a7598   _APP_SD_au8USEnglish_ta_end_call
000a75a0   _APP_SD_au8USEnglish_ta_head_call_hold
000a75b0   _APP_SD_au8USEnglish_ta_note_missed_call
000a75bc   _APP_SD_au8USEnglish_ta_head_call_waiting
000a75c8   _APP_SD_au8USEnglish_ta_head_calls
000a75d0   _APP_SD_au8USEnglish_ta_menu_call
000a75d4   _APP_SD_au8USEnglish_ta_main_callstacks
000a75e0   _APP_SD_au8USEnglish_call_head_register
000a75ec   _APP_SD_au8USEnglish_ta_note_stacks_cleared
000a7600   _APP_SD_au8USEnglish_ta_head_nametag
000a760c   _APP_SD_au8USEnglish_ta_pb_nametag
000a7618   _APP_SD_au8USEnglish_ta_note_read_voice_tag
000a762c   _APP_SD_au8USEnglish_ta_note_voice_tag_reset
000a763c   _APP_SD_au8USEnglish_ta_head_reset_voice_tag
000a764c   _APP_SD_au8USEnglish_ta_sw_info
000a7654   _APP_SD_au8USEnglish_ta_menu_show
000a7658   _APP_SD_au8USEnglish_ta_voice_tag_reset
000a7660   _APP_SD_au8USEnglish_ta_audio_mode
000a766c   _APP_SD_au8USEnglish_head_audio_mode
000a7678   _APP_SD_au8USEnglish_ta_call_end
000a7680   _APP_SD_au8USEnglish_ta_tag_record
000a7688   _APP_SD_au8USEnglish_ta_off
000a768c   _APP_SD_au8USEnglish_ta_head_options
000a7694   _APP_SD_au8USEnglish_ta_menu_end
000a769c   _APP_SD_au8USEnglish_ta_menu_user
000a76a0   _APP_SD_au8USEnglish_head_user
000a76a4   _APP_SD_au8USEnglish_ta_head_delete_user
000a76b0   _APP_SD_au8USEnglish_ta_note_search_user
000a76c0   _APP_SD_au8USEnglish_ta_head_user
000a76c8   _APP_SD_au8USEnglish_ta_query_new_user
000a76dc   _APP_SD_au8USEnglish_ta_note_new_user
000a76fc   _APP_SD_au8USEnglish_ta_note_max_users
000a7714   _APP_SD_au8USEnglish_ta_note_user_connected
000a772c   _APP_SD_au8USEnglish_ta_note_number_busy
000a7730   _APP_SD_au8USEnglish_ta_note_user_not_created
000a7748   _APP_SD_au8USEnglish_ta_wait_general
000a7754   _APP_SD_au8USEnglish_ta_note_enter_number
000a7768   _APP_SD_au8USEnglish_ta_main_bluetooth
000a7774   _APP_SD_au8USEnglish_head_bluetooth
000a7780   _APP_SD_au8USEnglish_ta_bt_no_conn_headset
000a77b4   _APP_SD_au8USEnglish_ta_note_bt_conn_impos
000a77e4   _APP_SD_au8USEnglish_ta_time_format
000a77ec   _APP_SD_au8USEnglish_ta_head_datacall
000a77f8   _APP_SD_au8USEnglish_ta_date_value
000a7804   _APP_SD_au8USEnglish_ta_call_dtmf
000a7808   _APP_SD_au8USEnglish_ta_head_dtmf
000a780c   _APP_SD_au8USEnglish_ta_on
000a7810   _APP_SD_au8USEnglish_ta_main_settings
000a7818   _APP_SD_au8USEnglish_head_settings
000a7820   _APP_SD_au8USEnglish_ta_head_faxcall
000a7828   _APP_SD_au8USEnglish_ta_call_handsfree
000a7834   _APP_SD_au8USEnglish_ta_function_restriction
000a7860   _APP_SD_au8USEnglish_ta_note_visible
000a7874   _APP_SD_au8USEnglish_ta_note_info_call
000a7898   _APP_SD_au8USEnglish_ta_note_service_call
000a78c0   _APP_SD_au8USEnglish_ta_bt_paired_devices
000a78d0   _APP_SD_au8USEnglish_paired_head_devices
000a78e0   _APP_SD_au8USEnglish_ta_note_sos_call
000a790c   _APP_SD_au8USEnglish_ta_note_deleted
000a7914   _APP_SD_au8USEnglish_ta_note_user_deleted
000a7920   _APP_SD_au8USEnglish_head_device_list
000a792c   _APP_SD_au8USEnglish_ta_replace
000a7934   _APP_SD_au8USEnglish_ta_call_end_active
000a7944   _APP_SD_au8USEnglish_ta_disconnected
000a7950   _APP_SD_au8USEnglish_ta_call_hold
000a7954   _APP_SD_au8USEnglish_ta_bt_headset
000a795c   _APP_SD_au8USEnglish_head_headset
000a7964   _APP_SD_au8USEnglish_ta_time_value
000a796c   _APP_SD_au8USEnglish_ta_menu_bt_help
000a7970   _APP_SD_au8USEnglish_ta_always
000a7978   _APP_SD_au8USEnglish_ta_call_info
000a7984   _APP_SD_au8USEnglish_ta_note_no_user
000a79a8   _APP_SD_au8USEnglish_ta_note_no_bt_phone
000a79bc   _APP_SD_au8USEnglish_ta_note_no_act_device
000a79cc   _APP_SD_au8USEnglish_ta_note_no_phone
000a79ec   _APP_SD_au8USEnglish_ta_note_no_accessory
000a79fc   _APP_SD_au8USEnglish_ta_note_no_bt_conn_acc
000a7a18   _APP_SD_au8USEnglish_ta_note_no_bt_conn_rsap
000a7a38   _APP_SD_au8USEnglish_ta_note_no_entries
000a7a4c   _APP_SD_au8USEnglish_ta_note_no_paired_dev
000a7a5c   _APP_SD_au8USEnglish_ta_note_no_sms
000a7a70   _APP_SD_au8USEnglish_ta_note_no_network
000a7a7c   _APP_SD_au8USEnglish_ta_menu_no_nbr
000a7a84   _APP_SD_au8USEnglish_ta_note_no_nbr
000a7a90   _APP_SD_au8USEnglish_ta_note_mailbox_no
000a7aac   _APP_SD_au8USEnglish_ta_no_media_player_found
000a7acc   _APP_SD_au8USEnglish_ta_call_waiting
000a7ad4   _APP_SD_au8USEnglish_ta_head_conference
000a7ae0   _APP_SD_au8USEnglish_ta_head_conference_hold
000a7af4   _APP_SD_au8USEnglish_ta_note_conf_not_poss
000a7b0c   _APP_SD_au8USEnglish_ta_conference
000a7b18   _APP_SD_au8USEnglish_ta_note_copy_sms_failed
000a7b2c   _APP_SD_au8USEnglish_ta_err_load_phonebook
000a7b44   _APP_SD_au8USEnglish_ta_call_silent
000a7b4c   _APP_SD_au8USEnglish_ta_head_stack_dialled
000a7b5c   _APP_SD_au8USEnglish_ta_stack_dialled
000a7b6c   _APP_SD_au8USEnglish_ta_stack_clear
000a7b78   _APP_SD_au8USEnglish_ta_menu_delete
000a7b80   _APP_SD_au8USEnglish_ta_note_sms_not_deleted
000a7b98   _APP_SD_au8USEnglish_ta_note_delete_impos_phone_active
000a7bc8   _APP_SD_au8USEnglish_ta_query_del_device
000a7bd0   _APP_SD_au8USEnglish_ta_query_delete_user
000a7bdc   _APP_SD_au8USEnglish_ta_call_swap
000a7be0   _APP_SD_au8USEnglish_ta_media_player
000a7bec   _APP_SD_au8USEnglish_ta_head_media_player
000a7bf8   _APP_SD_au8USEnglish_ta_main_menu
000a7bfc   _APP_SD_au8USEnglish_ta_call_micro_off
000a7c00   _APP_SD_au8USEnglish_ta_call_micro_on
000a7c08   _APP_SD_au8USEnglish_ta_head_sms
000a7c10   _APP_SD_au8USEnglish_ta_note_sms_deleted
000a7c20   _APP_SD_au8USEnglish_ta_note_sms_no_read
000a7c38   _APP_SD_au8USEnglish_ta_query_delete_sms
000a7c48   _APP_SD_au8USEnglish_ta_head_sms_from
000a7c54   _APP_SD_au8USEnglish_ta_note_reading_sms
000a7c6c   _APP_SD_au8USEnglish_ta_main_messages
000a7c74   _APP_SD_au8USEnglish_head_messages
000a7c7c   _APP_SD_au8USEnglish_ta_note_no_rsap
000a7c98   _APP_SD_au8USEnglish_ta_note_search_phones
000a7cbc   _APP_SD_au8USEnglish_ta_pb_sort_lastname
000a7cc8   _APP_SD_au8USEnglish_ta_note_name_exists
000a7cd4   _APP_SD_au8USEnglish_ta_note_name_stored
000a7ce0   _APP_SD_au8USEnglish_ta_note_network_busy
000a7cec   _APP_SD_au8USEnglish_new_sms
000a7cf8   _APP_SD_au8USEnglish_ta_note_conn_err
000a7d04   _APP_SD_au8USEnglish_ta_note_new_sms
000a7d10   _APP_SD_au8USEnglish_ta_menu_new_user
000a7d1c   _APP_SD_au8USEnglish_ta_note_new_phone_found
000a7d30   _APP_SD_au8USEnglish_ta_note_new_pb_available
000a7d48   _APP_SD_au8USEnglish_ta_supp_not_possible
000a7d54   _APP_SD_au8USEnglish_ta_number
000a7d5c   _APP_SD_au8USEnglish_ta_head_dial_nbr
000a7d68   _APP_SD_au8USEnglish_ta_main_dial
000a7d74   _APP_SD_au8USEnglish_ta_calls_only
000a7d80   _APP_SD_au8USEnglish_ta_menu_ok
000a7d84   _APP_SD_au8USEnglish_ta_call_service
000a7d90   _APP_SD_au8USEnglish_ta_call_sos
000a7d98   _APP_SD_au8USEnglish_ta_head_passkey
000a7da4   _APP_SD_au8USEnglish_ta_note_searching_players
000a7dc8   _APP_SD_au8USEnglish_ta_note_connecting_player
000a7ddc   _APP_SD_au8USEnglish_ta_private_call
000a7dec   _APP_SD_au8USEnglish_ta_head_private_call
000a7df8   _APP_SD_au8USEnglish_ta_sms_call
000a7e00   _APP_SD_au8USEnglish_ta_head_call_setup
000a7e08   _APP_SD_au8USEnglish_ta_note_invalid_number
000a7e1c   _APP_SD_au8USEnglish_ta_head_number
000a7e24   _APP_SD_au8USEnglish_ta_setting_tone
000a7e30   _APP_SD_au8USEnglish_ta_sms_concatenated
000a7e44   _APP_SD_au8USEnglish_ta_sms_time
000a7e50   _APP_SD_au8USEnglish_ta_note_service_not_supp
000a7e68   _APP_SD_au8USEnglish_ta_bt_visibility
000a7e74   _APP_SD_au8USEnglish_ta_query_visibility
000a7e88   _APP_SD_au8USEnglish_ta_setting_signals
000a7e98   _APP_SD_au8USEnglish_ta_head_setting_signals
000a7ea8   _APP_SD_au8USEnglish_ta_head_sorting_order
000a7eb4   _APP_SD_au8USEnglish_ta_sorting_order
000a7ec0   _APP_SD_au8USEnglish_ta_note_tag_no_memory
000a7edc   _APP_SD_au8USEnglish_ta_menu_save
000a7ee0   _APP_SD_au8USEnglish_ta_backspace
000a7ee8   _APP_SD_au8USEnglish_ta_note_voice_not_ready
000a7f04   _APP_SD_au8USEnglish_ta_note_voice_active
000a7f1c   _APP_SD_au8USEnglish_ta_main_mailbox
000a7f2c   _APP_SD_au8USEnglish_ta_head_mailbox
000a7f3c   _APP_SD_au8USEnglish_ta_search
000a7f44   _APP_SD_au8USEnglish_ta_note_pb_refresh_impos
000a7f60   _APP_SD_au8USEnglish_ta_head_phone
000a7f68   _APP_SD_au8USEnglish_ta_note_enter_cradle
000a7f80   _APP_SD_au8USEnglish_ta_note_phone_initiated
000a7fa4   _APP_SD_au8USEnglish_ta_phone_book
000a7fb0   _APP_SD_au8USEnglish_ta_head_phone_book
000a7fbc   _APP_SD_au8USEnglish_ta_note_pb_load_error
000a7fd8   _APP_SD_au8USEnglish_ta_note_call_estab_failed
000a7fe8   _APP_SD_au8USEnglish_ta_note_pb_not_complete
000a8004   _APP_SD_au8USEnglish_ta_note_pbook_loading
000a8020   _APP_SD_au8USEnglish_ta_note_pb_loading_all
000a8034   _APP_SD_au8USEnglish_ta_bt_own_name
000a8040   _APP_SD_au8USEnglish_ta_head_phone_name
000a804c   _APP_SD_au8USEnglish_ta_phone_search
000a8058   _APP_SD_au8USEnglish_ta_bt_disconnect
000a8064   _APP_SD_au8USEnglish_ta_bt_rename
000a806c   _APP_SD_au8USEnglish_ta_switch
000a8074   _APP_SD_au8USEnglish_ta_connect
000a807c   _APP_SD_au8USEnglish_ta_query_connect
000a808c   _APP_SD_au8USEnglish_ta_note_conn_terminated
000a8098   _APP_SD_au8USEnglish_ta_note_bt_no_conn
000a80b0   _APP_SD_au8USEnglish_ta_note_bt_conn_setup
000a80c0   _APP_SD_au8USEnglish_ta_note_connected
000a80d0   _APP_SD_au8USEnglish_ta_note_bt_acc_conn
000a80ec   _APP_SD_au8USEnglish_ta_read_out_sms
000a80f4   _APP_SD_au8USEnglish_ta_pb_sort_firstname
000a8100   _APP_SD_au8USEnglish_ta_note_wait_reply
000a8114   _APP_SD_au8USEnglish_ta_tag_play
000a811c   _APP_SD_au8USEnglish_ta_menu_view
000a8120   _APP_SD_au8USEnglish_ta_bt_accessory
000a8128   _APP_SD_au8USEnglish_ta_wait_bt_acc_search
000a8148   _APP_SD_au8USEnglish_ta_help_text
000a8230   _APP_SD_au8USEnglish_ta_list_back
000a8234   _APP_SD_au8USEnglish_ta_phone_no_answer
000a8250   _APP_SD_au8USEnglish_ta_confirm_pw_with_OK
000a826c   _APP_SD_au8USEnglish_ta_confirm_pw_in_device
000a8288   _APP_SD_au8Russian_ta_time_am
000a8298   _APP_SD_au8Russian_ta_time_pm
000a82a8   _APP_SD_au8Russian_ta_call_diverted
000a82c4   _APP_SD_au8Russian_ta_time_standard
000a82d4   _APP_SD_au8Russian_ta_menu_cancel
000a82e0   _APP_SD_au8Russian_ta_call_reject
000a82f4   _APP_SD_au8Russian_ta_note_ignition
000a8340   _APP_SD_au8Russian_ta_query_del_act_device
000a835c   _APP_SD_au8Russian_ta_query_del_act_user
000a8378   _APP_SD_au8Russian_ta_head_call_active
000a8394   _APP_SD_au8Russian_ta_head_active_tone
000a83a4   _APP_SD_au8Russian_ta_bt_active_device
000a83bc   _APP_SD_au8Russian_ta_call_resume
000a83d4   _APP_SD_au8Russian_ta_pb_download
000a83e4   _APP_SD_au8Russian_ta_query_terminate_conn
000a8410   _APP_SD_au8Russian_ta_query_delete_log
000a8434   _APP_SD_au8Russian_ta_music_paused
000a846c   _APP_SD_au8Russian_ta_call_end_all
000a8488   _APP_SD_au8Russian_ta_stack_received
000a8498   _APP_SD_au8Russian_ta_note_bt_passkey_err
000a84c4   _APP_SD_au8Russian_ta_call_accept
000a84d4   _APP_SD_au8Russian_ta_head_stack_received
000a84e4   _APP_SD_au8Russian_ta_head_stack_missed
000a84fc   _APP_SD_au8Russian_ta_stack_missed
000a8514   _APP_SD_au8Russian_ta_head_call
000a8520   _APP_SD_au8Russian_ta_head_incoming_call
000a852c   _APP_SD_au8Russian_ta_call_call1
000a8538   _APP_SD_au8Russian_ta_head_call1
000a8544   _APP_SD_au8Russian_ta_call_call2
000a8550   _APP_SD_au8Russian_ta_head_call2
000a855c   _APP_SD_au8Russian_ta_end_call
000a8578   _APP_SD_au8Russian_ta_head_call_hold
000a8594   _APP_SD_au8Russian_ta_note_missed_call
000a85b4   _APP_SD_au8Russian_ta_head_call_waiting
000a85cc   _APP_SD_au8Russian_ta_head_calls
000a85d8   _APP_SD_au8Russian_ta_menu_call
000a85ec   _APP_SD_au8Russian_ta_main_callstacks
000a8604   _APP_SD_au8Russian_call_head_register
000a8620   _APP_SD_au8Russian_ta_note_stacks_cleared
000a864c   _APP_SD_au8Russian_ta_head_nametag
000a8664   _APP_SD_au8Russian_ta_pb_nametag
000a867c   _APP_SD_au8Russian_ta_note_read_voice_tag
000a86a8   _APP_SD_au8Russian_ta_note_voice_tag_reset
000a86c8   _APP_SD_au8Russian_ta_head_reset_voice_tag
000a86f0   _APP_SD_au8Russian_ta_sw_info
000a86fc   _APP_SD_au8Russian_ta_menu_show
000a8710   _APP_SD_au8Russian_ta_voice_tag_reset
000a8720   _APP_SD_au8Russian_ta_audio_mode
000a8734   _APP_SD_au8Russian_head_audio_mode
000a874c   _APP_SD_au8Russian_ta_call_end
000a8760   _APP_SD_au8Russian_ta_tag_record
000a8770   _APP_SD_au8Russian_ta_off
000a8778   _APP_SD_au8Russian_ta_head_options
000a8784   _APP_SD_au8Russian_ta_menu_end
000a8798   _APP_SD_au8Russian_ta_menu_user
000a87b0   _APP_SD_au8Russian_head_user
000a87c8   _APP_SD_au8Russian_ta_head_delete_user
000a87f0   _APP_SD_au8Russian_ta_note_search_user
000a881c   _APP_SD_au8Russian_ta_head_user
000a8838   _APP_SD_au8Russian_ta_query_new_user
000a886c   _APP_SD_au8Russian_ta_note_new_user
000a88a0   _APP_SD_au8Russian_ta_note_max_users
000a88d4   _APP_SD_au8Russian_ta_note_user_connected
000a88f0   _APP_SD_au8Russian_ta_note_number_busy
000a88fc   _APP_SD_au8Russian_ta_note_user_not_created
000a8928   _APP_SD_au8Russian_ta_wait_general
000a8948   _APP_SD_au8Russian_ta_note_enter_number
000a8978   _APP_SD_au8Russian_ta_main_bluetooth
000a8984   _APP_SD_au8Russian_head_bluetooth
000a8990   _APP_SD_au8Russian_ta_bt_no_conn_headset
000a89e4   _APP_SD_au8Russian_ta_note_bt_conn_impos
000a8a38   _APP_SD_au8Russian_ta_time_format
000a8a40   _APP_SD_au8Russian_ta_head_datacall
000a8a58   _APP_SD_au8Russian_ta_date_value
000a8a64   _APP_SD_au8Russian_ta_call_dtmf
000a8a68   _APP_SD_au8Russian_ta_head_dtmf
000a8a6c   _APP_SD_au8Russian_ta_on
000a8a74   _APP_SD_au8Russian_ta_main_settings
000a8a88   _APP_SD_au8Russian_head_settings
000a8a9c   _APP_SD_au8Russian_ta_head_faxcall
000a8ab0   _APP_SD_au8Russian_ta_call_handsfree
000a8acc   _APP_SD_au8Russian_ta_function_restriction
000a8b14   _APP_SD_au8Russian_ta_note_visible
000a8b3c   _APP_SD_au8Russian_ta_note_info_call
000a8b8c   _APP_SD_au8Russian_ta_note_service_call
000a8be0   _APP_SD_au8Russian_ta_bt_paired_devices
000a8bf8   _APP_SD_au8Russian_paired_head_devices
000a8c14   _APP_SD_au8Russian_ta_note_sos_call
000a8c64   _APP_SD_au8Russian_ta_note_deleted
000a8c70   _APP_SD_au8Russian_ta_note_user_deleted
000a8c80   _APP_SD_au8Russian_head_device_list
000a8c98   _APP_SD_au8Russian_ta_replace
000a8ca8   _APP_SD_au8Russian_ta_call_end_active
000a8cc0   _APP_SD_au8Russian_ta_disconnected
000a8cd8   _APP_SD_au8Russian_ta_call_hold
000a8cec   _APP_SD_au8Russian_ta_bt_headset
000a8d00   _APP_SD_au8Russian_head_headset
000a8d14   _APP_SD_au8Russian_ta_time_value
000a8d20   _APP_SD_au8Russian_ta_menu_bt_help
000a8d2c   _APP_SD_au8Russian_ta_always
000a8d38   _APP_SD_au8Russian_ta_call_info
000a8d54   _APP_SD_au8Russian_ta_note_no_user
000a8da8   _APP_SD_au8Russian_ta_note_no_bt_phone
000a8dd4   _APP_SD_au8Russian_ta_note_no_act_device
000a8e00   _APP_SD_au8Russian_ta_note_no_phone
000a8e50   _APP_SD_au8Russian_ta_note_no_accessory
000a8e78   _APP_SD_au8Russian_ta_note_no_bt_conn_acc
000a8ea4   _APP_SD_au8Russian_ta_note_no_bt_conn_rsap
000a8ef0   _APP_SD_au8Russian_ta_note_no_entries
000a8f14   _APP_SD_au8Russian_ta_note_no_paired_dev
000a8f44   _APP_SD_au8Russian_ta_note_no_sms
000a8f6c   _APP_SD_au8Russian_ta_note_no_network
000a8f94   _APP_SD_au8Russian_ta_menu_no_nbr
000a8fa8   _APP_SD_au8Russian_ta_note_no_nbr
000a8fc8   _APP_SD_au8Russian_ta_note_mailbox_no
000a900c   _APP_SD_au8Russian_ta_no_media_player_found
000a904c   _APP_SD_au8Russian_ta_call_waiting
000a905c   _APP_SD_au8Russian_ta_head_conference
000a9074   _APP_SD_au8Russian_ta_head_conference_hold
000a909c   _APP_SD_au8Russian_ta_note_conf_not_poss
000a90c8   _APP_SD_au8Russian_ta_conference
000a90e0   _APP_SD_au8Russian_ta_note_copy_sms_failed
000a9110   _APP_SD_au8Russian_ta_err_load_phonebook
000a9154   _APP_SD_au8Russian_ta_call_silent
000a9168   _APP_SD_au8Russian_ta_head_stack_dialled
000a917c   _APP_SD_au8Russian_ta_stack_dialled
000a9190   _APP_SD_au8Russian_ta_stack_clear
000a91ac   _APP_SD_au8Russian_ta_menu_delete
000a91bc   _APP_SD_au8Russian_ta_note_sms_not_deleted
000a91f4   _APP_SD_au8Russian_ta_note_delete_impos_phone_active
000a923c   _APP_SD_au8Russian_ta_query_del_device
000a924c   _APP_SD_au8Russian_ta_query_delete_user
000a9260   _APP_SD_au8Russian_ta_call_swap
000a927c   _APP_SD_au8Russian_ta_media_player
000a9294   _APP_SD_au8Russian_ta_head_media_player
000a92ac   _APP_SD_au8Russian_ta_main_menu
000a92b4   _APP_SD_au8Russian_ta_call_micro_off
000a92d0   _APP_SD_au8Russian_ta_call_micro_on
000a92e8   _APP_SD_au8Russian_ta_head_sms
000a92fc   _APP_SD_au8Russian_ta_note_sms_deleted
000a931c   _APP_SD_au8Russian_ta_note_sms_no_read
000a935c   _APP_SD_au8Russian_ta_query_delete_sms
000a9380   _APP_SD_au8Russian_ta_head_sms_from
000a9398   _APP_SD_au8Russian_ta_note_reading_sms
000a93c0   _APP_SD_au8Russian_ta_main_messages
000a93d4   _APP_SD_au8Russian_head_messages
000a93e8   _APP_SD_au8Russian_ta_note_no_rsap
000a9420   _APP_SD_au8Russian_ta_note_search_phones
000a945c   _APP_SD_au8Russian_ta_pb_sort_lastname
000a946c   _APP_SD_au8Russian_ta_note_name_exists
000a9494   _APP_SD_au8Russian_ta_note_name_stored
000a94ac   _APP_SD_au8Russian_ta_note_network_busy
000a94c4   _APP_SD_au8Russian_new_sms
000a94d8   _APP_SD_au8Russian_ta_note_conn_err
000a94f0   _APP_SD_au8Russian_ta_note_new_sms
000a950c   _APP_SD_au8Russian_ta_menu_new_user
000a9524   _APP_SD_au8Russian_ta_note_new_phone_found
000a9550   _APP_SD_au8Russian_ta_note_new_pb_available
000a9580   _APP_SD_au8Russian_ta_supp_not_possible
000a9594   _APP_SD_au8Russian_ta_number
000a95a0   _APP_SD_au8Russian_ta_head_dial_nbr
000a95b8   _APP_SD_au8Russian_ta_main_dial
000a95d0   _APP_SD_au8Russian_ta_calls_only
000a95ec   _APP_SD_au8Russian_ta_menu_ok
000a95f0   _APP_SD_au8Russian_ta_call_service
000a960c   _APP_SD_au8Russian_ta_call_sos
000a9628   _APP_SD_au8Russian_ta_head_passkey
000a9638   _APP_SD_au8Russian_ta_note_searching_players
000a9668   _APP_SD_au8Russian_ta_note_connecting_player
000a96a8   _APP_SD_au8Russian_ta_private_call
000a96c4   _APP_SD_au8Russian_ta_head_private_call
000a96e0   _APP_SD_au8Russian_ta_sms_call
000a96f8   _APP_SD_au8Russian_ta_head_call_setup
000a9704   _APP_SD_au8Russian_ta_note_invalid_number
000a972c   _APP_SD_au8Russian_ta_head_number
000a9738   _APP_SD_au8Russian_ta_setting_tone
000a9750   _APP_SD_au8Russian_ta_sms_concatenated
000a9774   _APP_SD_au8Russian_ta_sms_time
000a9788   _APP_SD_au8Russian_ta_note_service_not_supp
000a97b4   _APP_SD_au8Russian_ta_bt_visibility
000a97c8   _APP_SD_au8Russian_ta_query_visibility
000a97ec   _APP_SD_au8Russian_ta_setting_signals
000a9808   _APP_SD_au8Russian_ta_head_setting_signals
000a9824   _APP_SD_au8Russian_ta_head_sorting_order
000a983c   _APP_SD_au8Russian_ta_sorting_order
000a9850   _APP_SD_au8Russian_ta_note_tag_no_memory
000a9890   _APP_SD_au8Russian_ta_menu_save
000a98a4   _APP_SD_au8Russian_ta_backspace
000a98b4   _APP_SD_au8Russian_ta_note_voice_not_ready
000a98f4   _APP_SD_au8Russian_ta_note_voice_active
000a9928   _APP_SD_au8Russian_ta_main_mailbox
000a993c   _APP_SD_au8Russian_ta_head_mailbox
000a9954   _APP_SD_au8Russian_ta_search
000a9960   _APP_SD_au8Russian_ta_note_pb_refresh_impos
000a99a8   _APP_SD_au8Russian_ta_head_phone
000a99b8   _APP_SD_au8Russian_ta_note_enter_cradle
000a99f4   _APP_SD_au8Russian_ta_note_phone_initiated
000a9a40   _APP_SD_au8Russian_ta_phone_book
000a9a5c   _APP_SD_au8Russian_ta_head_phone_book
000a9a78   _APP_SD_au8Russian_ta_note_pb_load_error
000a9abc   _APP_SD_au8Russian_ta_note_call_estab_failed
000a9ae4   _APP_SD_au8Russian_ta_note_pb_not_complete
000a9b2c   _APP_SD_au8Russian_ta_note_pbook_loading
000a9b68   _APP_SD_au8Russian_ta_note_pb_loading_all
000a9b98   _APP_SD_au8Russian_ta_bt_own_name
000a9bb0   _APP_SD_au8Russian_ta_head_phone_name
000a9bc8   _APP_SD_au8Russian_ta_phone_search
000a9be0   _APP_SD_au8Russian_ta_bt_disconnect
000a9bf8   _APP_SD_au8Russian_ta_bt_rename
000a9c14   _APP_SD_au8Russian_ta_switch
000a9c2c   _APP_SD_au8Russian_ta_connect
000a9c40   _APP_SD_au8Russian_ta_query_connect
000a9c58   _APP_SD_au8Russian_ta_note_conn_terminated
000a9c7c   _APP_SD_au8Russian_ta_note_bt_no_conn
000a9ca4   _APP_SD_au8Russian_ta_note_bt_conn_setup
000a9cc0   _APP_SD_au8Russian_ta_note_connected
000a9cd8   _APP_SD_au8Russian_ta_note_bt_acc_conn
000a9d0c   _APP_SD_au8Russian_ta_read_out_sms
000a9d1c   _APP_SD_au8Russian_ta_pb_sort_firstname
000a9d24   _APP_SD_au8Russian_ta_note_wait_reply
000a9d40   _APP_SD_au8Russian_ta_tag_play
000a9d5c   _APP_SD_au8Russian_ta_menu_view
000a9d6c   _APP_SD_au8Russian_ta_bt_accessory
000a9d80   _APP_SD_au8Russian_ta_wait_bt_acc_search
000a9db4   _APP_SD_au8Russian_ta_help_text
000a9ecc   _APP_SD_au8Russian_ta_list_back
000a9ed8   _APP_SD_au8Russian_ta_phone_no_answer
000a9f10   _APP_SD_au8Russian_ta_confirm_pw_with_OK
000a9f44   _APP_SD_au8Russian_ta_confirm_pw_in_device
000a9f7c   _APP_SD_au8CanadianFrench_ta_time_am
000a9f8c   _APP_SD_au8CanadianFrench_ta_time_pm
000a9f9c   _APP_SD_au8CanadianFrench_ta_call_diverted
000a9fac   _APP_SD_au8CanadianFrench_ta_time_standard
000a9fbc   _APP_SD_au8CanadianFrench_ta_menu_cancel
000a9fc4   _APP_SD_au8CanadianFrench_ta_call_reject
000a9fcc   _APP_SD_au8CanadianFrench_ta_note_ignition
000a9ffc   _APP_SD_au8CanadianFrench_ta_query_del_act_device
000aa00c   _APP_SD_au8CanadianFrench_ta_query_del_act_user
000aa01c   _APP_SD_au8CanadianFrench_ta_head_call_active
000aa028   _APP_SD_au8CanadianFrench_ta_head_active_tone
000aa03c   _APP_SD_au8CanadianFrench_ta_bt_active_device
000aa04c   _APP_SD_au8CanadianFrench_ta_call_resume
000aa054   _APP_SD_au8CanadianFrench_ta_pb_download
000aa064   _APP_SD_au8CanadianFrench_ta_query_terminate_conn
000aa080   _APP_SD_au8CanadianFrench_ta_query_delete_log
000aa09c   _APP_SD_au8CanadianFrench_ta_music_paused
000aa0b4   _APP_SD_au8CanadianFrench_ta_call_end_all
000aa0c0   _APP_SD_au8CanadianFrench_ta_stack_received
000aa0d0   _APP_SD_au8CanadianFrench_ta_note_bt_passkey_err
000aa0e8   _APP_SD_au8CanadianFrench_ta_call_accept
000aa0f4   _APP_SD_au8CanadianFrench_ta_head_stack_received
000aa104   _APP_SD_au8CanadianFrench_ta_head_stack_missed
000aa114   _APP_SD_au8CanadianFrench_ta_stack_missed
000aa124   _APP_SD_au8CanadianFrench_ta_head_call
000aa12c   _APP_SD_au8CanadianFrench_ta_head_incoming_call
000aa134   _APP_SD_au8CanadianFrench_ta_call_call1
000aa13c   _APP_SD_au8CanadianFrench_ta_head_call1
000aa144   _APP_SD_au8CanadianFrench_ta_call_call2
000aa14c   _APP_SD_au8CanadianFrench_ta_head_call2
000aa154   _APP_SD_au8CanadianFrench_ta_end_call
000aa160   _APP_SD_au8CanadianFrench_ta_head_call_hold
000aa170   _APP_SD_au8CanadianFrench_ta_note_missed_call
000aa180   _APP_SD_au8CanadianFrench_ta_head_call_waiting
000aa190   _APP_SD_au8CanadianFrench_ta_head_calls
000aa198   _APP_SD_au8CanadianFrench_ta_menu_call
000aa1a0   _APP_SD_au8CanadianFrench_ta_main_callstacks
000aa1b0   _APP_SD_au8CanadianFrench_call_head_register
000aa1c0   _APP_SD_au8CanadianFrench_ta_note_stacks_cleared
000aa1dc   _APP_SD_au8CanadianFrench_ta_head_nametag
000aa1e8   _APP_SD_au8CanadianFrench_ta_pb_nametag
000aa1f4   _APP_SD_au8CanadianFrench_ta_note_read_voice_tag
000aa208   _APP_SD_au8CanadianFrench_ta_note_voice_tag_reset
000aa224   _APP_SD_au8CanadianFrench_ta_head_reset_voice_tag
000aa240   _APP_SD_au8CanadianFrench_ta_sw_info
000aa248   _APP_SD_au8CanadianFrench_ta_menu_show
000aa250   _APP_SD_au8CanadianFrench_ta_voice_tag_reset
000aa260   _APP_SD_au8CanadianFrench_ta_audio_mode
000aa26c   _APP_SD_au8CanadianFrench_head_audio_mode
000aa278   _APP_SD_au8CanadianFrench_ta_call_end
000aa284   _APP_SD_au8CanadianFrench_ta_tag_record
000aa290   _APP_SD_au8CanadianFrench_ta_off
000aa29c   _APP_SD_au8CanadianFrench_ta_head_options
000aa2a4   _APP_SD_au8CanadianFrench_ta_menu_end
000aa2ac   _APP_SD_au8CanadianFrench_ta_menu_user
000aa2b8   _APP_SD_au8CanadianFrench_head_user
000aa2c4   _APP_SD_au8CanadianFrench_ta_head_delete_user
000aa2dc   _APP_SD_au8CanadianFrench_ta_note_search_user
000aa2f8   _APP_SD_au8CanadianFrench_ta_head_user
000aa308   _APP_SD_au8CanadianFrench_ta_query_new_user
000aa324   _APP_SD_au8CanadianFrench_ta_note_new_user
000aa348   _APP_SD_au8CanadianFrench_ta_note_max_users
000aa364   _APP_SD_au8CanadianFrench_ta_note_user_connected
000aa378   _APP_SD_au8CanadianFrench_ta_note_number_busy
000aa380   _APP_SD_au8CanadianFrench_ta_note_user_not_created
000aa39c   _APP_SD_au8CanadianFrench_ta_wait_general
000aa3b0   _APP_SD_au8CanadianFrench_ta_note_enter_number
000aa3d8   _APP_SD_au8CanadianFrench_ta_main_bluetooth
000aa3e4   _APP_SD_au8CanadianFrench_head_bluetooth
000aa3f0   _APP_SD_au8CanadianFrench_ta_bt_no_conn_headset
000aa41c   _APP_SD_au8CanadianFrench_ta_note_bt_conn_impos
000aa448   _APP_SD_au8CanadianFrench_ta_time_format
000aa450   _APP_SD_au8CanadianFrench_ta_head_datacall
000aa460   _APP_SD_au8CanadianFrench_ta_date_value
000aa46c   _APP_SD_au8CanadianFrench_ta_call_dtmf
000aa470   _APP_SD_au8CanadianFrench_ta_head_dtmf
000aa474   _APP_SD_au8CanadianFrench_ta_on
000aa47c   _APP_SD_au8CanadianFrench_ta_main_settings
000aa488   _APP_SD_au8CanadianFrench_head_settings
000aa494   _APP_SD_au8CanadianFrench_ta_head_faxcall
000aa4a4   _APP_SD_au8CanadianFrench_ta_call_handsfree
000aa4b0   _APP_SD_au8CanadianFrench_ta_function_restriction
000aa4d8   _APP_SD_au8CanadianFrench_ta_note_visible
000aa4f0   _APP_SD_au8CanadianFrench_ta_note_info_call
000aa520   _APP_SD_au8CanadianFrench_ta_note_service_call
000aa554   _APP_SD_au8CanadianFrench_ta_bt_paired_devices
000aa564   _APP_SD_au8CanadianFrench_paired_head_devices
000aa574   _APP_SD_au8CanadianFrench_ta_note_sos_call
000aa5a4   _APP_SD_au8CanadianFrench_ta_note_deleted
000aa5b0   _APP_SD_au8CanadianFrench_ta_note_user_deleted
000aa5bc   _APP_SD_au8CanadianFrench_head_device_list
000aa5d0   _APP_SD_au8CanadianFrench_ta_replace
000aa5dc   _APP_SD_au8CanadianFrench_ta_call_end_active
000aa5ec   _APP_SD_au8CanadianFrench_ta_disconnected
000aa5f8   _APP_SD_au8CanadianFrench_ta_call_hold
000aa604   _APP_SD_au8CanadianFrench_ta_bt_headset
000aa610   _APP_SD_au8CanadianFrench_head_headset
000aa61c   _APP_SD_au8CanadianFrench_ta_time_value
000aa624   _APP_SD_au8CanadianFrench_ta_menu_bt_help
000aa628   _APP_SD_au8CanadianFrench_ta_always
000aa630   _APP_SD_au8CanadianFrench_ta_call_info
000aa640   _APP_SD_au8CanadianFrench_ta_note_no_user
000aa674   _APP_SD_au8CanadianFrench_ta_note_no_bt_phone
000aa694   _APP_SD_au8CanadianFrench_ta_note_no_act_device
000aa6ac   _APP_SD_au8CanadianFrench_ta_note_no_phone
000aa6d4   _APP_SD_au8CanadianFrench_ta_note_no_accessory
000aa6e8   _APP_SD_au8CanadianFrench_ta_note_no_bt_conn_acc
000aa708   _APP_SD_au8CanadianFrench_ta_note_no_bt_conn_rsap
000aa734   _APP_SD_au8CanadianFrench_ta_note_no_entries
000aa74c   _APP_SD_au8CanadianFrench_ta_note_no_paired_dev
000aa764   _APP_SD_au8CanadianFrench_ta_note_no_sms
000aa77c   _APP_SD_au8CanadianFrench_ta_note_no_network
000aa78c   _APP_SD_au8CanadianFrench_ta_menu_no_nbr
000aa794   _APP_SD_au8CanadianFrench_ta_note_no_nbr
000aa7a4   _APP_SD_au8CanadianFrench_ta_note_mailbox_no
000aa7c8   _APP_SD_au8CanadianFrench_ta_no_media_player_found
000aa7ec   _APP_SD_au8CanadianFrench_ta_call_waiting
000aa7fc   _APP_SD_au8CanadianFrench_ta_head_conference
000aa808   _APP_SD_au8CanadianFrench_ta_head_conference_hold
000aa820   _APP_SD_au8CanadianFrench_ta_note_conf_not_poss
000aa838   _APP_SD_au8CanadianFrench_ta_conference
000aa844   _APP_SD_au8CanadianFrench_ta_note_copy_sms_failed
000aa858   _APP_SD_au8CanadianFrench_ta_err_load_phonebook
000aa878   _APP_SD_au8CanadianFrench_ta_call_silent
000aa884   _APP_SD_au8CanadianFrench_ta_head_stack_dialled
000aa894   _APP_SD_au8CanadianFrench_ta_stack_dialled
000aa8a4   _APP_SD_au8CanadianFrench_ta_stack_clear
000aa8b4   _APP_SD_au8CanadianFrench_ta_menu_delete
000aa8c0   _APP_SD_au8CanadianFrench_ta_note_sms_not_deleted
000aa8e0   _APP_SD_au8CanadianFrench_ta_note_delete_impos_phone_active
000aa914   _APP_SD_au8CanadianFrench_ta_query_del_device
000aa920   _APP_SD_au8CanadianFrench_ta_query_delete_user
000aa92c   _APP_SD_au8CanadianFrench_ta_call_swap
000aa934   _APP_SD_au8CanadianFrench_ta_media_player
000aa944   _APP_SD_au8CanadianFrench_ta_head_media_player
000aa954   _APP_SD_au8CanadianFrench_ta_main_menu
000aa958   _APP_SD_au8CanadianFrench_ta_call_micro_off
000aa968   _APP_SD_au8CanadianFrench_ta_call_micro_on
000aa978   _APP_SD_au8CanadianFrench_ta_head_sms
000aa980   _APP_SD_au8CanadianFrench_ta_note_sms_deleted
000aa990   _APP_SD_au8CanadianFrench_ta_note_sms_no_read
000aa9b4   _APP_SD_au8CanadianFrench_ta_query_delete_sms
000aa9c8   _APP_SD_au8CanadianFrench_ta_head_sms_from
000aa9d4   _APP_SD_au8CanadianFrench_ta_note_reading_sms
000aa9e8   _APP_SD_au8CanadianFrench_ta_main_messages
000aa9f0   _APP_SD_au8CanadianFrench_head_messages
000aa9f8   _APP_SD_au8CanadianFrench_ta_note_no_rsap
000aaa1c   _APP_SD_au8CanadianFrench_ta_note_search_phones
000aaa40   _APP_SD_au8CanadianFrench_ta_pb_sort_lastname
000aaa44   _APP_SD_au8CanadianFrench_ta_note_name_exists
000aaa58   _APP_SD_au8CanadianFrench_ta_note_name_stored
000aaa68   _APP_SD_au8CanadianFrench_ta_note_network_busy
000aaa78   _APP_SD_au8CanadianFrench_new_sms
000aaa84   _APP_SD_au8CanadianFrench_ta_note_conn_err
000aaa94   _APP_SD_au8CanadianFrench_ta_note_new_sms
000aaaa4   _APP_SD_au8CanadianFrench_ta_menu_new_user
000aaab8   _APP_SD_au8CanadianFrench_ta_note_new_phone_found
000aaad4   _APP_SD_au8CanadianFrench_ta_note_new_pb_available
000aaaf0   _APP_SD_au8CanadianFrench_ta_supp_not_possible
000aaafc   _APP_SD_au8CanadianFrench_ta_number
000aab04   _APP_SD_au8CanadianFrench_ta_head_dial_nbr
000aab10   _APP_SD_au8CanadianFrench_ta_main_dial
000aab1c   _APP_SD_au8CanadianFrench_ta_calls_only
000aab2c   _APP_SD_au8CanadianFrench_ta_menu_ok
000aab30   _APP_SD_au8CanadianFrench_ta_call_service
000aab40   _APP_SD_au8CanadianFrench_ta_call_sos
000aab54   _APP_SD_au8CanadianFrench_ta_head_passkey
000aab64   _APP_SD_au8CanadianFrench_ta_note_searching_players
000aab88   _APP_SD_au8CanadianFrench_ta_note_connecting_player
000aaba0   _APP_SD_au8CanadianFrench_ta_private_call
000aabac   _APP_SD_au8CanadianFrench_ta_head_private_call
000aabb8   _APP_SD_au8CanadianFrench_ta_sms_call
000aabc0   _APP_SD_au8CanadianFrench_ta_head_call_setup
000aabd0   _APP_SD_au8CanadianFrench_ta_note_invalid_number
000aabf0   _APP_SD_au8CanadianFrench_ta_head_number
000aabfc   _APP_SD_au8CanadianFrench_ta_setting_tone
000aac04   _APP_SD_au8CanadianFrench_ta_sms_concatenated
000aac1c   _APP_SD_au8CanadianFrench_ta_sms_time
000aac2c   _APP_SD_au8CanadianFrench_ta_note_service_not_supp
000aac48   _APP_SD_au8CanadianFrench_ta_bt_visibility
000aac54   _APP_SD_au8CanadianFrench_ta_query_visibility
000aac68   _APP_SD_au8CanadianFrench_ta_setting_signals
000aac78   _APP_SD_au8CanadianFrench_ta_head_setting_signals
000aac88   _APP_SD_au8CanadianFrench_ta_head_sorting_order
000aac8c   _APP_SD_au8CanadianFrench_ta_sorting_order
000aac90   _APP_SD_au8CanadianFrench_ta_note_tag_no_memory
000aacb8   _APP_SD_au8CanadianFrench_ta_menu_save
000aacc4   _APP_SD_au8CanadianFrench_ta_backspace
000aacd0   _APP_SD_au8CanadianFrench_ta_note_voice_not_ready
000aace8   _APP_SD_au8CanadianFrench_ta_note_voice_active
000aad00   _APP_SD_au8CanadianFrench_ta_main_mailbox
000aad10   _APP_SD_au8CanadianFrench_ta_head_mailbox
000aad20   _APP_SD_au8CanadianFrench_ta_search
000aad2c   _APP_SD_au8CanadianFrench_ta_note_pb_refresh_impos
000aad4c   _APP_SD_au8CanadianFrench_ta_head_phone
000aad58   _APP_SD_au8CanadianFrench_ta_note_enter_cradle
000aad94   _APP_SD_au8CanadianFrench_ta_note_phone_initiated
000aadc8   _APP_SD_au8CanadianFrench_ta_phone_book
000aadd0   _APP_SD_au8CanadianFrench_ta_head_phone_book
000aadd8   _APP_SD_au8CanadianFrench_ta_note_pb_load_error
000aadf8   _APP_SD_au8CanadianFrench_ta_note_call_estab_failed
000aae1c   _APP_SD_au8CanadianFrench_ta_note_pb_not_complete
000aae3c   _APP_SD_au8CanadianFrench_ta_note_pbook_loading
000aae64   _APP_SD_au8CanadianFrench_ta_note_pb_loading_all
000aae7c   _APP_SD_au8CanadianFrench_ta_bt_own_name
000aae8c   _APP_SD_au8CanadianFrench_ta_head_phone_name
000aaea0   _APP_SD_au8CanadianFrench_ta_phone_search
000aaeb4   _APP_SD_au8CanadianFrench_ta_bt_disconnect
000aaec0   _APP_SD_au8CanadianFrench_ta_bt_rename
000aaec8   _APP_SD_au8CanadianFrench_ta_switch
000aaed0   _APP_SD_au8CanadianFrench_ta_connect
000aaedc   _APP_SD_au8CanadianFrench_ta_query_connect
000aaef0   _APP_SD_au8CanadianFrench_ta_note_conn_terminated
000aaefc   _APP_SD_au8CanadianFrench_ta_note_bt_no_conn
000aaf10   _APP_SD_au8CanadianFrench_ta_note_bt_conn_setup
000aaf24   _APP_SD_au8CanadianFrench_ta_note_connected
000aaf34   _APP_SD_au8CanadianFrench_ta_note_bt_acc_conn
000aaf50   _APP_SD_au8CanadianFrench_ta_read_out_sms
000aaf58   _APP_SD_au8CanadianFrench_ta_pb_sort_firstname
000aaf60   _APP_SD_au8CanadianFrench_ta_note_wait_reply
000aaf74   _APP_SD_au8CanadianFrench_ta_tag_play
000aaf7c   _APP_SD_au8CanadianFrench_ta_menu_view
000aaf84   _APP_SD_au8CanadianFrench_ta_bt_accessory
000aaf8c   _APP_SD_au8CanadianFrench_ta_wait_bt_acc_search
000aafa8   _APP_SD_au8CanadianFrench_ta_help_text
000ab0e0   _APP_SD_au8CanadianFrench_ta_list_back
000ab0e8   _APP_SD_au8CanadianFrench_ta_phone_no_answer
000ab108   _APP_SD_au8CanadianFrench_ta_confirm_pw_with_OK
000ab124   _APP_SD_au8CanadianFrench_ta_confirm_pw_in_device
000ab144   _APP_SD_au8Dutch_ta_time_am
000ab154   _APP_SD_au8Dutch_ta_time_pm
000ab164   _APP_SD_au8Dutch_ta_call_diverted
000ab174   _APP_SD_au8Dutch_ta_time_standard
000ab184   _APP_SD_au8Dutch_ta_menu_cancel
000ab190   _APP_SD_au8Dutch_ta_call_reject
000ab198   _APP_SD_au8Dutch_ta_note_ignition
000ab1c4   _APP_SD_au8Dutch_ta_query_del_act_device
000ab1d4   _APP_SD_au8Dutch_ta_query_del_act_user
000ab1e4   _APP_SD_au8Dutch_ta_head_call_active
000ab1f4   _APP_SD_au8Dutch_ta_head_active_tone
000ab204   _APP_SD_au8Dutch_ta_bt_active_device
000ab214   _APP_SD_au8Dutch_ta_call_resume
000ab220   _APP_SD_au8Dutch_ta_pb_download
000ab22c   _APP_SD_au8Dutch_ta_query_terminate_conn
000ab248   _APP_SD_au8Dutch_ta_query_delete_log
000ab260   _APP_SD_au8Dutch_ta_music_paused
000ab280   _APP_SD_au8Dutch_ta_call_end_all
000ab290   _APP_SD_au8Dutch_ta_stack_received
000ab29c   _APP_SD_au8Dutch_ta_note_bt_passkey_err
000ab2b4   _APP_SD_au8Dutch_ta_call_accept
000ab2c0   _APP_SD_au8Dutch_ta_head_stack_received
000ab2cc   _APP_SD_au8Dutch_ta_head_stack_missed
000ab2d4   _APP_SD_au8Dutch_ta_stack_missed
000ab2dc   _APP_SD_au8Dutch_ta_head_call
000ab2e4   _APP_SD_au8Dutch_ta_head_incoming_call
000ab2ec   _APP_SD_au8Dutch_ta_call_call1
000ab2f8   _APP_SD_au8Dutch_ta_head_call1
000ab304   _APP_SD_au8Dutch_ta_call_call2
000ab310   _APP_SD_au8Dutch_ta_head_call2
000ab31c   _APP_SD_au8Dutch_ta_end_call
000ab32c   _APP_SD_au8Dutch_ta_head_call_hold
000ab33c   _APP_SD_au8Dutch_ta_note_missed_call
000ab34c   _APP_SD_au8Dutch_ta_head_call_waiting
000ab35c   _APP_SD_au8Dutch_ta_head_calls
000ab368   _APP_SD_au8Dutch_ta_menu_call
000ab370   _APP_SD_au8Dutch_ta_main_callstacks
000ab380   _APP_SD_au8Dutch_call_head_register
000ab390   _APP_SD_au8Dutch_ta_note_stacks_cleared
000ab3a4   _APP_SD_au8Dutch_ta_head_nametag
000ab3ac   _APP_SD_au8Dutch_ta_pb_nametag
000ab3b4   _APP_SD_au8Dutch_ta_note_read_voice_tag
000ab3c4   _APP_SD_au8Dutch_ta_note_voice_tag_reset
000ab3d8   _APP_SD_au8Dutch_ta_head_reset_voice_tag
000ab3ec   _APP_SD_au8Dutch_ta_sw_info
000ab3f4   _APP_SD_au8Dutch_ta_menu_show
000ab3fc   _APP_SD_au8Dutch_ta_voice_tag_reset
000ab408   _APP_SD_au8Dutch_ta_audio_mode
000ab414   _APP_SD_au8Dutch_head_audio_mode
000ab420   _APP_SD_au8Dutch_ta_call_end
000ab42c   _APP_SD_au8Dutch_ta_tag_record
000ab434   _APP_SD_au8Dutch_ta_off
000ab438   _APP_SD_au8Dutch_ta_head_options
000ab440   _APP_SD_au8Dutch_ta_menu_end
000ab44c   _APP_SD_au8Dutch_ta_menu_user
000ab458   _APP_SD_au8Dutch_head_user
000ab464   _APP_SD_au8Dutch_ta_head_delete_user
000ab474   _APP_SD_au8Dutch_ta_note_search_user
000ab48c   _APP_SD_au8Dutch_ta_head_user
000ab498   _APP_SD_au8Dutch_ta_query_new_user
000ab4b4   _APP_SD_au8Dutch_ta_note_new_user
000ab4dc   _APP_SD_au8Dutch_ta_note_max_users
000ab4f8   _APP_SD_au8Dutch_ta_note_user_connected
000ab50c   _APP_SD_au8Dutch_ta_note_number_busy
000ab518   _APP_SD_au8Dutch_ta_note_user_not_created
000ab530   _APP_SD_au8Dutch_ta_wait_general
000ab540   _APP_SD_au8Dutch_ta_note_enter_number
000ab55c   _APP_SD_au8Dutch_ta_main_bluetooth
000ab568   _APP_SD_au8Dutch_head_bluetooth
000ab574   _APP_SD_au8Dutch_ta_bt_no_conn_headset
000ab5a0   _APP_SD_au8Dutch_ta_note_bt_conn_impos
000ab5d4   _APP_SD_au8Dutch_ta_time_format
000ab5dc   _APP_SD_au8Dutch_ta_head_datacall
000ab5e8   _APP_SD_au8Dutch_ta_date_value
000ab5f4   _APP_SD_au8Dutch_ta_call_dtmf
000ab5f8   _APP_SD_au8Dutch_ta_head_dtmf
000ab5fc   _APP_SD_au8Dutch_ta_on
000ab600   _APP_SD_au8Dutch_ta_main_settings
000ab60c   _APP_SD_au8Dutch_head_settings
000ab618   _APP_SD_au8Dutch_ta_head_faxcall
000ab624   _APP_SD_au8Dutch_ta_call_handsfree
000ab630   _APP_SD_au8Dutch_ta_function_restriction
000ab654   _APP_SD_au8Dutch_ta_note_visible
000ab670   _APP_SD_au8Dutch_ta_note_info_call
000ab69c   _APP_SD_au8Dutch_ta_note_service_call
000ab6c8   _APP_SD_au8Dutch_ta_bt_paired_devices
000ab6d8   _APP_SD_au8Dutch_paired_head_devices
000ab6e8   _APP_SD_au8Dutch_ta_note_sos_call
000ab70c   _APP_SD_au8Dutch_ta_note_deleted
000ab714   _APP_SD_au8Dutch_ta_note_user_deleted
000ab71c   _APP_SD_au8Dutch_head_device_list
000ab72c   _APP_SD_au8Dutch_ta_replace
000ab738   _APP_SD_au8Dutch_ta_call_end_active
000ab748   _APP_SD_au8Dutch_ta_disconnected
000ab754   _APP_SD_au8Dutch_ta_call_hold
000ab764   _APP_SD_au8Dutch_ta_bt_headset
000ab76c   _APP_SD_au8Dutch_head_headset
000ab774   _APP_SD_au8Dutch_ta_time_value
000ab77c   _APP_SD_au8Dutch_ta_menu_bt_help
000ab780   _APP_SD_au8Dutch_ta_always
000ab788   _APP_SD_au8Dutch_ta_call_info
000ab794   _APP_SD_au8Dutch_ta_note_no_user
000ab7c4   _APP_SD_au8Dutch_ta_note_no_bt_phone
000ab7e0   _APP_SD_au8Dutch_ta_note_no_act_device
000ab7f4   _APP_SD_au8Dutch_ta_note_no_phone
000ab814   _APP_SD_au8Dutch_ta_note_no_accessory
000ab828   _APP_SD_au8Dutch_ta_note_no_bt_conn_acc
000ab848   _APP_SD_au8Dutch_ta_note_no_bt_conn_rsap
000ab878   _APP_SD_au8Dutch_ta_note_no_entries
000ab894   _APP_SD_au8Dutch_ta_note_no_paired_dev
000ab8ac   _APP_SD_au8Dutch_ta_note_no_sms
000ab8c8   _APP_SD_au8Dutch_ta_note_no_network
000ab8e0   _APP_SD_au8Dutch_ta_menu_no_nbr
000ab8e8   _APP_SD_au8Dutch_ta_note_no_nbr
000ab8fc   _APP_SD_au8Dutch_ta_note_mailbox_no
000ab91c   _APP_SD_au8Dutch_ta_no_media_player_found
000ab940   _APP_SD_au8Dutch_ta_call_waiting
000ab948   _APP_SD_au8Dutch_ta_head_conference
000ab954   _APP_SD_au8Dutch_ta_head_conference_hold
000ab968   _APP_SD_au8Dutch_ta_note_conf_not_poss
000ab980   _APP_SD_au8Dutch_ta_conference
000ab98c   _APP_SD_au8Dutch_ta_note_copy_sms_failed
000ab9a8   _APP_SD_au8Dutch_ta_err_load_phonebook
000ab9c4   _APP_SD_au8Dutch_ta_call_silent
000ab9c8   _APP_SD_au8Dutch_ta_head_stack_dialled
000ab9d0   _APP_SD_au8Dutch_ta_stack_dialled
000ab9d8   _APP_SD_au8Dutch_ta_stack_clear
000ab9e8   _APP_SD_au8Dutch_ta_menu_delete
000ab9f0   _APP_SD_au8Dutch_ta_note_sms_not_deleted
000aba0c   _APP_SD_au8Dutch_ta_note_delete_impos_phone_active
000aba40   _APP_SD_au8Dutch_ta_query_del_device
000aba48   _APP_SD_au8Dutch_ta_query_delete_user
000aba54   _APP_SD_au8Dutch_ta_call_swap
000aba64   _APP_SD_au8Dutch_ta_media_player
000aba70   _APP_SD_au8Dutch_ta_head_media_player
000aba7c   _APP_SD_au8Dutch_ta_main_menu
000aba80   _APP_SD_au8Dutch_ta_call_micro_off
000aba90   _APP_SD_au8Dutch_ta_call_micro_on
000abaa0   _APP_SD_au8Dutch_ta_head_sms
000abaa8   _APP_SD_au8Dutch_ta_note_sms_deleted
000abab8   _APP_SD_au8Dutch_ta_note_sms_no_read
000abadc   _APP_SD_au8Dutch_ta_query_delete_sms
000abaec   _APP_SD_au8Dutch_ta_head_sms_from
000abaf8   _APP_SD_au8Dutch_ta_note_reading_sms
000abb10   _APP_SD_au8Dutch_ta_main_messages
000abb1c   _APP_SD_au8Dutch_head_messages
000abb28   _APP_SD_au8Dutch_ta_note_no_rsap
000abb4c   _APP_SD_au8Dutch_ta_note_search_phones
000abb74   _APP_SD_au8Dutch_ta_pb_sort_lastname
000abb80   _APP_SD_au8Dutch_ta_note_name_exists
000abb94   _APP_SD_au8Dutch_ta_note_name_stored
000abba4   _APP_SD_au8Dutch_ta_note_network_busy
000abbb4   _APP_SD_au8Dutch_new_sms
000abbc4   _APP_SD_au8Dutch_ta_note_conn_err
000abbd0   _APP_SD_au8Dutch_ta_note_new_sms
000abbe0   _APP_SD_au8Dutch_ta_menu_new_user
000abbf0   _APP_SD_au8Dutch_ta_note_new_phone_found
000abc10   _APP_SD_au8Dutch_ta_note_new_pb_available
000abc2c   _APP_SD_au8Dutch_ta_supp_not_possible
000abc3c   _APP_SD_au8Dutch_ta_number
000abc44   _APP_SD_au8Dutch_ta_head_dial_nbr
000abc54   _APP_SD_au8Dutch_ta_main_dial
000abc64   _APP_SD_au8Dutch_ta_calls_only
000abc78   _APP_SD_au8Dutch_ta_menu_ok
000abc7c   _APP_SD_au8Dutch_ta_call_service
000abc88   _APP_SD_au8Dutch_ta_call_sos
000abc90   _APP_SD_au8Dutch_ta_head_passkey
000abc9c   _APP_SD_au8Dutch_ta_note_searching_players
000abcc0   _APP_SD_au8Dutch_ta_note_connecting_player
000abcd8   _APP_SD_au8Dutch_ta_private_call
000abce8   _APP_SD_au8Dutch_ta_head_private_call
000abcf8   _APP_SD_au8Dutch_ta_sms_call
000abd04   _APP_SD_au8Dutch_ta_head_call_setup
000abd10   _APP_SD_au8Dutch_ta_note_invalid_number
000abd28   _APP_SD_au8Dutch_ta_head_number
000abd34   _APP_SD_au8Dutch_ta_setting_tone
000abd3c   _APP_SD_au8Dutch_ta_sms_concatenated
000abd54   _APP_SD_au8Dutch_ta_sms_time
000abd5c   _APP_SD_au8Dutch_ta_note_service_not_supp
000abd74   _APP_SD_au8Dutch_ta_bt_visibility
000abd84   _APP_SD_au8Dutch_ta_query_visibility
000abda0   _APP_SD_au8Dutch_ta_setting_signals
000abdac   _APP_SD_au8Dutch_ta_head_setting_signals
000abdb8   _APP_SD_au8Dutch_ta_head_sorting_order
000abdc4   _APP_SD_au8Dutch_ta_sorting_order
000abdd0   _APP_SD_au8Dutch_ta_note_tag_no_memory
000abdf0   _APP_SD_au8Dutch_ta_menu_save
000abdf8   _APP_SD_au8Dutch_ta_backspace
000abe00   _APP_SD_au8Dutch_ta_note_voice_not_ready
000abe20   _APP_SD_au8Dutch_ta_note_voice_active
000abe38   _APP_SD_au8Dutch_ta_main_mailbox
000abe44   _APP_SD_au8Dutch_ta_head_mailbox
000abe54   _APP_SD_au8Dutch_ta_search
000abe5c   _APP_SD_au8Dutch_ta_note_pb_refresh_impos
000abe80   _APP_SD_au8Dutch_ta_head_phone
000abe88   _APP_SD_au8Dutch_ta_note_enter_cradle
000abeac   _APP_SD_au8Dutch_ta_note_phone_initiated
000abedc   _APP_SD_au8Dutch_ta_phone_book
000abee8   _APP_SD_au8Dutch_ta_head_phone_book
000abef4   _APP_SD_au8Dutch_ta_note_pb_load_error
000abf18   _APP_SD_au8Dutch_ta_note_call_estab_failed
000abf34   _APP_SD_au8Dutch_ta_note_pb_not_complete
000abf54   _APP_SD_au8Dutch_ta_note_pbook_loading
000abf78   _APP_SD_au8Dutch_ta_note_pb_loading_all
000abf94   _APP_SD_au8Dutch_ta_bt_own_name
000abfa0   _APP_SD_au8Dutch_ta_head_phone_name
000abfb0   _APP_SD_au8Dutch_ta_phone_search
000abfc0   _APP_SD_au8Dutch_ta_bt_disconnect
000abfcc   _APP_SD_au8Dutch_ta_bt_rename
000abfdc   _APP_SD_au8Dutch_ta_switch
000abfe8   _APP_SD_au8Dutch_ta_connect
000abff4   _APP_SD_au8Dutch_ta_query_connect
000ac004   _APP_SD_au8Dutch_ta_note_conn_terminated
000ac018   _APP_SD_au8Dutch_ta_note_bt_no_conn
000ac030   _APP_SD_au8Dutch_ta_note_bt_conn_setup
000ac054   _APP_SD_au8Dutch_ta_note_connected
000ac064   _APP_SD_au8Dutch_ta_note_bt_acc_conn
000ac084   _APP_SD_au8Dutch_ta_read_out_sms
000ac090   _APP_SD_au8Dutch_ta_pb_sort_firstname
000ac098   _APP_SD_au8Dutch_ta_note_wait_reply
000ac0a8   _APP_SD_au8Dutch_ta_tag_play
000ac0b4   _APP_SD_au8Dutch_ta_menu_view
000ac0bc   _APP_SD_au8Dutch_ta_bt_accessory
000ac0c4   _APP_SD_au8Dutch_ta_wait_bt_acc_search
000ac0e8   _APP_SD_au8Dutch_ta_help_text
000ac1dc   _APP_SD_au8Dutch_ta_list_back
000ac1e4   _APP_SD_au8Dutch_ta_phone_no_answer
000ac204   _APP_SD_au8Dutch_ta_confirm_pw_with_OK
000ac220   _APP_SD_au8Dutch_ta_confirm_pw_in_device
000ac240   _APP_SD_au8Swedish_ta_time_am
000ac250   _APP_SD_au8Swedish_ta_time_pm
000ac260   _APP_SD_au8Swedish_ta_call_diverted
000ac270   _APP_SD_au8Swedish_ta_time_standard
000ac280   _APP_SD_au8Swedish_ta_menu_cancel
000ac288   _APP_SD_au8Swedish_ta_call_reject
000ac290   _APP_SD_au8Swedish_ta_note_ignition
000ac2bc   _APP_SD_au8Swedish_ta_query_del_act_device
000ac2cc   _APP_SD_au8Swedish_ta_query_del_act_user
000ac2dc   _APP_SD_au8Swedish_ta_head_call_active
000ac2ec   _APP_SD_au8Swedish_ta_head_active_tone
000ac300   _APP_SD_au8Swedish_ta_bt_active_device
000ac310   _APP_SD_au8Swedish_ta_call_resume
000ac318   _APP_SD_au8Swedish_ta_pb_download
000ac324   _APP_SD_au8Swedish_ta_query_terminate_conn
000ac33c   _APP_SD_au8Swedish_ta_query_delete_log
000ac358   _APP_SD_au8Swedish_ta_music_paused
000ac37c   _APP_SD_au8Swedish_ta_call_end_all
000ac388   _APP_SD_au8Swedish_ta_stack_received
000ac390   _APP_SD_au8Swedish_ta_note_bt_passkey_err
000ac3a8   _APP_SD_au8Swedish_ta_call_accept
000ac3b8   _APP_SD_au8Swedish_ta_head_stack_received
000ac3c8   _APP_SD_au8Swedish_ta_head_stack_missed
000ac3d8   _APP_SD_au8Swedish_ta_stack_missed
000ac3e8   _APP_SD_au8Swedish_ta_head_call
000ac3f0   _APP_SD_au8Swedish_ta_head_incoming_call
000ac3f8   _APP_SD_au8Swedish_ta_call_call1
000ac400   _APP_SD_au8Swedish_ta_head_call1
000ac408   _APP_SD_au8Swedish_ta_call_call2
000ac410   _APP_SD_au8Swedish_ta_head_call2
000ac418   _APP_SD_au8Swedish_ta_end_call
000ac428   _APP_SD_au8Swedish_ta_head_call_hold
000ac438   _APP_SD_au8Swedish_ta_note_missed_call
000ac448   _APP_SD_au8Swedish_ta_head_call_waiting
000ac458   _APP_SD_au8Swedish_ta_head_calls
000ac460   _APP_SD_au8Swedish_ta_menu_call
000ac468   _APP_SD_au8Swedish_ta_main_callstacks
000ac478   _APP_SD_au8Swedish_call_head_register
000ac488   _APP_SD_au8Swedish_ta_note_stacks_cleared
000ac4a0   _APP_SD_au8Swedish_ta_head_nametag
000ac4ac   _APP_SD_au8Swedish_ta_pb_nametag
000ac4b8   _APP_SD_au8Swedish_ta_note_read_voice_tag
000ac4cc   _APP_SD_au8Swedish_ta_note_voice_tag_reset
000ac4e4   _APP_SD_au8Swedish_ta_head_reset_voice_tag
000ac4fc   _APP_SD_au8Swedish_ta_sw_info
000ac504   _APP_SD_au8Swedish_ta_menu_show
000ac508   _APP_SD_au8Swedish_ta_voice_tag_reset
000ac514   _APP_SD_au8Swedish_ta_audio_mode
000ac520   _APP_SD_au8Swedish_head_audio_mode
000ac52c   _APP_SD_au8Swedish_ta_call_end
000ac538   _APP_SD_au8Swedish_ta_tag_record
000ac540   _APP_SD_au8Swedish_ta_off
000ac548   _APP_SD_au8Swedish_ta_head_options
000ac554   _APP_SD_au8Swedish_ta_menu_end
000ac55c   _APP_SD_au8Swedish_ta_menu_user
000ac568   _APP_SD_au8Swedish_head_user
000ac574   _APP_SD_au8Swedish_ta_head_delete_user
000ac584   _APP_SD_au8Swedish_ta_note_search_user
000ac59c   _APP_SD_au8Swedish_ta_head_user
000ac5a8   _APP_SD_au8Swedish_ta_query_new_user
000ac5bc   _APP_SD_au8Swedish_ta_note_new_user
000ac5d4   _APP_SD_au8Swedish_ta_note_max_users
000ac5ec   _APP_SD_au8Swedish_ta_note_user_connected
000ac600   _APP_SD_au8Swedish_ta_note_number_busy
000ac608   _APP_SD_au8Swedish_ta_note_user_not_created
000ac61c   _APP_SD_au8Swedish_ta_wait_general
000ac624   _APP_SD_au8Swedish_ta_note_enter_number
000ac638   _APP_SD_au8Swedish_ta_main_bluetooth
000ac644   _APP_SD_au8Swedish_head_bluetooth
000ac650   _APP_SD_au8Swedish_ta_bt_no_conn_headset
000ac678   _APP_SD_au8Swedish_ta_note_bt_conn_impos
000ac6a4   _APP_SD_au8Swedish_ta_time_format
000ac6ac   _APP_SD_au8Swedish_ta_head_datacall
000ac6b8   _APP_SD_au8Swedish_ta_date_value
000ac6c8   _APP_SD_au8Swedish_ta_call_dtmf
000ac6cc   _APP_SD_au8Swedish_ta_head_dtmf
000ac6d0   _APP_SD_au8Swedish_ta_on
000ac6d4   _APP_SD_au8Swedish_ta_main_settings
000ac6e4   _APP_SD_au8Swedish_head_settings
000ac6f4   _APP_SD_au8Swedish_ta_head_faxcall
000ac700   _APP_SD_au8Swedish_ta_call_handsfree
000ac70c   _APP_SD_au8Swedish_ta_function_restriction
000ac734   _APP_SD_au8Swedish_ta_note_visible
000ac748   _APP_SD_au8Swedish_ta_note_info_call
000ac770   _APP_SD_au8Swedish_ta_note_service_call
000ac798   _APP_SD_au8Swedish_ta_bt_paired_devices
000ac7a8   _APP_SD_au8Swedish_paired_head_devices
000ac7b8   _APP_SD_au8Swedish_ta_note_sos_call
000ac7e0   _APP_SD_au8Swedish_ta_note_deleted
000ac7e8   _APP_SD_au8Swedish_ta_note_user_deleted
000ac7f4   _APP_SD_au8Swedish_head_device_list
000ac800   _APP_SD_au8Swedish_ta_replace
000ac808   _APP_SD_au8Swedish_ta_call_end_active
000ac818   _APP_SD_au8Swedish_ta_disconnected
000ac820   _APP_SD_au8Swedish_ta_call_hold
000ac82c   _APP_SD_au8Swedish_ta_bt_headset
000ac834   _APP_SD_au8Swedish_head_headset
000ac83c   _APP_SD_au8Swedish_ta_time_value
000ac844   _APP_SD_au8Swedish_ta_menu_bt_help
000ac84c   _APP_SD_au8Swedish_ta_always
000ac854   _APP_SD_au8Swedish_ta_call_info
000ac860   _APP_SD_au8Swedish_ta_note_no_user
000ac890   _APP_SD_au8Swedish_ta_note_no_bt_phone
000ac8ac   _APP_SD_au8Swedish_ta_note_no_act_device
000ac8c0   _APP_SD_au8Swedish_ta_note_no_phone
000ac8e4   _APP_SD_au8Swedish_ta_note_no_accessory
000ac8f8   _APP_SD_au8Swedish_ta_note_no_bt_conn_acc
000ac91c   _APP_SD_au8Swedish_ta_note_no_bt_conn_rsap
000ac94c   _APP_SD_au8Swedish_ta_note_no_entries
000ac960   _APP_SD_au8Swedish_ta_note_no_paired_dev
000ac978   _APP_SD_au8Swedish_ta_note_no_sms
000ac98c   _APP_SD_au8Swedish_ta_note_no_network
000ac9a0   _APP_SD_au8Swedish_ta_menu_no_nbr
000ac9a8   _APP_SD_au8Swedish_ta_note_no_nbr
000ac9bc   _APP_SD_au8Swedish_ta_note_mailbox_no
000ac9e8   _APP_SD_au8Swedish_ta_no_media_player_found
000aca10   _APP_SD_au8Swedish_ta_call_waiting
000aca20   _APP_SD_au8Swedish_ta_head_conference
000aca2c   _APP_SD_au8Swedish_ta_head_conference_hold
000aca3c   _APP_SD_au8Swedish_ta_note_conf_not_poss
000aca54   _APP_SD_au8Swedish_ta_conference
000aca60   _APP_SD_au8Swedish_ta_note_copy_sms_failed
000aca80   _APP_SD_au8Swedish_ta_err_load_phonebook
000aca9c   _APP_SD_au8Swedish_ta_call_silent
000acaa0   _APP_SD_au8Swedish_ta_head_stack_dialled
000acab0   _APP_SD_au8Swedish_ta_stack_dialled
000acac0   _APP_SD_au8Swedish_ta_stack_clear
000acad0   _APP_SD_au8Swedish_ta_menu_delete
000acad8   _APP_SD_au8Swedish_ta_note_sms_not_deleted
000acaec   _APP_SD_au8Swedish_ta_note_delete_impos_phone_active
000acb20   _APP_SD_au8Swedish_ta_query_del_device
000acb28   _APP_SD_au8Swedish_ta_query_delete_user
000acb34   _APP_SD_au8Swedish_ta_call_swap
000acb3c   _APP_SD_au8Swedish_ta_media_player
000acb48   _APP_SD_au8Swedish_ta_head_media_player
000acb54   _APP_SD_au8Swedish_ta_main_menu
000acb58   _APP_SD_au8Swedish_ta_call_micro_off
000acb64   _APP_SD_au8Swedish_ta_call_micro_on
000acb70   _APP_SD_au8Swedish_ta_head_sms
000acb74   _APP_SD_au8Swedish_ta_note_sms_deleted
000acb80   _APP_SD_au8Swedish_ta_note_sms_no_read
000acb94   _APP_SD_au8Swedish_ta_query_delete_sms
000acba0   _APP_SD_au8Swedish_ta_head_sms_from
000acbac   _APP_SD_au8Swedish_ta_note_reading_sms
000acbc0   _APP_SD_au8Swedish_ta_main_messages
000acbc4   _APP_SD_au8Swedish_head_messages
000acbc8   _APP_SD_au8Swedish_ta_note_no_rsap
000acbe8   _APP_SD_au8Swedish_ta_note_search_phones
000acc0c   _APP_SD_au8Swedish_ta_pb_sort_lastname
000acc18   _APP_SD_au8Swedish_ta_note_name_exists
000acc2c   _APP_SD_au8Swedish_ta_note_name_stored
000acc38   _APP_SD_au8Swedish_ta_note_network_busy
000acc4c   _APP_SD_au8Swedish_new_sms
000acc54   _APP_SD_au8Swedish_ta_note_conn_err
000acc64   _APP_SD_au8Swedish_ta_note_new_sms
000acc6c   _APP_SD_au8Swedish_ta_menu_new_user
000acc7c   _APP_SD_au8Swedish_ta_note_new_phone_found
000acc94   _APP_SD_au8Swedish_ta_note_new_pb_available
000accac   _APP_SD_au8Swedish_ta_supp_not_possible
000accb8   _APP_SD_au8Swedish_ta_number
000accc0   _APP_SD_au8Swedish_ta_head_dial_nbr
000acccc   _APP_SD_au8Swedish_ta_main_dial
000accd8   _APP_SD_au8Swedish_ta_calls_only
000acce8   _APP_SD_au8Swedish_ta_menu_ok
000accec   _APP_SD_au8Swedish_ta_call_service
000accfc   _APP_SD_au8Swedish_ta_call_sos
000acd08   _APP_SD_au8Swedish_ta_head_passkey
000acd14   _APP_SD_au8Swedish_ta_note_searching_players
000acd30   _APP_SD_au8Swedish_ta_note_connecting_player
000acd40   _APP_SD_au8Swedish_ta_private_call
000acd4c   _APP_SD_au8Swedish_ta_head_private_call
000acd58   _APP_SD_au8Swedish_ta_sms_call
000acd68   _APP_SD_au8Swedish_ta_head_call_setup
000acd78   _APP_SD_au8Swedish_ta_note_invalid_number
000acd90   _APP_SD_au8Swedish_ta_head_number
000acda0   _APP_SD_au8Swedish_ta_setting_tone
000acdac   _APP_SD_au8Swedish_ta_sms_concatenated
000acdc4   _APP_SD_au8Swedish_ta_sms_time
000acdcc   _APP_SD_au8Swedish_ta_note_service_not_supp
000acde4   _APP_SD_au8Swedish_ta_bt_visibility
000acdf0   _APP_SD_au8Swedish_ta_query_visibility
000ace00   _APP_SD_au8Swedish_ta_setting_signals
000ace10   _APP_SD_au8Swedish_ta_head_setting_signals
000ace20   _APP_SD_au8Swedish_ta_head_sorting_order
000ace2c   _APP_SD_au8Swedish_ta_sorting_order
000ace38   _APP_SD_au8Swedish_ta_note_tag_no_memory
000ace60   _APP_SD_au8Swedish_ta_menu_save
000ace68   _APP_SD_au8Swedish_ta_backspace
000ace70   _APP_SD_au8Swedish_ta_note_voice_not_ready
000ace8c   _APP_SD_au8Swedish_ta_note_voice_active
000acea0   _APP_SD_au8Swedish_ta_main_mailbox
000aceb0   _APP_SD_au8Swedish_ta_head_mailbox
000acec0   _APP_SD_au8Swedish_ta_search
000acec8   _APP_SD_au8Swedish_ta_note_pb_refresh_impos
000acee8   _APP_SD_au8Swedish_ta_head_phone
000acef0   _APP_SD_au8Swedish_ta_note_enter_cradle
000acf14   _APP_SD_au8Swedish_ta_note_phone_initiated
000acf30   _APP_SD_au8Swedish_ta_phone_book
000acf3c   _APP_SD_au8Swedish_ta_head_phone_book
000acf48   _APP_SD_au8Swedish_ta_note_pb_load_error
000acf60   _APP_SD_au8Swedish_ta_note_call_estab_failed
000acf68   _APP_SD_au8Swedish_ta_note_pb_not_complete
000acf88   _APP_SD_au8Swedish_ta_note_pbook_loading
000acfa4   _APP_SD_au8Swedish_ta_note_pb_loading_all
000acfb8   _APP_SD_au8Swedish_ta_bt_own_name
000acfc4   _APP_SD_au8Swedish_ta_head_phone_name
000acfd0   _APP_SD_au8Swedish_ta_phone_search
000acfe0   _APP_SD_au8Swedish_ta_bt_disconnect
000acfe8   _APP_SD_au8Swedish_ta_bt_rename
000acff4   _APP_SD_au8Swedish_ta_switch
000acffc   _APP_SD_au8Swedish_ta_connect
000ad004   _APP_SD_au8Swedish_ta_query_connect
000ad014   _APP_SD_au8Swedish_ta_note_conn_terminated
000ad028   _APP_SD_au8Swedish_ta_note_bt_no_conn
000ad040   _APP_SD_au8Swedish_ta_note_bt_conn_setup
000ad054   _APP_SD_au8Swedish_ta_note_connected
000ad064   _APP_SD_au8Swedish_ta_note_bt_acc_conn
000ad084   _APP_SD_au8Swedish_ta_read_out_sms
000ad090   _APP_SD_au8Swedish_ta_pb_sort_firstname
000ad098   _APP_SD_au8Swedish_ta_note_wait_reply
000ad0a8   _APP_SD_au8Swedish_ta_tag_play
000ad0b4   _APP_SD_au8Swedish_ta_menu_view
000ad0b8   _APP_SD_au8Swedish_ta_bt_accessory
000ad0c0   _APP_SD_au8Swedish_ta_wait_bt_acc_search
000ad0dc   _APP_SD_au8Swedish_ta_help_text
000ad1c8   _APP_SD_au8Swedish_ta_list_back
000ad1d0   _APP_SD_au8Swedish_ta_phone_no_answer
000ad1ec   _APP_SD_au8Swedish_ta_confirm_pw_with_OK
000ad20c   _APP_SD_au8Swedish_ta_confirm_pw_in_device
000ad230   _APP_SD_au8Turkish_ta_time_am
000ad240   _APP_SD_au8Turkish_ta_time_pm
000ad250   _APP_SD_au8Turkish_ta_call_diverted
000ad260   _APP_SD_au8Turkish_ta_time_standard
000ad270   _APP_SD_au8Turkish_ta_menu_cancel
000ad278   _APP_SD_au8Turkish_ta_call_reject
000ad280   _APP_SD_au8Turkish_ta_note_ignition
000ad2ac   _APP_SD_au8Turkish_ta_query_del_act_device
000ad2bc   _APP_SD_au8Turkish_ta_query_del_act_user
000ad2cc   _APP_SD_au8Turkish_ta_head_call_active
000ad2d8   _APP_SD_au8Turkish_ta_head_active_tone
000ad2ec   _APP_SD_au8Turkish_ta_bt_active_device
000ad2f8   _APP_SD_au8Turkish_ta_call_resume
000ad304   _APP_SD_au8Turkish_ta_pb_download
000ad310   _APP_SD_au8Turkish_ta_query_terminate_conn
000ad324   _APP_SD_au8Turkish_ta_query_delete_log
000ad33c   _APP_SD_au8Turkish_ta_music_paused
000ad364   _APP_SD_au8Turkish_ta_call_end_all
000ad374   _APP_SD_au8Turkish_ta_stack_received
000ad380   _APP_SD_au8Turkish_ta_note_bt_passkey_err
000ad398   _APP_SD_au8Turkish_ta_call_accept
000ad3a0   _APP_SD_au8Turkish_ta_head_stack_received
000ad3ac   _APP_SD_au8Turkish_ta_head_stack_missed
000ad3b8   _APP_SD_au8Turkish_ta_stack_missed
000ad3c4   _APP_SD_au8Turkish_ta_head_call
000ad3cc   _APP_SD_au8Turkish_ta_head_incoming_call
000ad3d4   _APP_SD_au8Turkish_ta_call_call1
000ad3dc   _APP_SD_au8Turkish_ta_head_call1
000ad3e4   _APP_SD_au8Turkish_ta_call_call2
000ad3ec   _APP_SD_au8Turkish_ta_head_call2
000ad3f4   _APP_SD_au8Turkish_ta_end_call
000ad404   _APP_SD_au8Turkish_ta_head_call_hold
000ad414   _APP_SD_au8Turkish_ta_note_missed_call
000ad428   _APP_SD_au8Turkish_ta_head_call_waiting
000ad43c   _APP_SD_au8Turkish_ta_head_calls
000ad444   _APP_SD_au8Turkish_ta_menu_call
000ad44c   _APP_SD_au8Turkish_ta_main_callstacks
000ad45c   _APP_SD_au8Turkish_call_head_register
000ad46c   _APP_SD_au8Turkish_ta_note_stacks_cleared
000ad484   _APP_SD_au8Turkish_ta_head_nametag
000ad490   _APP_SD_au8Turkish_ta_pb_nametag
000ad49c   _APP_SD_au8Turkish_ta_note_read_voice_tag
000ad4b4   _APP_SD_au8Turkish_ta_note_voice_tag_reset
000ad4cc   _APP_SD_au8Turkish_ta_head_reset_voice_tag
000ad4e0   _APP_SD_au8Turkish_ta_sw_info
000ad4e8   _APP_SD_au8Turkish_ta_menu_show
000ad4f0   _APP_SD_au8Turkish_ta_voice_tag_reset
000ad4f8   _APP_SD_au8Turkish_ta_audio_mode
000ad500   _APP_SD_au8Turkish_head_audio_mode
000ad50c   _APP_SD_au8Turkish_ta_call_end
000ad514   _APP_SD_au8Turkish_ta_tag_record
000ad51c   _APP_SD_au8Turkish_ta_off
000ad524   _APP_SD_au8Turkish_ta_head_options
000ad52c   _APP_SD_au8Turkish_ta_menu_end
000ad534   _APP_SD_au8Turkish_ta_menu_user
000ad540   _APP_SD_au8Turkish_head_user
000ad54c   _APP_SD_au8Turkish_ta_head_delete_user
000ad55c   _APP_SD_au8Turkish_ta_note_search_user
000ad574   _APP_SD_au8Turkish_ta_head_user
000ad580   _APP_SD_au8Turkish_ta_query_new_user
000ad598   _APP_SD_au8Turkish_ta_note_new_user
000ad5c0   _APP_SD_au8Turkish_ta_note_max_users
000ad5e0   _APP_SD_au8Turkish_ta_note_user_connected
000ad5f4   _APP_SD_au8Turkish_ta_note_number_busy
000ad5fc   _APP_SD_au8Turkish_ta_note_user_not_created
000ad614   _APP_SD_au8Turkish_ta_wait_general
000ad628   _APP_SD_au8Turkish_ta_note_enter_number
000ad648   _APP_SD_au8Turkish_ta_main_bluetooth
000ad654   _APP_SD_au8Turkish_head_bluetooth
000ad660   _APP_SD_au8Turkish_ta_bt_no_conn_headset
000ad698   _APP_SD_au8Turkish_ta_note_bt_conn_impos
000ad6cc   _APP_SD_au8Turkish_ta_time_format
000ad6d4   _APP_SD_au8Turkish_ta_head_datacall
000ad6e0   _APP_SD_au8Turkish_ta_date_value
000ad6ec   _APP_SD_au8Turkish_ta_call_dtmf
000ad6f0   _APP_SD_au8Turkish_ta_head_dtmf
000ad6f4   _APP_SD_au8Turkish_ta_on
000ad6fc   _APP_SD_au8Turkish_ta_main_settings
000ad704   _APP_SD_au8Turkish_head_settings
000ad70c   _APP_SD_au8Turkish_ta_head_faxcall
000ad718   _APP_SD_au8Turkish_ta_call_handsfree
000ad728   _APP_SD_au8Turkish_ta_function_restriction
000ad748   _APP_SD_au8Turkish_ta_note_visible
000ad768   _APP_SD_au8Turkish_ta_note_info_call
000ad798   _APP_SD_au8Turkish_ta_note_service_call
000ad7c4   _APP_SD_au8Turkish_ta_bt_paired_devices
000ad7d4   _APP_SD_au8Turkish_paired_head_devices
000ad7e4   _APP_SD_au8Turkish_ta_note_sos_call
000ad810   _APP_SD_au8Turkish_ta_note_deleted
000ad818   _APP_SD_au8Turkish_ta_note_user_deleted
000ad824   _APP_SD_au8Turkish_head_device_list
000ad830   _APP_SD_au8Turkish_ta_replace
000ad83c   _APP_SD_au8Turkish_ta_call_end_active
000ad84c   _APP_SD_au8Turkish_ta_disconnected
000ad858   _APP_SD_au8Turkish_ta_call_hold
000ad860   _APP_SD_au8Turkish_ta_bt_headset
000ad870   _APP_SD_au8Turkish_head_headset
000ad880   _APP_SD_au8Turkish_ta_time_value
000ad888   _APP_SD_au8Turkish_ta_menu_bt_help
000ad890   _APP_SD_au8Turkish_ta_always
000ad89c   _APP_SD_au8Turkish_ta_call_info
000ad8ac   _APP_SD_au8Turkish_ta_note_no_user
000ad8e8   _APP_SD_au8Turkish_ta_note_no_bt_phone
000ad900   _APP_SD_au8Turkish_ta_note_no_act_device
000ad918   _APP_SD_au8Turkish_ta_note_no_phone
000ad934   _APP_SD_au8Turkish_ta_note_no_accessory
000ad958   _APP_SD_au8Turkish_ta_note_no_bt_conn_acc
000ad974   _APP_SD_au8Turkish_ta_note_no_bt_conn_rsap
000ad99c   _APP_SD_au8Turkish_ta_note_no_entries
000ad9b8   _APP_SD_au8Turkish_ta_note_no_paired_dev
000ad9c8   _APP_SD_au8Turkish_ta_note_no_sms
000ad9e4   _APP_SD_au8Turkish_ta_note_no_network
000ad9fc   _APP_SD_au8Turkish_ta_menu_no_nbr
000ada08   _APP_SD_au8Turkish_ta_note_no_nbr
000ada1c   _APP_SD_au8Turkish_ta_note_mailbox_no
000ada4c   _APP_SD_au8Turkish_ta_no_media_player_found
000ada70   _APP_SD_au8Turkish_ta_call_waiting
000ada7c   _APP_SD_au8Turkish_ta_head_conference
000ada88   _APP_SD_au8Turkish_ta_head_conference_hold
000adaa0   _APP_SD_au8Turkish_ta_note_conf_not_poss
000adab8   _APP_SD_au8Turkish_ta_conference
000adac4   _APP_SD_au8Turkish_ta_note_copy_sms_failed
000adae0   _APP_SD_au8Turkish_ta_err_load_phonebook
000adb04   _APP_SD_au8Turkish_ta_call_silent
000adb0c   _APP_SD_au8Turkish_ta_head_stack_dialled
000adb14   _APP_SD_au8Turkish_ta_stack_dialled
000adb1c   _APP_SD_au8Turkish_ta_stack_clear
000adb2c   _APP_SD_au8Turkish_ta_menu_delete
000adb30   _APP_SD_au8Turkish_ta_note_sms_not_deleted
000adb48   _APP_SD_au8Turkish_ta_note_delete_impos_phone_active
000adb7c   _APP_SD_au8Turkish_ta_query_del_device
000adb80   _APP_SD_au8Turkish_ta_query_delete_user
000adb88   _APP_SD_au8Turkish_ta_call_swap
000adb90   _APP_SD_au8Turkish_ta_media_player
000adb9c   _APP_SD_au8Turkish_ta_head_media_player
000adba8   _APP_SD_au8Turkish_ta_main_menu
000adbb0   _APP_SD_au8Turkish_ta_call_micro_off
000adbc0   _APP_SD_au8Turkish_ta_call_micro_on
000adbd0   _APP_SD_au8Turkish_ta_head_sms
000adbd8   _APP_SD_au8Turkish_ta_note_sms_deleted
000adbe4   _APP_SD_au8Turkish_ta_note_sms_no_read
000adbf8   _APP_SD_au8Turkish_ta_query_delete_sms
000adc04   _APP_SD_au8Turkish_ta_head_sms_from
000adc18   _APP_SD_au8Turkish_ta_note_reading_sms
000adc24   _APP_SD_au8Turkish_ta_main_messages
000adc2c   _APP_SD_au8Turkish_head_messages
000adc34   _APP_SD_au8Turkish_ta_note_no_rsap
000adc4c   _APP_SD_au8Turkish_ta_note_search_phones
000adc74   _APP_SD_au8Turkish_ta_pb_sort_lastname
000adc7c   _APP_SD_au8Turkish_ta_note_name_exists
000adc94   _APP_SD_au8Turkish_ta_note_name_stored
000adca4   _APP_SD_au8Turkish_ta_note_network_busy
000adcbc   _APP_SD_au8Turkish_new_sms
000adcc8   _APP_SD_au8Turkish_ta_note_conn_err
000adcd8   _APP_SD_au8Turkish_ta_note_new_sms
000adce4   _APP_SD_au8Turkish_ta_menu_new_user
000adcf4   _APP_SD_au8Turkish_ta_note_new_phone_found
000add10   _APP_SD_au8Turkish_ta_note_new_pb_available
000add2c   _APP_SD_au8Turkish_ta_supp_not_possible
000add3c   _APP_SD_au8Turkish_ta_number
000add44   _APP_SD_au8Turkish_ta_head_dial_nbr
000add50   _APP_SD_au8Turkish_ta_main_dial
000add5c   _APP_SD_au8Turkish_ta_calls_only
000add70   _APP_SD_au8Turkish_ta_menu_ok
000add78   _APP_SD_au8Turkish_ta_call_service
000add90   _APP_SD_au8Turkish_ta_call_sos
000add9c   _APP_SD_au8Turkish_ta_head_passkey
000adda4   _APP_SD_au8Turkish_ta_note_searching_players
000addc8   _APP_SD_au8Turkish_ta_note_connecting_player
000adddc   _APP_SD_au8Turkish_ta_private_call
000addec   _APP_SD_au8Turkish_ta_head_private_call
000addfc   _APP_SD_au8Turkish_ta_sms_call
000ade08   _APP_SD_au8Turkish_ta_head_call_setup
000ade10   _APP_SD_au8Turkish_ta_note_invalid_number
000ade20   _APP_SD_au8Turkish_ta_head_number
000ade30   _APP_SD_au8Turkish_ta_setting_tone
000ade38   _APP_SD_au8Turkish_ta_sms_concatenated
000ade50   _APP_SD_au8Turkish_ta_sms_time
000ade60   _APP_SD_au8Turkish_ta_note_service_not_supp
000ade78   _APP_SD_au8Turkish_ta_bt_visibility
000ade88   _APP_SD_au8Turkish_ta_query_visibility
000adea0   _APP_SD_au8Turkish_ta_setting_signals
000adeb0   _APP_SD_au8Turkish_ta_head_setting_signals
000adec0   _APP_SD_au8Turkish_ta_head_sorting_order
000adec8   _APP_SD_au8Turkish_ta_sorting_order
000aded0   _APP_SD_au8Turkish_ta_note_tag_no_memory
000adefc   _APP_SD_au8Turkish_ta_menu_save
000adf04   _APP_SD_au8Turkish_ta_backspace
000adf08   _APP_SD_au8Turkish_ta_note_voice_not_ready
000adf30   _APP_SD_au8Turkish_ta_note_voice_active
000adf48   _APP_SD_au8Turkish_ta_main_mailbox
000adf54   _APP_SD_au8Turkish_ta_head_mailbox
000adf64   _APP_SD_au8Turkish_ta_search
000adf68   _APP_SD_au8Turkish_ta_note_pb_refresh_impos
000adf90   _APP_SD_au8Turkish_ta_head_phone
000adf98   _APP_SD_au8Turkish_ta_note_enter_cradle
000adfc8   _APP_SD_au8Turkish_ta_note_phone_initiated
000adfec   _APP_SD_au8Turkish_ta_phone_book
000adffc   _APP_SD_au8Turkish_ta_head_phone_book
000ae00c   _APP_SD_au8Turkish_ta_note_pb_load_error
000ae028   _APP_SD_au8Turkish_ta_note_call_estab_failed
000ae03c   _APP_SD_au8Turkish_ta_note_pb_not_complete
000ae060   _APP_SD_au8Turkish_ta_note_pbook_loading
000ae084   _APP_SD_au8Turkish_ta_note_pb_loading_all
000ae0a0   _APP_SD_au8Turkish_ta_bt_own_name
000ae0ac   _APP_SD_au8Turkish_ta_head_phone_name
000ae0bc   _APP_SD_au8Turkish_ta_phone_search
000ae0cc   _APP_SD_au8Turkish_ta_bt_disconnect
000ae0d4   _APP_SD_au8Turkish_ta_bt_rename
000ae0e8   _APP_SD_au8Turkish_ta_switch
000ae0f0   _APP_SD_au8Turkish_ta_connect
000ae0f8   _APP_SD_au8Turkish_ta_query_connect
000ae108   _APP_SD_au8Turkish_ta_note_conn_terminated
000ae11c   _APP_SD_au8Turkish_ta_note_bt_no_conn
000ae134   _APP_SD_au8Turkish_ta_note_bt_conn_setup
000ae148   _APP_SD_au8Turkish_ta_note_connected
000ae158   _APP_SD_au8Turkish_ta_note_bt_acc_conn
000ae180   _APP_SD_au8Turkish_ta_read_out_sms
000ae188   _APP_SD_au8Turkish_ta_pb_sort_firstname
000ae190   _APP_SD_au8Turkish_ta_note_wait_reply
000ae1a0   _APP_SD_au8Turkish_ta_tag_play
000ae1a8   _APP_SD_au8Turkish_ta_menu_view
000ae1b0   _APP_SD_au8Turkish_ta_bt_accessory
000ae1c0   _APP_SD_au8Turkish_ta_wait_bt_acc_search
000ae1ec   _APP_SD_au8Turkish_ta_help_text
000ae2f8   _APP_SD_au8Turkish_ta_list_back
000ae2fc   _APP_SD_au8Turkish_ta_phone_no_answer
000ae318   _APP_SD_au8Turkish_ta_confirm_pw_with_OK
000ae338   _APP_SD_au8Turkish_ta_confirm_pw_in_device
000ae350   _APP_SD_au8Norwegian_ta_time_am
000ae360   _APP_SD_au8Norwegian_ta_time_pm
000ae370   _APP_SD_au8Norwegian_ta_call_diverted
000ae380   _APP_SD_au8Norwegian_ta_time_standard
000ae390   _APP_SD_au8Norwegian_ta_menu_cancel
000ae398   _APP_SD_au8Norwegian_ta_call_reject
000ae3a0   _APP_SD_au8Norwegian_ta_note_ignition
000ae3c8   _APP_SD_au8Norwegian_ta_query_del_act_device
000ae3d8   _APP_SD_au8Norwegian_ta_query_del_act_user
000ae3e8   _APP_SD_au8Norwegian_ta_head_call_active
000ae3f4   _APP_SD_au8Norwegian_ta_head_active_tone
000ae404   _APP_SD_au8Norwegian_ta_bt_active_device
000ae414   _APP_SD_au8Norwegian_ta_call_resume
000ae41c   _APP_SD_au8Norwegian_ta_pb_download
000ae424   _APP_SD_au8Norwegian_ta_query_terminate_conn
000ae440   _APP_SD_au8Norwegian_ta_query_delete_log
000ae458   _APP_SD_au8Norwegian_ta_music_paused
000ae47c   _APP_SD_au8Norwegian_ta_call_end_all
000ae488   _APP_SD_au8Norwegian_ta_stack_received
000ae490   _APP_SD_au8Norwegian_ta_note_bt_passkey_err
000ae4a8   _APP_SD_au8Norwegian_ta_call_accept
000ae4b0   _APP_SD_au8Norwegian_ta_head_stack_received
000ae4b8   _APP_SD_au8Norwegian_ta_head_stack_missed
000ae4c8   _APP_SD_au8Norwegian_ta_stack_missed
000ae4d4   _APP_SD_au8Norwegian_ta_head_call
000ae4dc   _APP_SD_au8Norwegian_ta_head_incoming_call
000ae4e4   _APP_SD_au8Norwegian_ta_call_call1
000ae4ec   _APP_SD_au8Norwegian_ta_head_call1
000ae4f4   _APP_SD_au8Norwegian_ta_call_call2
000ae4fc   _APP_SD_au8Norwegian_ta_head_call2
000ae504   _APP_SD_au8Norwegian_ta_end_call
000ae514   _APP_SD_au8Norwegian_ta_head_call_hold
000ae524   _APP_SD_au8Norwegian_ta_note_missed_call
000ae534   _APP_SD_au8Norwegian_ta_head_call_waiting
000ae540   _APP_SD_au8Norwegian_ta_head_calls
000ae54c   _APP_SD_au8Norwegian_ta_menu_call
000ae550   _APP_SD_au8Norwegian_ta_main_callstacks
000ae55c   _APP_SD_au8Norwegian_call_head_register
000ae568   _APP_SD_au8Norwegian_ta_note_stacks_cleared
000ae580   _APP_SD_au8Norwegian_ta_head_nametag
000ae58c   _APP_SD_au8Norwegian_ta_pb_nametag
000ae598   _APP_SD_au8Norwegian_ta_note_read_voice_tag
000ae5b0   _APP_SD_au8Norwegian_ta_note_voice_tag_reset
000ae5c8   _APP_SD_au8Norwegian_ta_head_reset_voice_tag
000ae5dc   _APP_SD_au8Norwegian_ta_sw_info
000ae5e4   _APP_SD_au8Norwegian_ta_menu_show
000ae5e8   _APP_SD_au8Norwegian_ta_voice_tag_reset
000ae5f4   _APP_SD_au8Norwegian_ta_audio_mode
000ae600   _APP_SD_au8Norwegian_head_audio_mode
000ae60c   _APP_SD_au8Norwegian_ta_call_end
000ae614   _APP_SD_au8Norwegian_ta_tag_record
000ae61c   _APP_SD_au8Norwegian_ta_off
000ae620   _APP_SD_au8Norwegian_ta_head_options
000ae62c   _APP_SD_au8Norwegian_ta_menu_end
000ae634   _APP_SD_au8Norwegian_ta_menu_user
000ae63c   _APP_SD_au8Norwegian_head_user
000ae644   _APP_SD_au8Norwegian_ta_head_delete_user
000ae654   _APP_SD_au8Norwegian_ta_note_search_user
000ae668   _APP_SD_au8Norwegian_ta_head_user
000ae670   _APP_SD_au8Norwegian_ta_query_new_user
000ae684   _APP_SD_au8Norwegian_ta_note_new_user
000ae6a8   _APP_SD_au8Norwegian_ta_note_max_users
000ae6c8   _APP_SD_au8Norwegian_ta_note_user_connected
000ae6e0   _APP_SD_au8Norwegian_ta_note_number_busy
000ae6e8   _APP_SD_au8Norwegian_ta_note_user_not_created
000ae700   _APP_SD_au8Norwegian_ta_wait_general
000ae710   _APP_SD_au8Norwegian_ta_note_enter_number
000ae728   _APP_SD_au8Norwegian_ta_main_bluetooth
000ae734   _APP_SD_au8Norwegian_head_bluetooth
000ae740   _APP_SD_au8Norwegian_ta_bt_no_conn_headset
000ae774   _APP_SD_au8Norwegian_ta_note_bt_conn_impos
000ae7a8   _APP_SD_au8Norwegian_ta_time_format
000ae7b0   _APP_SD_au8Norwegian_ta_head_datacall
000ae7bc   _APP_SD_au8Norwegian_ta_date_value
000ae7cc   _APP_SD_au8Norwegian_ta_call_dtmf
000ae7d0   _APP_SD_au8Norwegian_ta_head_dtmf
000ae7d4   _APP_SD_au8Norwegian_ta_on
000ae7d8   _APP_SD_au8Norwegian_ta_main_settings
000ae7e8   _APP_SD_au8Norwegian_head_settings
000ae7f8   _APP_SD_au8Norwegian_ta_head_faxcall
000ae804   _APP_SD_au8Norwegian_ta_call_handsfree
000ae80c   _APP_SD_au8Norwegian_ta_function_restriction
000ae838   _APP_SD_au8Norwegian_ta_note_visible
000ae84c   _APP_SD_au8Norwegian_ta_note_info_call
000ae878   _APP_SD_au8Norwegian_ta_note_service_call
000ae8a4   _APP_SD_au8Norwegian_ta_bt_paired_devices
000ae8b4   _APP_SD_au8Norwegian_paired_head_devices
000ae8c4   _APP_SD_au8Norwegian_ta_note_sos_call
000ae8f0   _APP_SD_au8Norwegian_ta_note_deleted
000ae8f8   _APP_SD_au8Norwegian_ta_note_user_deleted
000ae904   _APP_SD_au8Norwegian_head_device_list
000ae910   _APP_SD_au8Norwegian_ta_replace
000ae918   _APP_SD_au8Norwegian_ta_call_end_active
000ae928   _APP_SD_au8Norwegian_ta_disconnected
000ae934   _APP_SD_au8Norwegian_ta_call_hold
000ae93c   _APP_SD_au8Norwegian_ta_bt_headset
000ae948   _APP_SD_au8Norwegian_head_headset
000ae954   _APP_SD_au8Norwegian_ta_time_value
000ae95c   _APP_SD_au8Norwegian_ta_menu_bt_help
000ae964   _APP_SD_au8Norwegian_ta_always
000ae96c   _APP_SD_au8Norwegian_ta_call_info
000ae978   _APP_SD_au8Norwegian_ta_note_no_user
000ae9a8   _APP_SD_au8Norwegian_ta_note_no_bt_phone
000ae9c8   _APP_SD_au8Norwegian_ta_note_no_act_device
000ae9e0   _APP_SD_au8Norwegian_ta_note_no_phone
000aea04   _APP_SD_au8Norwegian_ta_note_no_accessory
000aea1c   _APP_SD_au8Norwegian_ta_note_no_bt_conn_acc
000aea40   _APP_SD_au8Norwegian_ta_note_no_bt_conn_rsap
000aea6c   _APP_SD_au8Norwegian_ta_note_no_entries
000aea8c   _APP_SD_au8Norwegian_ta_note_no_paired_dev
000aeaa8   _APP_SD_au8Norwegian_ta_note_no_sms
000aeac4   _APP_SD_au8Norwegian_ta_note_no_network
000aeae0   _APP_SD_au8Norwegian_ta_menu_no_nbr
000aeae8   _APP_SD_au8Norwegian_ta_note_no_nbr
000aeaf4   _APP_SD_au8Norwegian_ta_note_mailbox_no
000aeb14   _APP_SD_au8Norwegian_ta_no_media_player_found
000aeb38   _APP_SD_au8Norwegian_ta_call_waiting
000aeb40   _APP_SD_au8Norwegian_ta_head_conference
000aeb4c   _APP_SD_au8Norwegian_ta_head_conference_hold
000aeb60   _APP_SD_au8Norwegian_ta_note_conf_not_poss
000aeb7c   _APP_SD_au8Norwegian_ta_conference
000aeb88   _APP_SD_au8Norwegian_ta_note_copy_sms_failed
000aeba0   _APP_SD_au8Norwegian_ta_err_load_phonebook
000aebbc   _APP_SD_au8Norwegian_ta_call_silent
000aebc0   _APP_SD_au8Norwegian_ta_head_stack_dialled
000aebc8   _APP_SD_au8Norwegian_ta_stack_dialled
000aebd0   _APP_SD_au8Norwegian_ta_stack_clear
000aebdc   _APP_SD_au8Norwegian_ta_menu_delete
000aebe4   _APP_SD_au8Norwegian_ta_note_sms_not_deleted
000aebfc   _APP_SD_au8Norwegian_ta_note_delete_impos_phone_active
000aec24   _APP_SD_au8Norwegian_ta_query_del_device
000aec2c   _APP_SD_au8Norwegian_ta_query_delete_user
000aec38   _APP_SD_au8Norwegian_ta_call_swap
000aec48   _APP_SD_au8Norwegian_ta_media_player
000aec54   _APP_SD_au8Norwegian_ta_head_media_player
000aec60   _APP_SD_au8Norwegian_ta_main_menu
000aec64   _APP_SD_au8Norwegian_ta_call_micro_off
000aec70   _APP_SD_au8Norwegian_ta_call_micro_on
000aec7c   _APP_SD_au8Norwegian_ta_head_sms
000aec84   _APP_SD_au8Norwegian_ta_note_sms_deleted
000aec98   _APP_SD_au8Norwegian_ta_note_sms_no_read
000aecac   _APP_SD_au8Norwegian_ta_query_delete_sms
000aecbc   _APP_SD_au8Norwegian_ta_head_sms_from
000aecc8   _APP_SD_au8Norwegian_ta_note_reading_sms
000aecdc   _APP_SD_au8Norwegian_ta_main_messages
000aece8   _APP_SD_au8Norwegian_head_messages
000aecf4   _APP_SD_au8Norwegian_ta_note_no_rsap
000aed14   _APP_SD_au8Norwegian_ta_note_search_phones
000aed3c   _APP_SD_au8Norwegian_ta_pb_sort_lastname
000aed48   _APP_SD_au8Norwegian_ta_note_name_exists
000aed60   _APP_SD_au8Norwegian_ta_note_name_stored
000aed70   _APP_SD_au8Norwegian_ta_note_network_busy
000aed84   _APP_SD_au8Norwegian_new_sms
000aed8c   _APP_SD_au8Norwegian_ta_note_conn_err
000aed9c   _APP_SD_au8Norwegian_ta_note_new_sms
000aeda8   _APP_SD_au8Norwegian_ta_menu_new_user
000aedb4   _APP_SD_au8Norwegian_ta_note_new_phone_found
000aedcc   _APP_SD_au8Norwegian_ta_note_new_pb_available
000aede8   _APP_SD_au8Norwegian_ta_supp_not_possible
000aedf4   _APP_SD_au8Norwegian_ta_number
000aedfc   _APP_SD_au8Norwegian_ta_head_dial_nbr
000aee08   _APP_SD_au8Norwegian_ta_main_dial
000aee14   _APP_SD_au8Norwegian_ta_calls_only
000aee24   _APP_SD_au8Norwegian_ta_menu_ok
000aee28   _APP_SD_au8Norwegian_ta_call_service
000aee34   _APP_SD_au8Norwegian_ta_call_sos
000aee3c   _APP_SD_au8Norwegian_ta_head_passkey
000aee44   _APP_SD_au8Norwegian_ta_note_searching_players
000aee68   _APP_SD_au8Norwegian_ta_note_connecting_player
000aee7c   _APP_SD_au8Norwegian_ta_private_call
000aee8c   _APP_SD_au8Norwegian_ta_head_private_call
000aee9c   _APP_SD_au8Norwegian_ta_sms_call
000aeea8   _APP_SD_au8Norwegian_ta_head_call_setup
000aeeb4   _APP_SD_au8Norwegian_ta_note_invalid_number
000aeec8   _APP_SD_au8Norwegian_ta_head_number
000aeed8   _APP_SD_au8Norwegian_ta_setting_tone
000aeee4   _APP_SD_au8Norwegian_ta_sms_concatenated
000aeef8   _APP_SD_au8Norwegian_ta_sms_time
000aef00   _APP_SD_au8Norwegian_ta_note_service_not_supp
000aef18   _APP_SD_au8Norwegian_ta_bt_visibility
000aef24   _APP_SD_au8Norwegian_ta_query_visibility
000aef38   _APP_SD_au8Norwegian_ta_setting_signals
000aef48   _APP_SD_au8Norwegian_ta_head_setting_signals
000aef5c   _APP_SD_au8Norwegian_ta_head_sorting_order
000aef68   _APP_SD_au8Norwegian_ta_sorting_order
000aef74   _APP_SD_au8Norwegian_ta_note_tag_no_memory
000aef90   _APP_SD_au8Norwegian_ta_menu_save
000aef98   _APP_SD_au8Norwegian_ta_backspace
000aefa0   _APP_SD_au8Norwegian_ta_note_voice_not_ready
000aefbc   _APP_SD_au8Norwegian_ta_note_voice_active
000aefd4   _APP_SD_au8Norwegian_ta_main_mailbox
000aefe4   _APP_SD_au8Norwegian_ta_head_mailbox
000aeff4   _APP_SD_au8Norwegian_ta_search
000aeff8   _APP_SD_au8Norwegian_ta_note_pb_refresh_impos
000af014   _APP_SD_au8Norwegian_ta_head_phone
000af01c   _APP_SD_au8Norwegian_ta_note_enter_cradle
000af03c   _APP_SD_au8Norwegian_ta_note_phone_initiated
000af060   _APP_SD_au8Norwegian_ta_phone_book
000af06c   _APP_SD_au8Norwegian_ta_head_phone_book
000af078   _APP_SD_au8Norwegian_ta_note_pb_load_error
000af094   _APP_SD_au8Norwegian_ta_note_call_estab_failed
000af09c   _APP_SD_au8Norwegian_ta_note_pb_not_complete
000af0c0   _APP_SD_au8Norwegian_ta_note_pbook_loading
000af0e4   _APP_SD_au8Norwegian_ta_note_pb_loading_all
000af0f8   _APP_SD_au8Norwegian_ta_bt_own_name
000af104   _APP_SD_au8Norwegian_ta_head_phone_name
000af110   _APP_SD_au8Norwegian_ta_phone_search
000af11c   _APP_SD_au8Norwegian_ta_bt_disconnect
000af124   _APP_SD_au8Norwegian_ta_bt_rename
000af130   _APP_SD_au8Norwegian_ta_switch
000af138   _APP_SD_au8Norwegian_ta_connect
000af144   _APP_SD_au8Norwegian_ta_query_connect
000af154   _APP_SD_au8Norwegian_ta_note_conn_terminated
000af168   _APP_SD_au8Norwegian_ta_note_bt_no_conn
000af180   _APP_SD_au8Norwegian_ta_note_bt_conn_setup
000af194   _APP_SD_au8Norwegian_ta_note_connected
000af1a0   _APP_SD_au8Norwegian_ta_note_bt_acc_conn
000af1c0   _APP_SD_au8Norwegian_ta_read_out_sms
000af1cc   _APP_SD_au8Norwegian_ta_pb_sort_firstname
000af1d4   _APP_SD_au8Norwegian_ta_note_wait_reply
000af1e4   _APP_SD_au8Norwegian_ta_tag_play
000af1ec   _APP_SD_au8Norwegian_ta_menu_view
000af1f0   _APP_SD_au8Norwegian_ta_bt_accessory
000af1fc   _APP_SD_au8Norwegian_ta_wait_bt_acc_search
000af224   _APP_SD_au8Norwegian_ta_help_text
000af308   _APP_SD_au8Norwegian_ta_list_back
000af310   _APP_SD_au8Norwegian_ta_phone_no_answer
000af328   _APP_SD_au8Norwegian_ta_confirm_pw_with_OK
000af340   _APP_SD_au8Norwegian_ta_confirm_pw_in_device
000af35c   _APP_SD_au8Polish_ta_time_am
000af36c   _APP_SD_au8Polish_ta_time_pm
000af37c   _APP_SD_au8Polish_ta_call_diverted
000af38c   _APP_SD_au8Polish_ta_time_standard
000af39c   _APP_SD_au8Polish_ta_menu_cancel
000af3a4   _APP_SD_au8Polish_ta_call_reject
000af3ac   _APP_SD_au8Polish_ta_note_ignition
000af3d4   _APP_SD_au8Polish_ta_query_del_act_device
000af3e4   _APP_SD_au8Polish_ta_query_del_act_user
000af3f4   _APP_SD_au8Polish_ta_head_call_active
000af404   _APP_SD_au8Polish_ta_head_active_tone
000af418   _APP_SD_au8Polish_ta_bt_active_device
000af428   _APP_SD_au8Polish_ta_call_resume
000af430   _APP_SD_au8Polish_ta_pb_download
000af43c   _APP_SD_au8Polish_ta_query_terminate_conn
000af458   _APP_SD_au8Polish_ta_query_delete_log
000af478   _APP_SD_au8Polish_ta_music_paused
000af494   _APP_SD_au8Polish_ta_call_end_all
000af4a4   _APP_SD_au8Polish_ta_stack_received
000af4ac   _APP_SD_au8Polish_ta_note_bt_passkey_err
000af4c0   _APP_SD_au8Polish_ta_call_accept
000af4c8   _APP_SD_au8Polish_ta_head_stack_received
000af4d0   _APP_SD_au8Polish_ta_head_stack_missed
000af4dc   _APP_SD_au8Polish_ta_stack_missed
000af4e8   _APP_SD_au8Polish_ta_head_call
000af4f4   _APP_SD_au8Polish_ta_head_incoming_call
000af500   _APP_SD_au8Polish_ta_call_call1
000af510   _APP_SD_au8Polish_ta_head_call1
000af520   _APP_SD_au8Polish_ta_call_call2
000af530   _APP_SD_au8Polish_ta_head_call2
000af540   _APP_SD_au8Polish_ta_end_call
000af550   _APP_SD_au8Polish_ta_head_call_hold
000af564   _APP_SD_au8Polish_ta_note_missed_call
000af57c   _APP_SD_au8Polish_ta_head_call_waiting
000af58c   _APP_SD_au8Polish_ta_head_calls
000af598   _APP_SD_au8Polish_ta_menu_call
000af5a0   _APP_SD_au8Polish_ta_main_callstacks
000af5b4   _APP_SD_au8Polish_call_head_register
000af5c8   _APP_SD_au8Polish_ta_note_stacks_cleared
000af5e4   _APP_SD_au8Polish_ta_head_nametag
000af5f4   _APP_SD_au8Polish_ta_pb_nametag
000af604   _APP_SD_au8Polish_ta_note_read_voice_tag
000af624   _APP_SD_au8Polish_ta_note_voice_tag_reset
000af640   _APP_SD_au8Polish_ta_head_reset_voice_tag
000af65c   _APP_SD_au8Polish_ta_sw_info
000af664   _APP_SD_au8Polish_ta_menu_show
000af66c   _APP_SD_au8Polish_ta_voice_tag_reset
000af678   _APP_SD_au8Polish_ta_audio_mode
000af684   _APP_SD_au8Polish_head_audio_mode
000af690   _APP_SD_au8Polish_ta_call_end
000af698   _APP_SD_au8Polish_ta_tag_record
000af6a0   _APP_SD_au8Polish_ta_off
000af6a8   _APP_SD_au8Polish_ta_head_options
000af6b0   _APP_SD_au8Polish_ta_menu_end
000af6b8   _APP_SD_au8Polish_ta_menu_user
000af6c4   _APP_SD_au8Polish_head_user
000af6d0   _APP_SD_au8Polish_ta_head_delete_user
000af6e4   _APP_SD_au8Polish_ta_note_search_user
000af700   _APP_SD_au8Polish_ta_head_user
000af70c   _APP_SD_au8Polish_ta_query_new_user
000af728   _APP_SD_au8Polish_ta_note_new_user
000af74c   _APP_SD_au8Polish_ta_note_max_users
000af76c   _APP_SD_au8Polish_ta_note_user_connected
000af780   _APP_SD_au8Polish_ta_note_number_busy
000af788   _APP_SD_au8Polish_ta_note_user_not_created
000af7a4   _APP_SD_au8Polish_ta_wait_general
000af7ac   _APP_SD_au8Polish_ta_note_enter_number
000af7c4   _APP_SD_au8Polish_ta_main_bluetooth
000af7d0   _APP_SD_au8Polish_head_bluetooth
000af7dc   _APP_SD_au8Polish_ta_bt_no_conn_headset
000af814   _APP_SD_au8Polish_ta_note_bt_conn_impos
000af848   _APP_SD_au8Polish_ta_time_format
000af850   _APP_SD_au8Polish_ta_head_datacall
000af860   _APP_SD_au8Polish_ta_date_value
000af86c   _APP_SD_au8Polish_ta_call_dtmf
000af870   _APP_SD_au8Polish_ta_head_dtmf
000af874   _APP_SD_au8Polish_ta_on
000af87c   _APP_SD_au8Polish_ta_main_settings
000af888   _APP_SD_au8Polish_head_settings
000af894   _APP_SD_au8Polish_ta_head_faxcall
000af898   _APP_SD_au8Polish_ta_call_handsfree
000af8a8   _APP_SD_au8Polish_ta_function_restriction
000af8cc   _APP_SD_au8Polish_ta_note_visible
000af8dc   _APP_SD_au8Polish_ta_note_info_call
000af910   _APP_SD_au8Polish_ta_note_service_call
000af948   _APP_SD_au8Polish_ta_bt_paired_devices
000af95c   _APP_SD_au8Polish_paired_head_devices
000af970   _APP_SD_au8Polish_ta_note_sos_call
000af998   _APP_SD_au8Polish_ta_note_deleted
000af9a4   _APP_SD_au8Polish_ta_note_user_deleted
000af9b0   _APP_SD_au8Polish_head_device_list
000af9c0   _APP_SD_au8Polish_ta_replace
000af9c8   _APP_SD_au8Polish_ta_call_end_active
000af9d8   _APP_SD_au8Polish_ta_disconnected
000af9e4   _APP_SD_au8Polish_ta_call_hold
000af9f8   _APP_SD_au8Polish_ta_bt_headset
000afa08   _APP_SD_au8Polish_head_headset
000afa18   _APP_SD_au8Polish_ta_time_value
000afa20   _APP_SD_au8Polish_ta_menu_bt_help
000afa28   _APP_SD_au8Polish_ta_always
000afa30   _APP_SD_au8Polish_ta_call_info
000afa44   _APP_SD_au8Polish_ta_note_no_user
000afa78   _APP_SD_au8Polish_ta_note_no_bt_phone
000afa98   _APP_SD_au8Polish_ta_note_no_act_device
000afabc   _APP_SD_au8Polish_ta_note_no_phone
000afae0   _APP_SD_au8Polish_ta_note_no_accessory
000afb04   _APP_SD_au8Polish_ta_note_no_bt_conn_acc
000afb24   _APP_SD_au8Polish_ta_note_no_bt_conn_rsap
000afb54   _APP_SD_au8Polish_ta_note_no_entries
000afb60   _APP_SD_au8Polish_ta_note_no_paired_dev
000afb7c   _APP_SD_au8Polish_ta_note_no_sms
000afb8c   _APP_SD_au8Polish_ta_note_no_network
000afba8   _APP_SD_au8Polish_ta_menu_no_nbr
000afbb0   _APP_SD_au8Polish_ta_note_no_nbr
000afbc0   _APP_SD_au8Polish_ta_note_mailbox_no
000afbe4   _APP_SD_au8Polish_ta_no_media_player_found
000afc0c   _APP_SD_au8Polish_ta_call_waiting
000afc18   _APP_SD_au8Polish_ta_head_conference
000afc24   _APP_SD_au8Polish_ta_head_conference_hold
000afc44   _APP_SD_au8Polish_ta_note_conf_not_poss
000afc64   _APP_SD_au8Polish_ta_conference
000afc70   _APP_SD_au8Polish_ta_note_copy_sms_failed
000afc9c   _APP_SD_au8Polish_ta_err_load_phonebook
000afcc0   _APP_SD_au8Polish_ta_call_silent
000afcd0   _APP_SD_au8Polish_ta_head_stack_dialled
000afcdc   _APP_SD_au8Polish_ta_stack_dialled
000afce8   _APP_SD_au8Polish_ta_stack_clear
000afcf4   _APP_SD_au8Polish_ta_menu_delete
000afcfc   _APP_SD_au8Polish_ta_note_sms_not_deleted
000afd14   _APP_SD_au8Polish_ta_note_delete_impos_phone_active
000afd40   _APP_SD_au8Polish_ta_query_del_device
000afd4c   _APP_SD_au8Polish_ta_query_delete_user
000afd58   _APP_SD_au8Polish_ta_call_swap
000afd64   _APP_SD_au8Polish_ta_media_player
000afd70   _APP_SD_au8Polish_ta_head_media_player
000afd7c   _APP_SD_au8Polish_ta_main_menu
000afd80   _APP_SD_au8Polish_ta_call_micro_off
000afd90   _APP_SD_au8Polish_ta_call_micro_on
000afda4   _APP_SD_au8Polish_ta_head_sms
000afdb0   _APP_SD_au8Polish_ta_note_sms_deleted
000afdc4   _APP_SD_au8Polish_ta_note_sms_no_read
000afde4   _APP_SD_au8Polish_ta_query_delete_sms
000afdfc   _APP_SD_au8Polish_ta_head_sms_from
000afe0c   _APP_SD_au8Polish_ta_note_reading_sms
000afe24   _APP_SD_au8Polish_ta_main_messages
000afe30   _APP_SD_au8Polish_head_messages
000afe3c   _APP_SD_au8Polish_ta_note_no_rsap
000afe60   _APP_SD_au8Polish_ta_note_search_phones
000afe7c   _APP_SD_au8Polish_ta_pb_sort_lastname
000afe84   _APP_SD_au8Polish_ta_note_name_exists
000afe98   _APP_SD_au8Polish_ta_note_name_stored
000afea8   _APP_SD_au8Polish_ta_note_network_busy
000afec0   _APP_SD_au8Polish_new_sms
000afec8   _APP_SD_au8Polish_ta_note_conn_err
000afed4   _APP_SD_au8Polish_ta_note_new_sms
000afee4   _APP_SD_au8Polish_ta_menu_new_user
000afef0   _APP_SD_au8Polish_ta_note_new_phone_found
000aff0c   _APP_SD_au8Polish_ta_note_new_pb_available
000aff28   _APP_SD_au8Polish_ta_supp_not_possible
000aff34   _APP_SD_au8Polish_ta_number
000aff3c   _APP_SD_au8Polish_ta_head_dial_nbr
000aff4c   _APP_SD_au8Polish_ta_main_dial
000aff5c   _APP_SD_au8Polish_ta_calls_only
000aff6c   _APP_SD_au8Polish_ta_menu_ok
000aff70   _APP_SD_au8Polish_ta_call_service
000aff80   _APP_SD_au8Polish_ta_call_sos
000aff84   _APP_SD_au8Polish_ta_head_passkey
000aff8c   _APP_SD_au8Polish_ta_note_searching_players
000affb8   _APP_SD_au8Polish_ta_note_connecting_player
000affd0   _APP_SD_au8Polish_ta_private_call
000affe0   _APP_SD_au8Polish_ta_head_private_call
000afff0   _APP_SD_au8Polish_ta_sms_call
000afff8   _APP_SD_au8Polish_ta_head_call_setup
000b0004   _APP_SD_au8Polish_ta_note_invalid_number
000b0018   _APP_SD_au8Polish_ta_head_number
000b0024   _APP_SD_au8Polish_ta_setting_tone
000b0034   _APP_SD_au8Polish_ta_sms_concatenated
000b004c   _APP_SD_au8Polish_ta_sms_time
000b005c   _APP_SD_au8Polish_ta_note_service_not_supp
000b0074   _APP_SD_au8Polish_ta_bt_visibility
000b0080   _APP_SD_au8Polish_ta_query_visibility
000b0098   _APP_SD_au8Polish_ta_setting_signals
000b00a8   _APP_SD_au8Polish_ta_head_setting_signals
000b00b8   _APP_SD_au8Polish_ta_head_sorting_order
000b00c0   _APP_SD_au8Polish_ta_sorting_order
000b00c8   _APP_SD_au8Polish_ta_note_tag_no_memory
000b00ec   _APP_SD_au8Polish_ta_menu_save
000b00f4   _APP_SD_au8Polish_ta_backspace
000b00fc   _APP_SD_au8Polish_ta_note_voice_not_ready
000b0124   _APP_SD_au8Polish_ta_note_voice_active
000b013c   _APP_SD_au8Polish_ta_main_mailbox
000b014c   _APP_SD_au8Polish_ta_head_mailbox
000b015c   _APP_SD_au8Polish_ta_search
000b0164   _APP_SD_au8Polish_ta_note_pb_refresh_impos
000b0194   _APP_SD_au8Polish_ta_head_phone
000b019c   _APP_SD_au8Polish_ta_note_enter_cradle
000b01b8   _APP_SD_au8Polish_ta_note_phone_initiated
000b01d8   _APP_SD_au8Polish_ta_phone_book
000b01e8   _APP_SD_au8Polish_ta_head_phone_book
000b01f8   _APP_SD_au8Polish_ta_note_pb_load_error
000b0220   _APP_SD_au8Polish_ta_note_call_estab_failed
000b0238   _APP_SD_au8Polish_ta_note_pb_not_complete
000b0264   _APP_SD_au8Polish_ta_note_pbook_loading
000b0288   _APP_SD_au8Polish_ta_note_pb_loading_all
000b02a8   _APP_SD_au8Polish_ta_bt_own_name
000b02b8   _APP_SD_au8Polish_ta_head_phone_name
000b02c8   _APP_SD_au8Polish_ta_phone_search
000b02d4   _APP_SD_au8Polish_ta_bt_disconnect
000b02e0   _APP_SD_au8Polish_ta_bt_rename
000b02f0   _APP_SD_au8Polish_ta_switch
000b02fc   _APP_SD_au8Polish_ta_connect
000b0304   _APP_SD_au8Polish_ta_query_connect
000b0314   _APP_SD_au8Polish_ta_note_conn_terminated
000b032c   _APP_SD_au8Polish_ta_note_bt_no_conn
000b0344   _APP_SD_au8Polish_ta_note_bt_conn_setup
000b0358   _APP_SD_au8Polish_ta_note_connected
000b0368   _APP_SD_au8Polish_ta_note_bt_acc_conn
000b0390   _APP_SD_au8Polish_ta_read_out_sms
000b039c   _APP_SD_au8Polish_ta_pb_sort_firstname
000b03a4   _APP_SD_au8Polish_ta_note_wait_reply
000b03bc   _APP_SD_au8Polish_ta_tag_play
000b03c4   _APP_SD_au8Polish_ta_menu_view
000b03cc   _APP_SD_au8Polish_ta_bt_accessory
000b03dc   _APP_SD_au8Polish_ta_wait_bt_acc_search
000b03fc   _APP_SD_au8Polish_ta_help_text
000b04fc   _APP_SD_au8Polish_ta_list_back
000b0504   _APP_SD_au8Polish_ta_phone_no_answer
000b0524   _APP_SD_au8Polish_ta_confirm_pw_with_OK
000b0544   _APP_SD_au8Polish_ta_confirm_pw_in_device
000b0564   _APP_SD_au8USSpanish_ta_time_am
000b0574   _APP_SD_au8USSpanish_ta_time_pm
000b0584   _APP_SD_au8USSpanish_ta_call_diverted
000b0590   _APP_SD_au8USSpanish_ta_time_standard
000b05a0   _APP_SD_au8USSpanish_ta_menu_cancel
000b05a8   _APP_SD_au8USSpanish_ta_call_reject
000b05b0   _APP_SD_au8USSpanish_ta_note_ignition
000b05e4   _APP_SD_au8USSpanish_ta_query_del_act_device
000b05f8   _APP_SD_au8USSpanish_ta_query_del_act_user
000b060c   _APP_SD_au8USSpanish_ta_head_call_active
000b061c   _APP_SD_au8USSpanish_ta_head_active_tone
000b062c   _APP_SD_au8USSpanish_ta_bt_active_device
000b063c   _APP_SD_au8USSpanish_ta_call_resume
000b0644   _APP_SD_au8USSpanish_ta_pb_download
000b0650   _APP_SD_au8USSpanish_ta_query_terminate_conn
000b0660   _APP_SD_au8USSpanish_ta_query_delete_log
000b067c   _APP_SD_au8USSpanish_ta_music_paused
000b069c   _APP_SD_au8USSpanish_ta_call_end_all
000b06ac   _APP_SD_au8USSpanish_ta_stack_received
000b06bc   _APP_SD_au8USSpanish_ta_note_bt_passkey_err
000b06cc   _APP_SD_au8USSpanish_ta_call_accept
000b06d8   _APP_SD_au8USSpanish_ta_head_stack_received
000b06e8   _APP_SD_au8USSpanish_ta_head_stack_missed
000b06f8   _APP_SD_au8USSpanish_ta_stack_missed
000b0708   _APP_SD_au8USSpanish_ta_head_call
000b0710   _APP_SD_au8USSpanish_ta_head_incoming_call
000b0720   _APP_SD_au8USSpanish_ta_call_call1
000b072c   _APP_SD_au8USSpanish_ta_head_call1
000b0738   _APP_SD_au8USSpanish_ta_call_call2
000b0744   _APP_SD_au8USSpanish_ta_head_call2
000b0750   _APP_SD_au8USSpanish_ta_end_call
000b0758   _APP_SD_au8USSpanish_ta_head_call_hold
000b0768   _APP_SD_au8USSpanish_ta_note_missed_call
000b0778   _APP_SD_au8USSpanish_ta_head_call_waiting
000b0788   _APP_SD_au8USSpanish_ta_head_calls
000b0790   _APP_SD_au8USSpanish_ta_menu_call
000b0798   _APP_SD_au8USSpanish_ta_main_callstacks
000b07a8   _APP_SD_au8USSpanish_call_head_register
000b07b8   _APP_SD_au8USSpanish_ta_note_stacks_cleared
000b07d4   _APP_SD_au8USSpanish_ta_head_nametag
000b07e4   _APP_SD_au8USSpanish_ta_pb_nametag
000b07f4   _APP_SD_au8USSpanish_ta_note_read_voice_tag
000b0808   _APP_SD_au8USSpanish_ta_note_voice_tag_reset
000b0818   _APP_SD_au8USSpanish_ta_head_reset_voice_tag
000b0828   _APP_SD_au8USSpanish_ta_sw_info
000b0830   _APP_SD_au8USSpanish_ta_menu_show
000b0838   _APP_SD_au8USSpanish_ta_voice_tag_reset
000b0840   _APP_SD_au8USSpanish_ta_audio_mode
000b084c   _APP_SD_au8USSpanish_head_audio_mode
000b0858   _APP_SD_au8USSpanish_ta_call_end
000b0860   _APP_SD_au8USSpanish_ta_tag_record
000b0868   _APP_SD_au8USSpanish_ta_off
000b0874   _APP_SD_au8USSpanish_ta_head_options
000b087c   _APP_SD_au8USSpanish_ta_menu_end
000b0888   _APP_SD_au8USSpanish_ta_menu_user
000b0890   _APP_SD_au8USSpanish_head_user
000b0898   _APP_SD_au8USSpanish_ta_head_delete_user
000b08a8   _APP_SD_au8USSpanish_ta_note_search_user
000b08bc   _APP_SD_au8USSpanish_ta_head_user
000b08c4   _APP_SD_au8USSpanish_ta_query_new_user
000b08dc   _APP_SD_au8USSpanish_ta_note_new_user
000b0900   _APP_SD_au8USSpanish_ta_note_max_users
000b0924   _APP_SD_au8USSpanish_ta_note_user_connected
000b0934   _APP_SD_au8USSpanish_ta_note_number_busy
000b093c   _APP_SD_au8USSpanish_ta_note_user_not_created
000b094c   _APP_SD_au8USSpanish_ta_wait_general
000b095c   _APP_SD_au8USSpanish_ta_note_enter_number
000b097c   _APP_SD_au8USSpanish_ta_main_bluetooth
000b0988   _APP_SD_au8USSpanish_head_bluetooth
000b0994   _APP_SD_au8USSpanish_ta_bt_no_conn_headset
000b09c0   _APP_SD_au8USSpanish_ta_note_bt_conn_impos
000b09f0   _APP_SD_au8USSpanish_ta_time_format
000b09f8   _APP_SD_au8USSpanish_ta_head_datacall
000b0a08   _APP_SD_au8USSpanish_ta_date_value
000b0a14   _APP_SD_au8USSpanish_ta_call_dtmf
000b0a18   _APP_SD_au8USSpanish_ta_head_dtmf
000b0a1c   _APP_SD_au8USSpanish_ta_on
000b0a28   _APP_SD_au8USSpanish_ta_main_settings
000b0a30   _APP_SD_au8USSpanish_head_settings
000b0a38   _APP_SD_au8USSpanish_ta_head_faxcall
000b0a3c   _APP_SD_au8USSpanish_ta_call_handsfree
000b0a48   _APP_SD_au8USSpanish_ta_function_restriction
000b0a70   _APP_SD_au8USSpanish_ta_note_visible
000b0a88   _APP_SD_au8USSpanish_ta_note_info_call
000b0ac0   _APP_SD_au8USSpanish_ta_note_service_call
000b0af8   _APP_SD_au8USSpanish_ta_bt_paired_devices
000b0b08   _APP_SD_au8USSpanish_paired_head_devices
000b0b18   _APP_SD_au8USSpanish_ta_note_sos_call
000b0b50   _APP_SD_au8USSpanish_ta_note_deleted
000b0b58   _APP_SD_au8USSpanish_ta_note_user_deleted
000b0b64   _APP_SD_au8USSpanish_head_device_list
000b0b74   _APP_SD_au8USSpanish_ta_replace
000b0b80   _APP_SD_au8USSpanish_ta_call_end_active
000b0b88   _APP_SD_au8USSpanish_ta_disconnected
000b0ba0   _APP_SD_au8USSpanish_ta_call_hold
000b0ba8   _APP_SD_au8USSpanish_ta_bt_headset
000b0bb4   _APP_SD_au8USSpanish_head_headset
000b0bc0   _APP_SD_au8USSpanish_ta_time_value
000b0bc8   _APP_SD_au8USSpanish_ta_menu_bt_help
000b0bd0   _APP_SD_au8USSpanish_ta_always
000b0bd8   _APP_SD_au8USSpanish_ta_call_info
000b0be8   _APP_SD_au8USSpanish_ta_note_no_user
000b0c1c   _APP_SD_au8USSpanish_ta_note_no_bt_phone
000b0c38   _APP_SD_au8USSpanish_ta_note_no_act_device
000b0c50   _APP_SD_au8USSpanish_ta_note_no_phone
000b0c6c   _APP_SD_au8USSpanish_ta_note_no_accessory
000b0c80   _APP_SD_au8USSpanish_ta_note_no_bt_conn_acc
000b0c9c   _APP_SD_au8USSpanish_ta_note_no_bt_conn_rsap
000b0ccc   _APP_SD_au8USSpanish_ta_note_no_entries
000b0ce4   _APP_SD_au8USSpanish_ta_note_no_paired_dev
000b0cfc   _APP_SD_au8USSpanish_ta_note_no_sms
000b0d0c   _APP_SD_au8USSpanish_ta_note_no_network
000b0d20   _APP_SD_au8USSpanish_ta_menu_no_nbr
000b0d2c   _APP_SD_au8USSpanish_ta_note_no_nbr
000b0d38   _APP_SD_au8USSpanish_ta_note_mailbox_no
000b0d60   _APP_SD_au8USSpanish_ta_no_media_player_found
000b0d88   _APP_SD_au8USSpanish_ta_call_waiting
000b0d94   _APP_SD_au8USSpanish_ta_head_conference
000b0da4   _APP_SD_au8USSpanish_ta_head_conference_hold
000b0dbc   _APP_SD_au8USSpanish_ta_note_conf_not_poss
000b0de0   _APP_SD_au8USSpanish_ta_conference
000b0df0   _APP_SD_au8USSpanish_ta_note_copy_sms_failed
000b0e08   _APP_SD_au8USSpanish_ta_err_load_phonebook
000b0e2c   _APP_SD_au8USSpanish_ta_call_silent
000b0e34   _APP_SD_au8USSpanish_ta_head_stack_dialled
000b0e44   _APP_SD_au8USSpanish_ta_stack_dialled
000b0e54   _APP_SD_au8USSpanish_ta_stack_clear
000b0e64   _APP_SD_au8USSpanish_ta_menu_delete
000b0e6c   _APP_SD_au8USSpanish_ta_note_sms_not_deleted
000b0e84   _APP_SD_au8USSpanish_ta_note_delete_impos_phone_active
000b0eb0   _APP_SD_au8USSpanish_ta_query_del_device
000b0ebc   _APP_SD_au8USSpanish_ta_query_delete_user
000b0ec8   _APP_SD_au8USSpanish_ta_call_swap
000b0ed8   _APP_SD_au8USSpanish_ta_media_player
000b0ee8   _APP_SD_au8USSpanish_ta_head_media_player
000b0ef8   _APP_SD_au8USSpanish_ta_main_menu
000b0f00   _APP_SD_au8USSpanish_ta_call_micro_off
000b0f14   _APP_SD_au8USSpanish_ta_call_micro_on
000b0f24   _APP_SD_au8USSpanish_ta_head_sms
000b0f2c   _APP_SD_au8USSpanish_ta_note_sms_deleted
000b0f3c   _APP_SD_au8USSpanish_ta_note_sms_no_read
000b0f58   _APP_SD_au8USSpanish_ta_query_delete_sms
000b0f68   _APP_SD_au8USSpanish_ta_head_sms_from
000b0f74   _APP_SD_au8USSpanish_ta_note_reading_sms
000b0f8c   _APP_SD_au8USSpanish_ta_main_messages
000b0f94   _APP_SD_au8USSpanish_head_messages
000b0f9c   _APP_SD_au8USSpanish_ta_note_no_rsap
000b0fbc   _APP_SD_au8USSpanish_ta_note_search_phones
000b0fe0   _APP_SD_au8USSpanish_ta_pb_sort_lastname
000b0fec   _APP_SD_au8USSpanish_ta_note_name_exists
000b1000   _APP_SD_au8USSpanish_ta_note_name_stored
000b1010   _APP_SD_au8USSpanish_ta_note_network_busy
000b101c   _APP_SD_au8USSpanish_new_sms
000b1028   _APP_SD_au8USSpanish_ta_note_conn_err
000b1038   _APP_SD_au8USSpanish_ta_note_new_sms
000b1048   _APP_SD_au8USSpanish_ta_menu_new_user
000b1058   _APP_SD_au8USSpanish_ta_note_new_phone_found
000b1070   _APP_SD_au8USSpanish_ta_note_new_pb_available
000b1088   _APP_SD_au8USSpanish_ta_supp_not_possible
000b1094   _APP_SD_au8USSpanish_ta_number
000b109c   _APP_SD_au8USSpanish_ta_head_dial_nbr
000b10a8   _APP_SD_au8USSpanish_ta_main_dial
000b10b4   _APP_SD_au8USSpanish_ta_calls_only
000b10c4   _APP_SD_au8USSpanish_ta_menu_ok
000b10c8   _APP_SD_au8USSpanish_ta_call_service
000b10dc   _APP_SD_au8USSpanish_ta_call_sos
000b10ec   _APP_SD_au8USSpanish_ta_head_passkey
000b10f8   _APP_SD_au8USSpanish_ta_note_searching_players
000b1118   _APP_SD_au8USSpanish_ta_note_connecting_player
000b1134   _APP_SD_au8USSpanish_ta_private_call
000b1144   _APP_SD_au8USSpanish_ta_head_private_call
000b1154   _APP_SD_au8USSpanish_ta_sms_call
000b115c   _APP_SD_au8USSpanish_ta_head_call_setup
000b1164   _APP_SD_au8USSpanish_ta_note_invalid_number
000b1184   _APP_SD_au8USSpanish_ta_head_number
000b118c   _APP_SD_au8USSpanish_ta_setting_tone
000b119c   _APP_SD_au8USSpanish_ta_sms_concatenated
000b11b4   _APP_SD_au8USSpanish_ta_sms_time
000b11c4   _APP_SD_au8USSpanish_ta_note_service_not_supp
000b11dc   _APP_SD_au8USSpanish_ta_bt_visibility
000b11e8   _APP_SD_au8USSpanish_ta_query_visibility
000b1200   _APP_SD_au8USSpanish_ta_setting_signals
000b1210   _APP_SD_au8USSpanish_ta_head_setting_signals
000b1220   _APP_SD_au8USSpanish_ta_head_sorting_order
000b1228   _APP_SD_au8USSpanish_ta_sorting_order
000b1230   _APP_SD_au8USSpanish_ta_note_tag_no_memory
000b1250   _APP_SD_au8USSpanish_ta_menu_save
000b1258   _APP_SD_au8USSpanish_ta_backspace
000b1260   _APP_SD_au8USSpanish_ta_note_voice_not_ready
000b1284   _APP_SD_au8USSpanish_ta_note_voice_active
000b12a0   _APP_SD_au8USSpanish_ta_main_mailbox
000b12b0   _APP_SD_au8USSpanish_ta_head_mailbox
000b12c0   _APP_SD_au8USSpanish_ta_search
000b12cc   _APP_SD_au8USSpanish_ta_note_pb_refresh_impos
000b12f4   _APP_SD_au8USSpanish_ta_head_phone
000b1300   _APP_SD_au8USSpanish_ta_note_enter_cradle
000b1330   _APP_SD_au8USSpanish_ta_note_phone_initiated
000b1350   _APP_SD_au8USSpanish_ta_phone_book
000b135c   _APP_SD_au8USSpanish_ta_head_phone_book
000b1364   _APP_SD_au8USSpanish_ta_note_pb_load_error
000b1388   _APP_SD_au8USSpanish_ta_note_call_estab_failed
000b13a8   _APP_SD_au8USSpanish_ta_note_pb_not_complete
000b13d0   _APP_SD_au8USSpanish_ta_note_pbook_loading
000b13f0   _APP_SD_au8USSpanish_ta_note_pb_loading_all
000b140c   _APP_SD_au8USSpanish_ta_bt_own_name
000b141c   _APP_SD_au8USSpanish_ta_head_phone_name
000b142c   _APP_SD_au8USSpanish_ta_phone_search
000b143c   _APP_SD_au8USSpanish_ta_bt_disconnect
000b1448   _APP_SD_au8USSpanish_ta_bt_rename
000b1454   _APP_SD_au8USSpanish_ta_switch
000b145c   _APP_SD_au8USSpanish_ta_connect
000b1464   _APP_SD_au8USSpanish_ta_query_connect
000b1478   _APP_SD_au8USSpanish_ta_note_conn_terminated
000b1490   _APP_SD_au8USSpanish_ta_note_bt_no_conn
000b14a4   _APP_SD_au8USSpanish_ta_note_bt_conn_setup
000b14b4   _APP_SD_au8USSpanish_ta_note_connected
000b14c4   _APP_SD_au8USSpanish_ta_note_bt_acc_conn
000b14e8   _APP_SD_au8USSpanish_ta_read_out_sms
000b14f4   _APP_SD_au8USSpanish_ta_pb_sort_firstname
000b14fc   _APP_SD_au8USSpanish_ta_note_wait_reply
000b1514   _APP_SD_au8USSpanish_ta_tag_play
000b151c   _APP_SD_au8USSpanish_ta_menu_view
000b1524   _APP_SD_au8USSpanish_ta_bt_accessory
000b1530   _APP_SD_au8USSpanish_ta_wait_bt_acc_search
000b1550   _APP_SD_au8USSpanish_ta_help_text
000b1634   _APP_SD_au8USSpanish_ta_list_back
000b163c   _APP_SD_au8USSpanish_ta_phone_no_answer
000b1658   _APP_SD_au8USSpanish_ta_confirm_pw_with_OK
000b1670   _APP_SD_au8USSpanish_ta_confirm_pw_in_device
000b1694   _APP_SD_a2stStaticTexts
000bae94   _APP_SD_a2stStaticTextLens
000bfa94   _APP_SD_au8English_ta_find_mailbox_1
000bfaa0   _APP_SD_au8English_ta_find_mailbox_2
000bfaa8   _APP_SD_au8English_ta_find_mailbox_3
000bfab8   _APP_SD_au8English_ta_find_mailbox_4
000bfac4   _APP_SD_au8German_ta_find_mailbox_1
000bfad4   _APP_SD_au8German_ta_find_mailbox_2
000bfadc   _APP_SD_au8German_ta_find_mailbox_3
000bfaf0   _APP_SD_au8German_ta_find_mailbox_4
000bfb00   _APP_SD_au8Czech_ta_find_mailbox_1
000bfb14   _APP_SD_au8Czech_ta_find_mailbox_2
000bfb24   _APP_SD_au8Czech_ta_find_mailbox_3
000bfb30   _APP_SD_au8Czech_ta_find_mailbox_4
000bfb38   _APP_SD_au8Czech_ta_find_mailbox_5
000bfb40   _APP_SD_au8Spanish_ta_find_mailbox_1
000bfb50   _APP_SD_au8Spanish_ta_find_mailbox_2
000bfb60   _APP_SD_au8Italian_ta_find_mailbox_1
000bfb70   _APP_SD_au8French_ta_find_mailbox_1
000bfb84   _APP_SD_au8French_ta_find_mailbox_2
000bfb94   _APP_SD_au8Portugese_ta_find_mailbox_1
000bfba8   _APP_SD_au8USEnglish_ta_find_mailbox_1
000bfbb4   _APP_SD_au8USEnglish_ta_find_mailbox_2
000bfbbc   _APP_SD_au8USEnglish_ta_find_mailbox_3
000bfbcc   _APP_SD_au8USEnglish_ta_find_mailbox_4
000bfbd8   _APP_SD_au8Russian_ta_find_mailbox_1
000bfbf4   _APP_SD_au8CanadianFrench_ta_find_mailbox_1
000bfc08   _APP_SD_au8CanadianFrench_ta_find_mailbox_2
000bfc18   _APP_SD_au8Dutch_ta_find_mailbox_1
000bfc24   _APP_SD_au8Dutch_ta_find_mailbox_2
000bfc2c   _APP_SD_au8Dutch_ta_find_mailbox_3
000bfc3c   _APP_SD_au8Dutch_ta_find_mailbox_4
000bfc48   _APP_SD_au8Swedish_ta_find_mailbox_1
000bfc58   _APP_SD_au8Swedish_ta_find_mailbox_2
000bfc64   _APP_SD_au8Swedish_ta_find_mailbox_3
000bfc74   _APP_SD_au8Swedish_ta_find_mailbox_4
000bfc84   _APP_SD_au8Turkish_ta_find_mailbox_1
000bfc90   _APP_SD_au8Turkish_ta_find_mailbox_2
000bfc9c   _APP_SD_au8Turkish_ta_find_mailbox_3
000bfcac   _APP_SD_au8Turkish_ta_find_mailbox_4
000bfcb8   _APP_SD_au8Norwegian_ta_find_mailbox_1
000bfcc8   _APP_SD_au8Norwegian_ta_find_mailbox_2
000bfcd4   _APP_SD_au8Norwegian_ta_find_mailbox_3
000bfce4   _APP_SD_au8Norwegian_ta_find_mailbox_4
000bfcf4   _APP_SD_au8Polish_ta_find_mailbox_1
000bfd04   _APP_SD_au8Polish_ta_find_mailbox_2
000bfd0c   _APP_SD_au8Polish_ta_find_mailbox_3
000bfd20   _APP_SD_au8Polish_ta_find_mailbox_4
000bfd2c   _APP_SD_au8USSpanish_ta_find_mailbox_1
000bfd3c   _APP_SD_au8USSpanish_ta_find_mailbox_2
00400000   _Set_FlashRequest_Paddern
00400000   _r_F_REQUEST
00400004   ___bss__
00400004   .bss
00400004   _BAP_LsgRamTable
0040003c   _BAP_BplRamTable
0040007c   _BAP_BplHeartbeatTimerTable
00400084   _BCL_RxBuffer1
00400090   _BCL_RxBuffer2
0040009c   _BCL_RxBuffer3
00400160   _BCL_RxBuffer4
0040018e   _BCL_RxBuffer5
00400198   _BCL_RxBuffer6
004001a4   _BCL_RxBuffer7
004001b0   _BCL_RxBuffer8
004001bc   _BCL_RxBuffer9
004001c8   _BCL_RxBuffer10
00400202   _BCL_RxBuffer11
00400230   _BCL_RxBuffer12
0040023a   _BCL_RxBuffer13
00400248   _BCL_RxBuffer14
00400598   _BCL_RxBuffer15
004005a0   _BCL_RxBuffer16
004005a8   _BCL_RxBuffer17
004005b6   _BCL_RxBuffer18
004005c2   _BCL_RxBuffer19
004005cc   _BCL_RxBuffer20
004005d6   _BCL_RxBuffer21
004005de   _BCL_RxBuffer22
004005e6   _BCL_TxBuffer1
004006ca   _BCL_TxBuffer2
004006d6   _BCL_TxBuffer3
004006e4   _BCL_TxBuffer4
004006ec   _BCL_TxBuffer5
004006f6   _BCL_TxBuffer6
004006fe   _BCL_TxBuffer7
0040070c   _BCL_TxBuffer8
00400920   _BCL_TxBuffer9
004009a8   _BCL_TxBuffer10
004009b0   _BCL_TxBuffer11
004009b8   _BCL_TxBuffer12
004009e6   _BCL_TxBuffer13
004009ee   _BCL_TxBuffer14
004009f6   _BCL_TxBuffer15
00400a04   _BCL_TxBuffer16
00400de4   _BCL_TxBuffer17
00400dea   _BCL_TxBuffer18
00400df0   _BCL_TxBuffer19
00400df6   _BCL_TxBuffer20
00400dfc   _BCL_TxBuffer21
00400e02   _BCL_TxBuffer22
00400e0a   _BCL_TxBuffer23
00400e12   _BCL_TxBuffer24
00400e18   _BCL_TxBuffer25
00400e1e   _BCL_TxBuffer26
00400e24   _BCL_TxBuffer27
00400e2a   _BCL_TxBuffer28
00400e30   _BCL_TxBuffer29
00400e36   _BCL_TxBuffer30
00400e8c   _BCL_TxBuffer31
00400e98   _BCL_TxBuffer32
00400ea6   _BCL_TxBuffer33
00400eae   _BCL_TxBuffer34
00400eb6   _BCL_TxBuffer35
00400ebe   _BCL_TxBuffer36
00400ecc   _BCL_TxBuffer37
00400ed6   _BCL_TxBuffer38
004011be   _BCL_TxBuffer39
004014a6   _BCL_TxBuffer40
0040178e   _BCL_TxBuffer41
00401798   _BCL_TxBuffer42
00401da8   _BCL_TxBuffer43
00401db2   _BCL_TxBuffer44
00401de0   _BCL_TxBuffer45
00401de6   _BCL_TxBuffer46
00401df0   _BCL_TxBuffer47
004021aa   _BCL_TxBuffer48
004021b0   _BCL_TxBuffer49
004021e2   _BCL_TxBuffer50
004021ee   _BCL_TxBuffer51
004021fc   _BCL_TxBuffer52
00402204   _BCL_TxBuffer53
0040220c   _BCL_TxBuffer54
00402214   _BCL_TxBuffer55
0040221c   _BCL_TxBuffer56
0040222a   _BCL_TxBuffer57
00402236   _BCL_TxBuffer58
004024ea   _BCL_TxBuffer59
004024f2   _BCL_TxBuffer60
004024fc   _BCL_TxBuffer61
00402504   _BCL_TxBuffer62
004026fe   _BCL_TxBuffer63
0040270a   _BCL_TxBuffer64
00402718   _BCL_TxBuffer65
00402720   _BCL_TxBuffer66
00402728   _BCL_TxBuffer67
00402730   _BCL_TxBuffer68
0040273e   _BCL_TxBuffer69
00402764   _BCL_TxBuffer70
0040276c   _BCL_TxBuffer71
00402774   _BCL_TxBuffer72
0040277e   _BCL_TxBuffer73
00402786   _BCL_TxBuffer74
0040278e   _BCL_TxBuffer75
0040282c   _BCL_TxBuffer76
00402944   _BAP_InhibitRamTable
00402964   _BAP_u16InterTelegramTimerTable
00402980   _BAP_u16CanTxSegmentationTable
00402a1c   _BAP_u16CanRxSegmentationTable
00402a54   _BAP_CanTxSegmentationChannels
00402aa4   _BAP_CanRxSegmentationChannels
00402ad4   _BAP_CanRxRingBuffer
00402b2c   _BAP_u8CanRxRingBufferReadOffset
00402b2d   _BAP_u8CanRxRingBufferWriteOffset
00402b30   _BAP_pLsgRomTable
00402b40   _POOL_stATRspAllType
00402ce8   _POOL_stATRspCallStatValType
00402dd8   _POOL_stAppSdEventQueueType
00402e50   _POOL_stBapArrayHeader
00402e74   _POOL_stBapDispAckQueueElem
00402ec4   _POOL_stBapDispAckQueuePayloadType
00403e44   _POOL_stBapIndDataTypeAppMdi
00403f20   _POOL_stBapIndDataTypeAppPB
00404060   _POOL_stBapIndDataTypeAppPBLarge
004043b8   _POOL_stBapIndDataTypeAppPhone
004045c0   _POOL_stBapIndDataTypeKpb
00404610   _POOL_stBapReqDataType
00404c20   _POOL_stVCRPerfMeasCmdType
0040546c   _poolGenControl
00405508   _osAlarmTime
004055d8   _osAlarmActivated
0040560c   _osAlarmHeap
00405678   _osAlarmCycleTime
00405748   _osQReadyTask
00405764   _osQReadyPrios
00405768   _osTcbTaskState
00405770   _osTcbSP
00405788   _osResSavedPrio
00405798   _osResOccupationCounter
004057a0   _osResActualTask
004057b0   _osTcbWaitEventMask
004057c8   _osTcbSetEventMask
004057e0   _osSystemStack
004058a8   _osSupervisorStack
00405970   _osIrqStack
00405aec   _osTaskStack0
00405cb8   _osTaskStack1
00406294   _osTaskStack2
00406384   _osTaskStack3
00406514   _osTaskStack4
00406640   _osTaskStack5
00406708   _gKpbContext
00406750   _gKpbFrameBuffer
00406bf6   _gKpbLastFrameDataSent
004070d4   _MOD_KPB_Protocol_ErrorCounter
004070d7   __ATCMD_bPbRequestIsVCR
0040798c   _msgButtonStateInfoUsrData
004079d0   _msgPhoneBapRequestUsrData
00407a18   _msgPhoneBookBapRequestUsrData
00407a60   _msgMdiBapRequestUsrData
00407a6c   _msgPwrmgrStateUsrData
00407ac4   _msgKpbBapRequestUsrData
00407ad0   _msgAppDiagDiagnoseResponseUsrData
00407b8e   _msgAppDiagDiagnoseRequestUsrData
00407c60   _msgTelefonStatesUsrData
00407c84   _msgHostTaskASRStatusUsrData
00407d60   _RecLogiButMan_ButtonInfo
00407d65   _SentPhyButDriver_ButtonInfo
00407d6c   _SentPhoneBapIndQueue
00407d78   _RecPhoneBapIndQueue
00407d84   _RecPhoneBapReqQueue
00407d90   _SentPhoneBapReqQueue
00407d9c   _SentPhoneBookBapIndQueue
00407da8   _RecPhoneBookBapIndQueue
00407db4   _RecPhoneBookBapReqQueue
00407dc0   _SentPhoneBookBapReqQueue
00407dcc   _SentMdiBapIndQueue
00407dd8   _RecMdiBapIndQueue
00407de4   _RecMdiBapReqQueue
00407df0   _SentMdiBapReqQueue
00407dfc   _RecPWMGR_enVoltageStates
00407dfd   _SentPWMGR_enVoltageStates
00407e00   _SentBSGmessageType
00407e04   _RecBSGmessageType
00407e08   _SentAPP_CAN_MsgStates
00407e0b   _recAPP_CAN_MsgStates
00407e10   _SentBapIndicationQueue
00407e1c   _RecBapIndicationQueue
00407e28   _RecBapReqQueue
00407e34   _SentBapRequestQueue
00407e40   _RecAppDiagResp
00407efe   _SentAppDiagResp
00407fbc   _SentAppDiagReq
0040807a   _RecAppDiagReq
00408138   _SentMflKeyCodeType
0040813d   _RecMflKeyCodeType
00408142   _RecTelMuteBehaviorType
00408166   _SentTelMuteBehaviorType
0040818c   _RecVCRPerfMeasStatusMsgType
00408194   _SentVCRPerfMeasStatusMsgType
0040819c   _RecCSHDL_enSystemStates
0040819d   _SentCSHDL_enSystemStates
004081a0   _RecApplATResponse
004081a8   _SentApplATResponse
004081c4   _gAppSdContext
00408880   _gFrameData
00408904   __ERM_stBTDeviceTable
00408bfc   __ERM_stPhyDevTable
00408e7c   __ERM_stUserTable
00408f7c   __ERM_stPlayerHeadsetTable
00408fa4   __ERM_stActiveProfileList
00408fb8   _gAppPBContext
0040964a   __VCR_gData
00409c1a   _BAP_u16TaskTimeCounter
00409c30   __ERM_gContext
00409ff8   _EEPROM_au8DataBlock
0040a238   _eReadInProgress
0040a23a   _uwBufSize
0040a23d   _ubSecState
0040a23e   _ubResponseFromAppTask
0040a23f   _u8Service86DataValuesInitStatus
0040a240   _u8Service86DataValues
0040a244   _u8Service86DataValuesDTC
0040a2c0   __SDS_UDS_u8UserProfile
0040a2c2   __SDS_UDS_stResponsePacketToVas
0040a380   __SDS_UDS_stRequestPacketFromVas
0040a43e   __SDS_UDS_bResetOfAdaptionValuesState
0040a442   __SDS_UDS_u8Service31_BasicSettingsStatus
0040a444   __SDS_UDS_u16TimerBasicSettings
0040a446   _u8PhoneNumberLength
0040a447   _logBlockState
0040a448   _ub_RequestPending22
0040a460   _gListBuffer
0040a640   _gAppMdiContext
0040a7d0   _gAppMdiJobTable
0040a7f8   _parserRxMsgBuffer
0040a988   _parserRxMsgCount
0040ab15   __VCR_eDefaultLanguage
0040ab18   _gAppSmsContext
0040aee4   _DEH_EventBuffer
0040af4a   _DEH_stCANEventBit_mb
0040af4b   _DEH_stWarnLamp_mu8
0040af60   _MsgBuf
0040b1fd   __SDS_UDS_bStopCommunicationMessages
0040b1fe   __SDS_UDS_u8ResetToFactory
0040b200   _DTC_Maskiert
0040b2c0   _u8DTC_Maskierung
0040b2c8   _SDS_UDS_u8DTC_Mask_Counter
0040b2cb   _BAP_bInterTelegramTimerRunning
0040b2cc   _gAppPhoneContext
0040b4fc   _EE_EventMemoryBlockArray
0040b590   _DEH_FreezeFrameTable
0040b5a0   _canRxInfoStruct
0040b5b0   _canRxHandle
0040b5b4   _CanConfirmationFlags
0040b5b6   _CanIndicationFlags
0040b5f4   _canTempCanObj
0040b604   _canTempPreTransmitObj
0040b624   _canRDSRxPtr
0040b628   _canRDSTxPtr
0040b630   _gAppPBBapContext
0040b694   _gAppDeviceContext
0040b6ec   _gAppPhoneBapContext
0040b77a   _wakeupReason
0040b780   _missedMessages
0040b784   _WatchMessageTimer
0040b788   _canMsgStates
0040b7bc   _cshdlGesamtSystemState
0040b7bd   _cshdlCANState
0040b7be   _cshdlCK5050State
0040b7d8   _cshdlCanSignalInfo
0040b7f8   _gAudioManagerContext
0040b864   _EEPROM_LAYOUT_bAllBlocksEmpty
0040b8a4   _zeroString
0040b8bc   _firstCANframe
0040b90c   _s_TpVars
0040b930   _osActiveTaskPrio
0040b932   _osHighReadyTaskPrio
0040b934   _osActiveTaskIndex
0040b936   _osHighReadyTaskIndex
0040b938   _osStartDispatcher
0040b939   _osIntNestingDepth
0040b93a   _osIntSaveDisableCounter
0040b93c   _osLastActiveTaskIndex
0040b93e   _osIntAPIStatus
0040b93f   _osResGlobalOccupationCounter
0040b940   _osSystemCounter
0040b944   _osLockDispatcher
0040b945   _osSavedIntLevel
0040b946   _osSavedIntLevelNested
0040b947   _osErrorFlag
0040b948   _osAlarmHeapCount
0040b94a   _osLastError
0040b94c   _osLastErrorCode
0040b94d   _osSavedGlobalInt
0040b94e   _osSavedIntGlobalNested
0040b94f   _osIntSaveDisableCounterGlobal
0040b990   _EEMonitorControl
0040b9c8   _EEHostControl
0040b9e0   _BAPIsShutDown
0040b9e1   _BusOffDebounceTimeCounter
0040b9fc   _EEAppTaskControl
0040ba2c   __SDS_UDS_au8FingerprintValue
0040ba34   __SDS_UDS_au8ProgrammingDate
0040ba3e   _ub_RequestPending
0040ba40   _ubCounterResponseFromAppTask
0040ba6c   _pVersionInfo
0040ba72   _psDummyVersionInfo
0040ba84   _nmSendMess
0040baa4   _TimerSecurity
0040baa8   _RandomCounter
0040bad8   _BAP_DBG_DebugInfoTable
0040baf8   _FatalOsekErrorOccured
0040bafc   _FatalOsekErrorCode
0040bafe   _FatalOsekguiError
0040bb02   _gAppMdiBapContext
0040bb18   _u8_HighSpeedBarringOn
0040bb1a   _vehicleSpeed
0040bb1c   _errno
0040bb24   _ISO_Telefon_Resp
0040bb2c   _mASR5_String3
0040bb34   _mASR4_String2
0040bb3c   _mASR3_String1
0040bb44   _mASR2_String0
0040bb4c   _mASR1_TypeInfo
0040bb54   _mASR0_Status
0040bb58   _BAP_Debug_Data
0040bb5f   _BAP_Telefon_02
0040bb67   _BAP_Telefon_01
0040bb6f   _BAP_Telefon_04
0040bb77   _mTelefon_3
0040bb7e   _BAP_Telefon_03
0040bb86   _BAP_MDI_02
0040bb8e   _mASR7_Param_Feedback
0040bb96   _mASR6_Param_Request
0040bb9e   _BAP_Debug_Cmd
0040bba0   _BAP_ASG_03
0040bba2   _BAP_ASG_06
0040bba4   _BAP_ASG_07
0040bba6   _mRadio_4
0040bba7   _mDiagnose_1
0040bbaf   _mSollverbau_neu
0040bbb7   _mGateway_3
0040bbb9   _mSysteminfo_1
0040bbc0   _mMFL_Tasten
0040bbc4   _MFL_Tasten_Kon_01
0040bbc8   _mBSG_3
0040bbc9   _mBSG_2
0040bbcf   _mGW_Kombi
0040bbd2   _mBSG_Kombi
0040bbd9   _mLSM_1
0040bbde   _mAirbag_1
0040bc02   ___end__
0040bc02   end
00800000   _e_HETPROGRAM0_UN
fff7d000   _e_CAN2_ST
fff7d200   _e_CAN2_MB_PST
fff7d400   _e_SPI1_ST
fff7d500   _e_SPI2_ST
fff7d600   _e_SPI3_ST
fff7d700   _e_SPI4_ST
fff7e400   _e_CAN0_MB_PST
fff7e600   _e_CAN1_MB_PST
fff7e800   _e_CAN0_ST
fff7ea00   _e_CAN1_ST
fff7ec00   _e_GIO_ST
fff7f000   _e_ADC0_ST
fff7f400   _e_SCI0_ST
fff7f500   _e_SCI1_ST
fff7f800   _e_SPI0_ST
fff7fc00   _e_HET0_ST
fffff800   _e_DMACP_PST
fffffd00   _stMmc
fffffe00   _stAddrMan
fffffe80   _e_DMA_ST
ffffff00   _stRti
ffffff20   _e_SARCIM_ST
ffffffd0   _stSys
ffffffff   pinit
ffffffff   ___c_args__
ffffffff   ___pinit__
ffffffff   ___binit__
ffffffff   binit

[6250 symbols]
